Archive member included because of file (symbol)

/usr/lib/gcl-2.6.7/unixport//libansi_gcl.a(main.o)
                              ./user-init.o (Cnil_body)
/usr/lib/gcl-2.6.7/unixport//libansi_gcl.a(package.o)
                              /usr/lib/gcl-2.6.7/unixport//libansi_gcl.a(main.o) (gcl_init_package_function)
/usr/lib/gcl-2.6.7/unixport//libansi_gcl.a(gcl_readline.o)
                              /usr/lib/gcl-2.6.7/unixport//libansi_gcl.a(main.o) (gcl_init_readline_function)
/usr/lib/gcl-2.6.7/unixport//libansi_gcl.a(symbol.o)
                              /usr/lib/gcl-2.6.7/unixport//libansi_gcl.a(main.o) (gcl_init_symbol)
/usr/lib/gcl-2.6.7/unixport//libansi_gcl.a(makefun.o)
                              /usr/lib/gcl-2.6.7/unixport//libansi_gcl.a(main.o) (LISP_makefun)
/usr/lib/gcl-2.6.7/unixport//libansi_gcl.a(string.o)
                              /usr/lib/gcl-2.6.7/unixport//libansi_gcl.a(symbol.o) (string_eq)
/usr/lib/gcl-2.6.7/unixport//libansi_gcl.a(print.o)
                              /usr/lib/gcl-2.6.7/unixport//libansi_gcl.a(main.o) (gcl_init_print_function)
/usr/lib/gcl-2.6.7/unixport//libansi_gcl.a(macros.o)
                              /usr/lib/gcl-2.6.7/unixport//libansi_gcl.a(main.o) (gcl_init_macros)
/usr/lib/gcl-2.6.7/unixport//libansi_gcl.a(multival.o)
                              /usr/lib/gcl-2.6.7/unixport//libansi_gcl.a(main.o) (gcl_init_multival)
/usr/lib/gcl-2.6.7/unixport//libansi_gcl.a(file.o)
                              /usr/lib/gcl-2.6.7/unixport//libansi_gcl.a(main.o) (gcl_init_file_function)
/usr/lib/gcl-2.6.7/unixport//libansi_gcl.a(sys_ansi_gcl.o)
                              /usr/lib/gcl-2.6.7/unixport//libansi_gcl.a(main.o) (gcl_init_system)
/usr/lib/gcl-2.6.7/unixport//libansi_gcl.a(sfasl.o)
                              /usr/lib/gcl-2.6.7/unixport//libansi_gcl.a(main.o) (gcl_init_sfasl)
/usr/lib/gcl-2.6.7/unixport//libansi_gcl.a(eval.o)
                              /usr/lib/gcl-2.6.7/unixport//libansi_gcl.a(main.o) (gcl_init_eval)
/usr/lib/gcl-2.6.7/unixport//libansi_gcl.a(array.o)
                              /usr/lib/gcl-2.6.7/unixport//libansi_gcl.a(file.o) (adjust_displaced)
/usr/lib/gcl-2.6.7/unixport//libansi_gcl.a(lex.o)
                              /usr/lib/gcl-2.6.7/unixport//libansi_gcl.a(main.o) (gcl_init_lex)
/usr/lib/gcl-2.6.7/unixport//libansi_gcl.a(earith.o)
                              /usr/lib/gcl-2.6.7/unixport//libansi_gcl.a(main.o) (gcl_init_cmac)
/usr/lib/gcl-2.6.7/unixport//libansi_gcl.a(toplevel.o)
                              /usr/lib/gcl-2.6.7/unixport//libansi_gcl.a(main.o) (gcl_init_toplevel)
/usr/lib/gcl-2.6.7/unixport//libansi_gcl.a(nsocket.o)
                              /usr/lib/gcl-2.6.7/unixport//libansi_gcl.a(file.o) (getCharGclSocket)
/usr/lib/gcl-2.6.7/unixport//libansi_gcl.a(list.o)
                              /usr/lib/gcl-2.6.7/unixport//libansi_gcl.a(package.o) (member_eq)
/usr/lib/gcl-2.6.7/unixport//libansi_gcl.a(structure.o)
                              /usr/lib/gcl-2.6.7/unixport//libansi_gcl.a(main.o) (gcl_init_structure_function)
/usr/lib/gcl-2.6.7/unixport//libansi_gcl.a(unixfsys.o)
                              /usr/lib/gcl-2.6.7/unixport//libansi_gcl.a(main.o) (gcl_init_unixfsys)
/usr/lib/gcl-2.6.7/unixport//libansi_gcl.a(unixsys.o)
                              /usr/lib/gcl-2.6.7/unixport//libansi_gcl.a(main.o) (gcl_init_unixsys)
/usr/lib/gcl-2.6.7/unixport//libansi_gcl.a(predicate.o)
                              /usr/lib/gcl-2.6.7/unixport//libansi_gcl.a(file.o) (fLfunctionp)
/usr/lib/gcl-2.6.7/unixport//libansi_gcl.a(number.o)
                              /usr/lib/gcl-2.6.7/unixport//libansi_gcl.a(array.o) (make_longfloat)
/usr/lib/gcl-2.6.7/unixport//libansi_gcl.a(cmpaux.o)
                              /usr/lib/gcl-2.6.7/unixport//libansi_gcl.a(main.o) (gcl_init_cmpaux)
/usr/lib/gcl-2.6.7/unixport//libansi_gcl.a(num_log.o)
                              /usr/lib/gcl-2.6.7/unixport//libansi_gcl.a(number.o) (gcl_init_num_log)
/usr/lib/gcl-2.6.7/unixport//libansi_gcl.a(sequence.o)
                              /usr/lib/gcl-2.6.7/unixport//libansi_gcl.a(main.o) (gcl_init_sequence_function)
/usr/lib/gcl-2.6.7/unixport//libansi_gcl.a(pathname.o)
                              /usr/lib/gcl-2.6.7/unixport//libansi_gcl.a(main.o) (gcl_init_pathname_function)
/usr/lib/gcl-2.6.7/unixport//libansi_gcl.a(unixsave.o)
                              /usr/lib/gcl-2.6.7/unixport//libansi_gcl.a(main.o) (gcl_init_unixsave)
/usr/lib/gcl-2.6.7/unixport//libansi_gcl.a(num_co.o)
                              /usr/lib/gcl-2.6.7/unixport//libansi_gcl.a(number.o) (gcl_init_num_co)
/usr/lib/gcl-2.6.7/unixport//libansi_gcl.a(usig2.o)
                              /usr/lib/gcl-2.6.7/unixport//libansi_gcl.a(nsocket.o) (raise_pending_signals)
/usr/lib/gcl-2.6.7/unixport//libansi_gcl.a(num_pred.o)
                              /usr/lib/gcl-2.6.7/unixport//libansi_gcl.a(number.o) (gcl_init_num_pred)
/usr/lib/gcl-2.6.7/unixport//libansi_gcl.a(let.o)
                              /usr/lib/gcl-2.6.7/unixport//libansi_gcl.a(main.o) (gcl_init_let)
/usr/lib/gcl-2.6.7/unixport//libansi_gcl.a(bind.o)
                              /usr/lib/gcl-2.6.7/unixport//libansi_gcl.a(makefun.o) (set_key_struct)
/usr/lib/gcl-2.6.7/unixport//libansi_gcl.a(mapfun.o)
                              /usr/lib/gcl-2.6.7/unixport//libansi_gcl.a(main.o) (gcl_init_mapfun)
/usr/lib/gcl-2.6.7/unixport//libansi_gcl.a(typespec.o)
                              /usr/lib/gcl-2.6.7/unixport//libansi_gcl.a(main.o) (gcl_init_typespec)
/usr/lib/gcl-2.6.7/unixport//libansi_gcl.a(funlink.o)
                              /usr/lib/gcl-2.6.7/unixport//libansi_gcl.a(main.o) (clear_stack)
/usr/lib/gcl-2.6.7/unixport//libansi_gcl.a(new_init.o)
                              /usr/lib/gcl-2.6.7/unixport//libansi_gcl.a(main.o) (NewInit)
/usr/lib/gcl-2.6.7/unixport//libansi_gcl.a(utils.o)
                              /usr/lib/gcl-2.6.7/unixport//libansi_gcl.a(eval.o) (Ivs_values)
/usr/lib/gcl-2.6.7/unixport//libansi_gcl.a(read.o)
                              /usr/lib/gcl-2.6.7/unixport//libansi_gcl.a(main.o) (gcl_init_read_function)
/usr/lib/gcl-2.6.7/unixport//libansi_gcl.a(prog.o)
                              /usr/lib/gcl-2.6.7/unixport//libansi_gcl.a(main.o) (gcl_init_prog)
/usr/lib/gcl-2.6.7/unixport//libansi_gcl.a(catch.o)
                              /usr/lib/gcl-2.6.7/unixport//libansi_gcl.a(main.o) (gcl_init_catch)
/usr/lib/gcl-2.6.7/unixport//libansi_gcl.a(iteration.o)
                              /usr/lib/gcl-2.6.7/unixport//libansi_gcl.a(main.o) (gcl_init_iteration)
/usr/lib/gcl-2.6.7/unixport//libansi_gcl.a(error.o)
                              /usr/lib/gcl-2.6.7/unixport//libansi_gcl.a(main.o) (gcl_init_error)
/usr/lib/gcl-2.6.7/unixport//libansi_gcl.a(unixtime.o)
                              /usr/lib/gcl-2.6.7/unixport//libansi_gcl.a(new_init.o) (system_time_zone_helper)
/usr/lib/gcl-2.6.7/unixport//libansi_gcl.a(format.o)
                              /usr/lib/gcl-2.6.7/unixport//libansi_gcl.a(main.o) (gcl_init_format)
/usr/lib/gcl-2.6.7/unixport//libansi_gcl.a(big.o)
                              /usr/lib/gcl-2.6.7/unixport//libansi_gcl.a(predicate.o) (big_compare)
/usr/lib/gcl-2.6.7/unixport//libansi_gcl.a(hash.o)
                              /usr/lib/gcl-2.6.7/unixport//libansi_gcl.a(main.o) (gcl_init_hash)
/usr/lib/gcl-2.6.7/unixport//libansi_gcl.a(num_comp.o)
                              /usr/lib/gcl-2.6.7/unixport//libansi_gcl.a(number.o) (gcl_init_num_comp)
/usr/lib/gcl-2.6.7/unixport//libansi_gcl.a(gmp_wrappers.o)
                              /usr/lib/gcl-2.6.7/unixport//libansi_gcl.a(hash.o) (m__gmpz_size)
/usr/lib/gcl-2.6.7/unixport//libansi_gcl.a(unixfasl.o)
                              /usr/lib/gcl-2.6.7/unixport//libansi_gcl.a(main.o) (gcl_init_unixfasl)
/usr/lib/gcl-2.6.7/unixport//libansi_gcl.a(reference.o)
                              /usr/lib/gcl-2.6.7/unixport//libansi_gcl.a(main.o) (gcl_init_reference)
/usr/lib/gcl-2.6.7/unixport//libansi_gcl.a(fat_string.o)
                              /usr/lib/gcl-2.6.7/unixport//libansi_gcl.a(main.o) (gcl_init_fat_string)
/usr/lib/gcl-2.6.7/unixport//libansi_gcl.a(character.o)
                              /usr/lib/gcl-2.6.7/unixport//libansi_gcl.a(print.o) (digitp)
/usr/lib/gcl-2.6.7/unixport//libansi_gcl.a(alloc.o)
                              /usr/lib/gcl-2.6.7/unixport//libansi_gcl.a(file.o) (insert_maybe_sgc_contblock)
/usr/lib/gcl-2.6.7/unixport//libansi_gcl.a(regexpr.o)
                              /usr/lib/gcl-2.6.7/unixport//libansi_gcl.a(new_init.o) (fSstring_match_init)
/usr/lib/gcl-2.6.7/unixport//libansi_gcl.a(usig.o)
                              /usr/lib/gcl-2.6.7/unixport//libansi_gcl.a(usig2.o) (unblock_sigusr_sigio)
/usr/lib/gcl-2.6.7/unixport//libansi_gcl.a(gbc.o)
                              /usr/lib/gcl-2.6.7/unixport//libansi_gcl.a(alloc.o) (sgc_count_type)
/usr/lib/gcl-2.6.7/unixport//libansi_gcl.a(cfun.o)
                              /usr/lib/gcl-2.6.7/unixport//libansi_gcl.a(main.o) (gcl_init_cfun)
/usr/lib/gcl-2.6.7/unixport//libansi_gcl.a(nfunlink.o)
                              /usr/lib/gcl-2.6.7/unixport//libansi_gcl.a(main.o) (Iinvoke_c_function_from_value_stack)
/usr/lib/gcl-2.6.7/unixport//libansi_gcl.a(backq.o)
                              /usr/lib/gcl-2.6.7/unixport//libansi_gcl.a(read.o) (gcl_init_backq)
/usr/lib/gcl-2.6.7/unixport//libansi_gcl.a(bds.o)
                              /usr/lib/gcl-2.6.7/unixport//libansi_gcl.a(print.o) (bds_unwind)
/usr/lib/gcl-2.6.7/unixport//libansi_gcl.a(run_process.o)
                              /usr/lib/gcl-2.6.7/unixport//libansi_gcl.a(main.o) (gcl_init_socket_function)
/usr/lib/gcl-2.6.7/unixport//libansi_gcl.a(assignment.o)
                              /usr/lib/gcl-2.6.7/unixport//libansi_gcl.a(main.o) (gcl_init_assignment)
/usr/lib/gcl-2.6.7/unixport//libansi_gcl.a(conditional.o)
                              /usr/lib/gcl-2.6.7/unixport//libansi_gcl.a(main.o) (gcl_init_conditional)
/usr/lib/gcl-2.6.7/unixport//libansi_gcl.a(block.o)
                              /usr/lib/gcl-2.6.7/unixport//libansi_gcl.a(main.o) (gcl_init_block)
/usr/lib/gcl-2.6.7/unixport//libansi_gcl.a(frame.o)
                              /usr/lib/gcl-2.6.7/unixport//libansi_gcl.a(prog.o) (frs_sch)
/usr/lib/gcl-2.6.7/unixport//libansi_gcl.a(num_arith.o)
                              /usr/lib/gcl-2.6.7/unixport//libansi_gcl.a(number.o) (gcl_init_num_arith)
/usr/lib/gcl-2.6.7/unixport//libansi_gcl.a(sockets.o)
                              /usr/lib/gcl-2.6.7/unixport//libansi_gcl.a(new_init.o) (fSclear_connection_state_init)
/usr/lib/gcl-2.6.7/unixport//libansi_gcl.a(gcl_numlib.o)
                              /usr/lib/gcl-2.6.7/unixport//libansi_gcl.a(sys_ansi_gcl.o) (init_gcl_numlib)
/usr/lib/gcl-2.6.7/unixport//libansi_gcl.a(gcl_destructuring_bind.o)
                              /usr/lib/gcl-2.6.7/unixport//libansi_gcl.a(sys_ansi_gcl.o) (init_gcl_destructuring_bind)
/usr/lib/gcl-2.6.7/unixport//libansi_gcl.a(gcl_listlib.o)
                              /usr/lib/gcl-2.6.7/unixport//libansi_gcl.a(sys_ansi_gcl.o) (init_gcl_listlib)
/usr/lib/gcl-2.6.7/unixport//libansi_gcl.a(gcl_module.o)
                              /usr/lib/gcl-2.6.7/unixport//libansi_gcl.a(sys_ansi_gcl.o) (init_gcl_module)
/usr/lib/gcl-2.6.7/unixport//libansi_gcl.a(gcl_top.o)
                              /usr/lib/gcl-2.6.7/unixport//libansi_gcl.a(sys_ansi_gcl.o) (init_gcl_top)
/usr/lib/gcl-2.6.7/unixport//libansi_gcl.a(gcl_predlib.o)
                              /usr/lib/gcl-2.6.7/unixport//libansi_gcl.a(sys_ansi_gcl.o) (init_gcl_predlib)
/usr/lib/gcl-2.6.7/unixport//libansi_gcl.a(gcl_iolib.o)
                              /usr/lib/gcl-2.6.7/unixport//libansi_gcl.a(sys_ansi_gcl.o) (init_gcl_iolib)
/usr/lib/gcl-2.6.7/unixport//libansi_gcl.a(gcl_serror.o)
                              /usr/lib/gcl-2.6.7/unixport//libansi_gcl.a(sys_ansi_gcl.o) (init_gcl_serror)
/usr/lib/gcl-2.6.7/unixport//libansi_gcl.a(gcl_defstruct.o)
                              /usr/lib/gcl-2.6.7/unixport//libansi_gcl.a(sys_ansi_gcl.o) (init_gcl_defstruct)
/usr/lib/gcl-2.6.7/unixport//libansi_gcl.a(gcl_debug.o)
                              /usr/lib/gcl-2.6.7/unixport//libansi_gcl.a(sys_ansi_gcl.o) (init_gcl_debug)
/usr/lib/gcl-2.6.7/unixport//libansi_gcl.a(gcl_arraylib.o)
                              /usr/lib/gcl-2.6.7/unixport//libansi_gcl.a(sys_ansi_gcl.o) (init_gcl_arraylib)
/usr/lib/gcl-2.6.7/unixport//libansi_gcl.a(gcl_packlib.o)
                              /usr/lib/gcl-2.6.7/unixport//libansi_gcl.a(sys_ansi_gcl.o) (init_gcl_packlib)
/usr/lib/gcl-2.6.7/unixport//libansi_gcl.a(gcl_seq.o)
                              /usr/lib/gcl-2.6.7/unixport//libansi_gcl.a(sys_ansi_gcl.o) (init_gcl_seq)
/usr/lib/gcl-2.6.7/unixport//libansi_gcl.a(gcl_defpackage.o)
                              /usr/lib/gcl-2.6.7/unixport//libansi_gcl.a(sys_ansi_gcl.o) (init_gcl_defpackage)
/usr/lib/gcl-2.6.7/unixport//libansi_gcl.a(gcl_info.o)
                              /usr/lib/gcl-2.6.7/unixport//libansi_gcl.a(sys_ansi_gcl.o) (init_gcl_info)
/usr/lib/gcl-2.6.7/unixport//libansi_gcl.a(gcl_trace.o)
                              /usr/lib/gcl-2.6.7/unixport//libansi_gcl.a(sys_ansi_gcl.o) (init_gcl_trace)
/usr/lib/gcl-2.6.7/unixport//libansi_gcl.a(gcl_sloop.o)
                              /usr/lib/gcl-2.6.7/unixport//libansi_gcl.a(sys_ansi_gcl.o) (init_gcl_sloop)
/usr/lib/gcl-2.6.7/unixport//libansi_gcl.a(gcl_mislib.o)
                              /usr/lib/gcl-2.6.7/unixport//libansi_gcl.a(sys_ansi_gcl.o) (init_gcl_mislib)
/usr/lib/gcl-2.6.7/unixport//libansi_gcl.a(gcl_defmacro.o)
                              /usr/lib/gcl-2.6.7/unixport//libansi_gcl.a(sys_ansi_gcl.o) (init_gcl_defmacro)
/usr/lib/gcl-2.6.7/unixport//libansi_gcl.a(gcl_evalmacros.o)
                              /usr/lib/gcl-2.6.7/unixport//libansi_gcl.a(sys_ansi_gcl.o) (init_gcl_evalmacros)
/usr/lib/gcl-2.6.7/unixport//libansi_gcl.a(gcl_seqlib.o)
                              /usr/lib/gcl-2.6.7/unixport//libansi_gcl.a(sys_ansi_gcl.o) (init_gcl_seqlib)
/usr/lib/gcl-2.6.7/unixport//libansi_gcl.a(gcl_loop.o)
                              /usr/lib/gcl-2.6.7/unixport//libansi_gcl.a(sys_ansi_gcl.o) (init_gcl_loop)
/usr/lib/gcl-2.6.7/unixport//libansi_gcl.a(gcl_describe.o)
                              /usr/lib/gcl-2.6.7/unixport//libansi_gcl.a(sys_ansi_gcl.o) (init_gcl_describe)
/usr/lib/gcl-2.6.7/unixport//libansi_gcl.a(gcl_setf.o)
                              /usr/lib/gcl-2.6.7/unixport//libansi_gcl.a(sys_ansi_gcl.o) (init_gcl_setf)
/usr/lib/gcl-2.6.7/unixport//libansi_gcl.a(gcl_make_defpackage.o)
                              /usr/lib/gcl-2.6.7/unixport//libansi_gcl.a(sys_ansi_gcl.o) (init_gcl_make_defpackage)
/usr/lib/gcl-2.6.7/unixport//libansi_gcl.a(gcl_assert.o)
                              /usr/lib/gcl-2.6.7/unixport//libansi_gcl.a(sys_ansi_gcl.o) (init_gcl_assert)
/usr/lib/gcl-2.6.7/unixport//libansi_gcl.a(gcl_defentry_events.o)
                              /usr/lib/gcl-2.6.7/unixport//libansi_gcl.a(sys_ansi_gcl.o) (init_gcl_defentry_events)
/usr/lib/gcl-2.6.7/unixport//libansi_gcl.a(gcl_keysymdef.o)
                              /usr/lib/gcl-2.6.7/unixport//libansi_gcl.a(sys_ansi_gcl.o) (init_gcl_keysymdef)
/usr/lib/gcl-2.6.7/unixport//libansi_gcl.a(gcl_XStruct_l_3.o)
                              /usr/lib/gcl-2.6.7/unixport//libansi_gcl.a(sys_ansi_gcl.o) (init_gcl_XStruct_l_3)
/usr/lib/gcl-2.6.7/unixport//libansi_gcl.a(gcl_tohtml.o)
                              /usr/lib/gcl-2.6.7/unixport//libansi_gcl.a(sys_ansi_gcl.o) (init_gcl_tohtml)
/usr/lib/gcl-2.6.7/unixport//libansi_gcl.a(Events.o)
                              /usr/lib/gcl-2.6.7/unixport//libansi_gcl.a(gcl_defentry_events.o) (make_XKeyEvent)
/usr/lib/gcl-2.6.7/unixport//libansi_gcl.a(gcl_Xutil.o)
                              /usr/lib/gcl-2.6.7/unixport//libansi_gcl.a(sys_ansi_gcl.o) (init_gcl_Xutil)
/usr/lib/gcl-2.6.7/unixport//libansi_gcl.a(XStruct-4.o)
                              /usr/lib/gcl-2.6.7/unixport//libansi_gcl.a(gcl_XStruct_l_3.o) (make_XExtCodes)
/usr/lib/gcl-2.6.7/unixport//libansi_gcl.a(gcl_Xlib.o)
                              /usr/lib/gcl-2.6.7/unixport//libansi_gcl.a(sys_ansi_gcl.o) (init_gcl_Xlib)
/usr/lib/gcl-2.6.7/unixport//libansi_gcl.a(gcl_Xstruct.o)
                              /usr/lib/gcl-2.6.7/unixport//libansi_gcl.a(sys_ansi_gcl.o) (init_gcl_Xstruct)
/usr/lib/gcl-2.6.7/unixport//libansi_gcl.a(XStruct-2.o)
                              /usr/lib/gcl-2.6.7/unixport//libansi_gcl.a(gcl_Xstruct.o) (make__XQEvent)
/usr/lib/gcl-2.6.7/unixport//libansi_gcl.a(gcl_XAtom.o)
                              /usr/lib/gcl-2.6.7/unixport//libansi_gcl.a(sys_ansi_gcl.o) (init_gcl_XAtom)
/usr/lib/gcl-2.6.7/unixport//libansi_gcl.a(gcl_X10.o)
                              /usr/lib/gcl-2.6.7/unixport//libansi_gcl.a(sys_ansi_gcl.o) (init_gcl_X10)
/usr/lib/gcl-2.6.7/unixport//libansi_gcl.a(Xutil-2.o)
                              /usr/lib/gcl-2.6.7/unixport//libansi_gcl.a(gcl_Xutil.o) (IsKeypadKey)
/usr/lib/gcl-2.6.7/unixport//libansi_gcl.a(gcl_Xinit.o)
                              /usr/lib/gcl-2.6.7/unixport//libansi_gcl.a(sys_ansi_gcl.o) (init_gcl_Xinit)
/usr/lib/gcl-2.6.7/unixport//libansi_gcl.a(gcl_index.o)
                              /usr/lib/gcl-2.6.7/unixport//libansi_gcl.a(sys_ansi_gcl.o) (init_gcl_index)
/usr/lib/gcl-2.6.7/unixport//libansi_gcl.a(gcl_dwtrans.o)
                              /usr/lib/gcl-2.6.7/unixport//libansi_gcl.a(sys_ansi_gcl.o) (init_gcl_dwtrans)
/usr/lib/gcl-2.6.7/unixport//libansi_gcl.a(gcl_general.o)
                              /usr/lib/gcl-2.6.7/unixport//libansi_gcl.a(sys_ansi_gcl.o) (init_gcl_general)
/usr/lib/gcl-2.6.7/unixport//libansi_gcl.a(gcl_X.o)
                              /usr/lib/gcl-2.6.7/unixport//libansi_gcl.a(sys_ansi_gcl.o) (init_gcl_X)
/usr/lib/gcl-2.6.7/unixport//libansi_gcl.a(gcl_cmplet.o)
                              /usr/lib/gcl-2.6.7/unixport//libansi_gcl.a(sys_ansi_gcl.o) (init_gcl_cmplet)
/usr/lib/gcl-2.6.7/unixport//libansi_gcl.a(gcl_cmpflet.o)
                              /usr/lib/gcl-2.6.7/unixport//libansi_gcl.a(sys_ansi_gcl.o) (init_gcl_cmpflet)
/usr/lib/gcl-2.6.7/unixport//libansi_gcl.a(gcl_cmpfun.o)
                              /usr/lib/gcl-2.6.7/unixport//libansi_gcl.a(sys_ansi_gcl.o) (init_gcl_cmpfun)
/usr/lib/gcl-2.6.7/unixport//libansi_gcl.a(gcl_cmpspecial.o)
                              /usr/lib/gcl-2.6.7/unixport//libansi_gcl.a(sys_ansi_gcl.o) (init_gcl_cmpspecial)
/usr/lib/gcl-2.6.7/unixport//libansi_gcl.a(gcl_cmputil.o)
                              /usr/lib/gcl-2.6.7/unixport//libansi_gcl.a(sys_ansi_gcl.o) (init_gcl_cmputil)
/usr/lib/gcl-2.6.7/unixport//libansi_gcl.a(gcl_cmptag.o)
                              /usr/lib/gcl-2.6.7/unixport//libansi_gcl.a(sys_ansi_gcl.o) (init_gcl_cmptag)
/usr/lib/gcl-2.6.7/unixport//libansi_gcl.a(gcl_cmpblock.o)
                              /usr/lib/gcl-2.6.7/unixport//libansi_gcl.a(sys_ansi_gcl.o) (init_gcl_cmpblock)
/usr/lib/gcl-2.6.7/unixport//libansi_gcl.a(gcl_cmpwt.o)
                              /usr/lib/gcl-2.6.7/unixport//libansi_gcl.a(sys_ansi_gcl.o) (init_gcl_cmpwt)
/usr/lib/gcl-2.6.7/unixport//libansi_gcl.a(gcl_cmplam.o)
                              /usr/lib/gcl-2.6.7/unixport//libansi_gcl.a(sys_ansi_gcl.o) (init_gcl_cmplam)
/usr/lib/gcl-2.6.7/unixport//libansi_gcl.a(gcl_cmpvs.o)
                              /usr/lib/gcl-2.6.7/unixport//libansi_gcl.a(sys_ansi_gcl.o) (init_gcl_cmpvs)
/usr/lib/gcl-2.6.7/unixport//libansi_gcl.a(gcl_cmpenv.o)
                              /usr/lib/gcl-2.6.7/unixport//libansi_gcl.a(sys_ansi_gcl.o) (init_gcl_cmpenv)
/usr/lib/gcl-2.6.7/unixport//libansi_gcl.a(gcl_cmpcatch.o)
                              /usr/lib/gcl-2.6.7/unixport//libansi_gcl.a(sys_ansi_gcl.o) (init_gcl_cmpcatch)
/usr/lib/gcl-2.6.7/unixport//libansi_gcl.a(gcl_cmpmulti.o)
                              /usr/lib/gcl-2.6.7/unixport//libansi_gcl.a(sys_ansi_gcl.o) (init_gcl_cmpmulti)
/usr/lib/gcl-2.6.7/unixport//libansi_gcl.a(gcl_cmpmain.o)
                              /usr/lib/gcl-2.6.7/unixport//libansi_gcl.a(sys_ansi_gcl.o) (init_gcl_cmpmain)
/usr/lib/gcl-2.6.7/unixport//libansi_gcl.a(gcl_cmptop.o)
                              /usr/lib/gcl-2.6.7/unixport//libansi_gcl.a(sys_ansi_gcl.o) (init_gcl_cmptop)
/usr/lib/gcl-2.6.7/unixport//libansi_gcl.a(gcl_cmptype.o)
                              /usr/lib/gcl-2.6.7/unixport//libansi_gcl.a(sys_ansi_gcl.o) (init_gcl_cmptype)
/usr/lib/gcl-2.6.7/unixport//libansi_gcl.a(gcl_cmpvar.o)
                              /usr/lib/gcl-2.6.7/unixport//libansi_gcl.a(sys_ansi_gcl.o) (init_gcl_cmpvar)
/usr/lib/gcl-2.6.7/unixport//libansi_gcl.a(gcl_cmpif.o)
                              /usr/lib/gcl-2.6.7/unixport//libansi_gcl.a(sys_ansi_gcl.o) (init_gcl_cmpif)
/usr/lib/gcl-2.6.7/unixport//libansi_gcl.a(gcl_cmpbind.o)
                              /usr/lib/gcl-2.6.7/unixport//libansi_gcl.a(sys_ansi_gcl.o) (init_gcl_cmpbind)
/usr/lib/gcl-2.6.7/unixport//libansi_gcl.a(gcl_cmploc.o)
                              /usr/lib/gcl-2.6.7/unixport//libansi_gcl.a(sys_ansi_gcl.o) (init_gcl_cmploc)
/usr/lib/gcl-2.6.7/unixport//libansi_gcl.a(gcl_cmplabel.o)
                              /usr/lib/gcl-2.6.7/unixport//libansi_gcl.a(sys_ansi_gcl.o) (init_gcl_cmplabel)
/usr/lib/gcl-2.6.7/unixport//libansi_gcl.a(gcl_cmpmap.o)
                              /usr/lib/gcl-2.6.7/unixport//libansi_gcl.a(sys_ansi_gcl.o) (init_gcl_cmpmap)
/usr/lib/gcl-2.6.7/unixport//libansi_gcl.a(gcl_cmpinline.o)
                              /usr/lib/gcl-2.6.7/unixport//libansi_gcl.a(sys_ansi_gcl.o) (init_gcl_cmpinline)
/usr/lib/gcl-2.6.7/unixport//libansi_gcl.a(gcl_cmpeval.o)
                              /usr/lib/gcl-2.6.7/unixport//libansi_gcl.a(sys_ansi_gcl.o) (init_gcl_cmpeval)
/usr/lib/gcl-2.6.7/unixport//libansi_gcl.a(gcl_cmpcall.o)
                              /usr/lib/gcl-2.6.7/unixport//libansi_gcl.a(sys_ansi_gcl.o) (init_gcl_cmpcall)
/usr/lib/gcl-2.6.7/unixport//libansi_gcl.a(gcl_pcl_gazonk5.o)
                              /usr/lib/gcl-2.6.7/unixport//libansi_gcl.a(sys_ansi_gcl.o) (init_gcl_pcl_gazonk5)
/usr/lib/gcl-2.6.7/unixport//libansi_gcl.a(gcl_pcl_precom2.o)
                              /usr/lib/gcl-2.6.7/unixport//libansi_gcl.a(sys_ansi_gcl.o) (init_gcl_pcl_precom2)
/usr/lib/gcl-2.6.7/unixport//libansi_gcl.a(gcl_pcl_macros.o)
                              /usr/lib/gcl-2.6.7/unixport//libansi_gcl.a(sys_ansi_gcl.o) (init_gcl_pcl_macros)
/usr/lib/gcl-2.6.7/unixport//libansi_gcl.a(gcl_pcl_fast_init.o)
                              /usr/lib/gcl-2.6.7/unixport//libansi_gcl.a(sys_ansi_gcl.o) (init_gcl_pcl_fast_init)
/usr/lib/gcl-2.6.7/unixport//libansi_gcl.a(gcl_pcl_env.o)
                              /usr/lib/gcl-2.6.7/unixport//libansi_gcl.a(sys_ansi_gcl.o) (init_gcl_pcl_env)
/usr/lib/gcl-2.6.7/unixport//libansi_gcl.a(gcl_pcl_walk.o)
                              /usr/lib/gcl-2.6.7/unixport//libansi_gcl.a(sys_ansi_gcl.o) (init_gcl_pcl_walk)
/usr/lib/gcl-2.6.7/unixport//libansi_gcl.a(gcl_pcl_defcombin.o)
                              /usr/lib/gcl-2.6.7/unixport//libansi_gcl.a(sys_ansi_gcl.o) (init_gcl_pcl_defcombin)
/usr/lib/gcl-2.6.7/unixport//libansi_gcl.a(gcl_pcl_std_class.o)
                              /usr/lib/gcl-2.6.7/unixport//libansi_gcl.a(sys_ansi_gcl.o) (init_gcl_pcl_std_class)
/usr/lib/gcl-2.6.7/unixport//libansi_gcl.a(gcl_pcl_defclass.o)
                              /usr/lib/gcl-2.6.7/unixport//libansi_gcl.a(sys_ansi_gcl.o) (init_gcl_pcl_defclass)
/usr/lib/gcl-2.6.7/unixport//libansi_gcl.a(gcl_pcl_fsc.o)
                              /usr/lib/gcl-2.6.7/unixport//libansi_gcl.a(sys_ansi_gcl.o) (init_gcl_pcl_fsc)
/usr/lib/gcl-2.6.7/unixport//libansi_gcl.a(gcl_pcl_vector.o)
                              /usr/lib/gcl-2.6.7/unixport//libansi_gcl.a(sys_ansi_gcl.o) (init_gcl_pcl_vector)
/usr/lib/gcl-2.6.7/unixport//libansi_gcl.a(gcl_pcl_precom1.o)
                              /usr/lib/gcl-2.6.7/unixport//libansi_gcl.a(sys_ansi_gcl.o) (init_gcl_pcl_precom1)
/usr/lib/gcl-2.6.7/unixport//libansi_gcl.a(gcl_pcl_compat.o)
                              /usr/lib/gcl-2.6.7/unixport//libansi_gcl.a(sys_ansi_gcl.o) (init_gcl_pcl_compat)
/usr/lib/gcl-2.6.7/unixport//libansi_gcl.a(gcl_pcl_cpl.o)
                              /usr/lib/gcl-2.6.7/unixport//libansi_gcl.a(sys_ansi_gcl.o) (init_gcl_pcl_cpl)
/usr/lib/gcl-2.6.7/unixport//libansi_gcl.a(gcl_pcl_fngen.o)
                              /usr/lib/gcl-2.6.7/unixport//libansi_gcl.a(sys_ansi_gcl.o) (init_gcl_pcl_fngen)
/usr/lib/gcl-2.6.7/unixport//libansi_gcl.a(gcl_pcl_slots_boot.o)
                              /usr/lib/gcl-2.6.7/unixport//libansi_gcl.a(sys_ansi_gcl.o) (init_gcl_pcl_slots_boot)
/usr/lib/gcl-2.6.7/unixport//libansi_gcl.a(gcl_pcl_gazonk7.o)
                              /usr/lib/gcl-2.6.7/unixport//libansi_gcl.a(sys_ansi_gcl.o) (init_gcl_pcl_gazonk7)
/usr/lib/gcl-2.6.7/unixport//libansi_gcl.a(gcl_pcl_gazonk3.o)
                              /usr/lib/gcl-2.6.7/unixport//libansi_gcl.a(sys_ansi_gcl.o) (init_gcl_pcl_gazonk3)
/usr/lib/gcl-2.6.7/unixport//libansi_gcl.a(gcl_pcl_boot.o)
                              /usr/lib/gcl-2.6.7/unixport//libansi_gcl.a(sys_ansi_gcl.o) (init_gcl_pcl_boot)
/usr/lib/gcl-2.6.7/unixport//libansi_gcl.a(gcl_pcl_impl_low.o)
                              /usr/lib/gcl-2.6.7/unixport//libansi_gcl.a(sys_ansi_gcl.o) (init_gcl_pcl_impl_low)
/usr/lib/gcl-2.6.7/unixport//libansi_gcl.a(gcl_pcl_dlisp.o)
                              /usr/lib/gcl-2.6.7/unixport//libansi_gcl.a(sys_ansi_gcl.o) (init_gcl_pcl_dlisp)
/usr/lib/gcl-2.6.7/unixport//libansi_gcl.a(gcl_pcl_init.o)
                              /usr/lib/gcl-2.6.7/unixport//libansi_gcl.a(sys_ansi_gcl.o) (init_gcl_pcl_init)
/usr/lib/gcl-2.6.7/unixport//libansi_gcl.a(gcl_pcl_dlisp2.o)
                              /usr/lib/gcl-2.6.7/unixport//libansi_gcl.a(sys_ansi_gcl.o) (init_gcl_pcl_dlisp2)
/usr/lib/gcl-2.6.7/unixport//libansi_gcl.a(gcl_pcl_cache.o)
                              /usr/lib/gcl-2.6.7/unixport//libansi_gcl.a(sys_ansi_gcl.o) (init_gcl_pcl_cache)
/usr/lib/gcl-2.6.7/unixport//libansi_gcl.a(gcl_pcl_gazonk6.o)
                              /usr/lib/gcl-2.6.7/unixport//libansi_gcl.a(sys_ansi_gcl.o) (init_gcl_pcl_gazonk6)
/usr/lib/gcl-2.6.7/unixport//libansi_gcl.a(gcl_pcl_defs.o)
                              /usr/lib/gcl-2.6.7/unixport//libansi_gcl.a(sys_ansi_gcl.o) (init_gcl_pcl_defs)
/usr/lib/gcl-2.6.7/unixport//libansi_gcl.a(gcl_pcl_low.o)
                              /usr/lib/gcl-2.6.7/unixport//libansi_gcl.a(sys_ansi_gcl.o) (init_gcl_pcl_low)
/usr/lib/gcl-2.6.7/unixport//libansi_gcl.a(gcl_pcl_generic_functions.o)
                              /usr/lib/gcl-2.6.7/unixport//libansi_gcl.a(sys_ansi_gcl.o) (init_gcl_pcl_generic_functions)
/usr/lib/gcl-2.6.7/unixport//libansi_gcl.a(gcl_pcl_gazonk4.o)
                              /usr/lib/gcl-2.6.7/unixport//libansi_gcl.a(sys_ansi_gcl.o) (init_gcl_pcl_gazonk4)
/usr/lib/gcl-2.6.7/unixport//libansi_gcl.a(gcl_pcl_iterate.o)
                              /usr/lib/gcl-2.6.7/unixport//libansi_gcl.a(sys_ansi_gcl.o) (init_gcl_pcl_iterate)
/usr/lib/gcl-2.6.7/unixport//libansi_gcl.a(gcl_pcl_gazonk2.o)
                              /usr/lib/gcl-2.6.7/unixport//libansi_gcl.a(sys_ansi_gcl.o) (init_gcl_pcl_gazonk2)
/usr/lib/gcl-2.6.7/unixport//libansi_gcl.a(gcl_pcl_methods.o)
                              /usr/lib/gcl-2.6.7/unixport//libansi_gcl.a(sys_ansi_gcl.o) (init_gcl_pcl_methods)
/usr/lib/gcl-2.6.7/unixport//libansi_gcl.a(gcl_pcl_fin.o)
                              /usr/lib/gcl-2.6.7/unixport//libansi_gcl.a(sys_ansi_gcl.o) (init_gcl_pcl_fin)
/usr/lib/gcl-2.6.7/unixport//libansi_gcl.a(gcl_pcl_gazonk1.o)
                              /usr/lib/gcl-2.6.7/unixport//libansi_gcl.a(sys_ansi_gcl.o) (init_gcl_pcl_gazonk1)
/usr/lib/gcl-2.6.7/unixport//libansi_gcl.a(gcl_pcl_gazonk0.o)
                              /usr/lib/gcl-2.6.7/unixport//libansi_gcl.a(sys_ansi_gcl.o) (init_gcl_pcl_gazonk0)
/usr/lib/gcl-2.6.7/unixport//libansi_gcl.a(gcl_pcl_dfun.o)
                              /usr/lib/gcl-2.6.7/unixport//libansi_gcl.a(sys_ansi_gcl.o) (init_gcl_pcl_dfun)
/usr/lib/gcl-2.6.7/unixport//libansi_gcl.a(gcl_pcl_fixup.o)
                              /usr/lib/gcl-2.6.7/unixport//libansi_gcl.a(sys_ansi_gcl.o) (init_gcl_pcl_fixup)
/usr/lib/gcl-2.6.7/unixport//libansi_gcl.a(gcl_pcl_slots.o)
                              /usr/lib/gcl-2.6.7/unixport//libansi_gcl.a(sys_ansi_gcl.o) (init_gcl_pcl_slots)
/usr/lib/gcl-2.6.7/unixport//libansi_gcl.a(gcl_pcl_combin.o)
                              /usr/lib/gcl-2.6.7/unixport//libansi_gcl.a(sys_ansi_gcl.o) (init_gcl_pcl_combin)
/usr/lib/gcl-2.6.7/unixport//libansi_gcl.a(gcl_pcl_pkg.o)
                              /usr/lib/gcl-2.6.7/unixport//libansi_gcl.a(sys_ansi_gcl.o) (init_gcl_pcl_pkg)
/usr/lib/gcl-2.6.7/unixport//libansi_gcl.a(gcl_pcl_braid.o)
                              /usr/lib/gcl-2.6.7/unixport//libansi_gcl.a(sys_ansi_gcl.o) (init_gcl_pcl_braid)
/usr/lib/gcl-2.6.7/unixport//libansi_gcl.a(gcl_pcl_ctypes.o)
                              /usr/lib/gcl-2.6.7/unixport//libansi_gcl.a(sys_ansi_gcl.o) (init_gcl_pcl_ctypes)
/usr/lib/gcl-2.6.7/unixport//libansi_gcl.a(gcl_clcs_install.o)
                              /usr/lib/gcl-2.6.7/unixport//libansi_gcl.a(sys_ansi_gcl.o) (init_gcl_clcs_install)
/usr/lib/gcl-2.6.7/unixport//libansi_gcl.a(gcl_clcs_handler.o)
                              /usr/lib/gcl-2.6.7/unixport//libansi_gcl.a(sys_ansi_gcl.o) (init_gcl_clcs_handler)
/usr/lib/gcl-2.6.7/unixport//libansi_gcl.a(gcl_clcs_macros.o)
                              /usr/lib/gcl-2.6.7/unixport//libansi_gcl.a(sys_ansi_gcl.o) (init_gcl_clcs_macros)
/usr/lib/gcl-2.6.7/unixport//libansi_gcl.a(gcl_clcs_conditions.o)
                              /usr/lib/gcl-2.6.7/unixport//libansi_gcl.a(sys_ansi_gcl.o) (init_gcl_clcs_conditions)
/usr/lib/gcl-2.6.7/unixport//libansi_gcl.a(gcl_clcs_debugger.o)
                              /usr/lib/gcl-2.6.7/unixport//libansi_gcl.a(sys_ansi_gcl.o) (init_gcl_clcs_debugger)
/usr/lib/gcl-2.6.7/unixport//libansi_gcl.a(gcl_clcs_top_patches.o)
                              /usr/lib/gcl-2.6.7/unixport//libansi_gcl.a(sys_ansi_gcl.o) (init_gcl_clcs_top_patches)
/usr/lib/gcl-2.6.7/unixport//libansi_gcl.a(gcl_clcs_condition_definitions.o)
                              /usr/lib/gcl-2.6.7/unixport//libansi_gcl.a(sys_ansi_gcl.o) (init_gcl_clcs_condition_definitions)
/usr/lib/gcl-2.6.7/unixport//libansi_gcl.a(gcl_clcs_restart.o)
                              /usr/lib/gcl-2.6.7/unixport//libansi_gcl.a(sys_ansi_gcl.o) (init_gcl_clcs_restart)
/usr/lib/gcl-2.6.7/unixport//libansi_gcl.a(gcl_clcs_precom.o)
                              /usr/lib/gcl-2.6.7/unixport//libansi_gcl.a(sys_ansi_gcl.o) (init_gcl_clcs_precom)
/usr/lib/gcl-2.6.7/unixport//libansi_gcl.a(gcl_clcs_kcl_cond.o)
                              /usr/lib/gcl-2.6.7/unixport//libansi_gcl.a(sys_ansi_gcl.o) (init_gcl_clcs_kcl_cond)
/usr/lib/gcl-2.6.7/unixport//libansi_gcl.a(num_sfun.o)
                              /usr/lib/gcl-2.6.7/unixport//libansi_gcl.a(number.o) (gcl_init_num_sfun)
/usr/lib/gcl-2.6.7/unixport//libansi_gcl.a(num_rand.o)
                              /usr/lib/gcl-2.6.7/unixport//libansi_gcl.a(number.o) (gcl_init_num_rand)
/usr/lib/gcl-2.6.7/unixport//libansi_gcl.a(general-c.o)
                              /usr/lib/gcl-2.6.7/unixport//libansi_gcl.a(gcl_general.o) (char_array)
/usr/lib/libc_nonshared.a(elf-init.oS)
                              /usr/lib/gcc/i486-linux-gnu/4.4.4/../../../../lib/crt1.o (__libc_csu_fini)
/usr/lib/libc_nonshared.a(atexit.oS)
                              /usr/lib/gcl-2.6.7/unixport//libansi_gcl.a(gbc.o) (atexit)
/usr/lib/gcc/i486-linux-gnu/4.4.4/libgcc.a(_moddi3.o)
                              /usr/lib/gcl-2.6.7/unixport//libansi_gcl.a(earith.o) (__moddi3)

Allocating common symbols
Common symbol       size              file

keyword_package     0x4               /usr/lib/gcl-2.6.7/unixport//libansi_gcl.a(main.o)
sLlong_float        0x4               /usr/lib/gcl-2.6.7/unixport//libansi_gcl.a(main.o)
sLAtrace_outputA    0x4               /usr/lib/gcl-2.6.7/unixport//libansi_gcl.a(main.o)
sLspecial           0x4               /usr/lib/gcl-2.6.7/unixport//libansi_gcl.a(main.o)
sfaslp              0x4               /usr/lib/gcl-2.6.7/unixport//libansi_gcl.a(usig2.o)
sKend1              0x4               /usr/lib/gcl-2.6.7/unixport//libansi_gcl.a(string.o)
sLboolean           0x4               /usr/lib/gcl-2.6.7/unixport//libansi_gcl.a(main.o)
sSAbreak_stepA      0x4               /usr/lib/gcl-2.6.7/unixport//libansi_gcl.a(main.o)
dump_index          0x4               /usr/lib/gcl-2.6.7/unixport//libansi_gcl.a(fat_string.o)
TSor_integer_float  0x4               /usr/lib/gcl-2.6.7/unixport//libansi_gcl.a(main.o)
sSAoptimize_maximum_pagesA
                    0x4               /usr/lib/gcl-2.6.7/unixport//libansi_gcl.a(main.o)
endp_temp           0x4               /usr/lib/gcl-2.6.7/unixport//libansi_gcl.a(main.o)
sLunsigned_char     0x4               /usr/lib/gcl-2.6.7/unixport//libansi_gcl.a(main.o)
sLappend            0x4               /usr/lib/gcl-2.6.7/unixport//libansi_gcl.a(main.o)
sKtoo_few_arguments
                    0x4               /usr/lib/gcl-2.6.7/unixport//libansi_gcl.a(main.o)
CMPtemp             0x4               /usr/lib/gcl-2.6.7/unixport//libansi_gcl.a(main.o)
sSsocket            0x4               /usr/lib/gcl-2.6.7/unixport//libansi_gcl.a(main.o)
imag_two            0x4               /usr/lib/gcl-2.6.7/unixport//libansi_gcl.a(num_sfun.o)
interrupt_enable    0x4               /usr/lib/gcl-2.6.7/unixport//libansi_gcl.a(main.o)
PRINTreadably       0x4               /usr/lib/gcl-2.6.7/unixport//libansi_gcl.a(main.o)
cs_limit            0x4               /usr/lib/gcl-2.6.7/unixport//libansi_gcl.a(main.o)
ihs_top             0x4               /usr/lib/gcl-2.6.7/unixport//libansi_gcl.a(main.o)
sKunexpected_keyword
                    0x4               /usr/lib/gcl-2.6.7/unixport//libansi_gcl.a(main.o)
sSAignore_maximum_pagesA
                    0x4               /usr/lib/gcl-2.6.7/unixport//libansi_gcl.a(main.o)
sLarray             0x4               /usr/lib/gcl-2.6.7/unixport//libansi_gcl.a(main.o)
tm_table            0x880             /usr/lib/gcl-2.6.7/unixport//libansi_gcl.a(main.o)
eval1               0x4               /usr/lib/gcl-2.6.7/unixport//libansi_gcl.a(main.o)
user_package        0x4               /usr/lib/gcl-2.6.7/unixport//libansi_gcl.a(main.o)
lex_env             0x4               /usr/lib/gcl-2.6.7/unixport//libansi_gcl.a(main.o)
sKdirection         0x4               /usr/lib/gcl-2.6.7/unixport//libansi_gcl.a(main.o)
sSsetf_lambda       0x4               /usr/lib/gcl-2.6.7/unixport//libansi_gcl.a(main.o)
data_rlimit         0x8               /usr/lib/gcl-2.6.7/unixport//libansi_gcl.a(alloc.o)
character_table1    0x4e00            /usr/lib/gcl-2.6.7/unixport//libansi_gcl.a(main.o)
plus_half           0x4               /usr/lib/gcl-2.6.7/unixport//libansi_gcl.a(num_co.o)
sLmethod_combination
                    0x4               /usr/lib/gcl-2.6.7/unixport//libansi_gcl.a(main.o)
sLcompile           0x4               /usr/lib/gcl-2.6.7/unixport//libansi_gcl.a(main.o)
sKoutput            0x4               /usr/lib/gcl-2.6.7/unixport//libansi_gcl.a(main.o)
TSpositive_number   0x4               /usr/lib/gcl-2.6.7/unixport//libansi_gcl.a(main.o)
sLAprint_circleA    0x4               /usr/lib/gcl-2.6.7/unixport//libansi_gcl.a(main.o)
sStop_level         0x4               /usr/lib/gcl-2.6.7/unixport//libansi_gcl.a(main.o)
big_fixnum1_body    0x10              /usr/lib/gcl-2.6.7/unixport//libansi_gcl.a(main.o)
MVloc               0x28              /usr/lib/gcl-2.6.7/unixport//libansi_gcl.a(main.o)
system_directory    0x4               /usr/lib/gcl-2.6.7/unixport//libansi_gcl.a(main.o)
stdin_buf           0x2008            /usr/lib/gcl-2.6.7/unixport//libansi_gcl.a(main.o)
cb_pointer          0x4               /usr/lib/gcl-2.6.7/unixport//libansi_gcl.a(main.o)
sSAcase_fold_searchA
                    0x4               /usr/lib/gcl-2.6.7/unixport//libansi_gcl.a(main.o)
ihs_limit           0x4               /usr/lib/gcl-2.6.7/unixport//libansi_gcl.a(main.o)
sLnumber            0x4               /usr/lib/gcl-2.6.7/unixport//libansi_gcl.a(main.o)
sLnull              0x4               /usr/lib/gcl-2.6.7/unixport//libansi_gcl.a(main.o)
sgc_on              0x4               /usr/lib/gcl-2.6.7/unixport//libansi_gcl.a(main.o)
sKset_default_pathname
                    0x4               /usr/lib/gcl-2.6.7/unixport//libansi_gcl.a(main.o)
sKio                0x4               /usr/lib/gcl-2.6.7/unixport//libansi_gcl.a(main.o)
fmt_stream          0x4               /usr/lib/gcl-2.6.7/unixport//libansi_gcl.a(main.o)
fas_stream          0x4               /usr/lib/gcl-2.6.7/unixport//libansi_gcl.a(fat_string.o)
TSor_pathname_string_symbol_stream
                    0x4               /usr/lib/gcl-2.6.7/unixport//libansi_gcl.a(main.o)
ctl_end             0x4               /usr/lib/gcl-2.6.7/unixport//libansi_gcl.a(main.o)
sSPmemory           0x4               /usr/lib/gcl-2.6.7/unixport//libansi_gcl.a(main.o)
sKcase              0x4               /usr/lib/gcl-2.6.7/unixport//libansi_gcl.a(main.o)
fmt_jmp_bufp        0x4               /usr/lib/gcl-2.6.7/unixport//libansi_gcl.a(main.o)
sSAmultiply_stacksA
                    0x4               /usr/lib/gcl-2.6.7/unixport//libansi_gcl.a(main.o)
sLAread_baseA       0x4               /usr/lib/gcl-2.6.7/unixport//libansi_gcl.a(main.o)
sLquote             0x4               /usr/lib/gcl-2.6.7/unixport//libansi_gcl.a(main.o)
PRINTbase           0x4               /usr/lib/gcl-2.6.7/unixport//libansi_gcl.a(main.o)
rb_start            0x4               /usr/lib/gcl-2.6.7/unixport//libansi_gcl.a(main.o)
sLtwo_way_stream    0x4               /usr/lib/gcl-2.6.7/unixport//libansi_gcl.a(main.o)
new_holepage        0x4               /usr/lib/gcl-2.6.7/unixport//libansi_gcl.a(alloc.o)
sLwarn              0x4               /usr/lib/gcl-2.6.7/unixport//libansi_gcl.a(main.o)
sLAprint_caseA      0x4               /usr/lib/gcl-2.6.7/unixport//libansi_gcl.a(main.o)
sLfill_pointer      0x4               /usr/lib/gcl-2.6.7/unixport//libansi_gcl.a(main.o)
sKoverwrite         0x4               /usr/lib/gcl-2.6.7/unixport//libansi_gcl.a(main.o)
bds_top             0x4               /usr/lib/gcl-2.6.7/unixport//libansi_gcl.a(main.o)
sKstart1            0x4               /usr/lib/gcl-2.6.7/unixport//libansi_gcl.a(string.o)
sSstructure_access  0x4               /usr/lib/gcl-2.6.7/unixport//libansi_gcl.a(main.o)
sKreadably          0x4               /usr/lib/gcl-2.6.7/unixport//libansi_gcl.a(main.o)
right_trim          0x4               /usr/lib/gcl-2.6.7/unixport//libansi_gcl.a(main.o)
CMPtemp1            0x4               /usr/lib/gcl-2.6.7/unixport//libansi_gcl.a(main.o)
escape_flag         0x4               /usr/lib/gcl-2.6.7/unixport//libansi_gcl.a(main.o)
bigger_fixnum_table
                    0x4               /usr/lib/gcl-2.6.7/unixport//libansi_gcl.a(number.o)
sKelement_type      0x4               /usr/lib/gcl-2.6.7/unixport//libansi_gcl.a(main.o)
sKdevice            0x4               /usr/lib/gcl-2.6.7/unixport//libansi_gcl.a(main.o)
sLpathname          0x4               /usr/lib/gcl-2.6.7/unixport//libansi_gcl.a(main.o)
sLcar               0x4               /usr/lib/gcl-2.6.7/unixport//libansi_gcl.a(main.o)
gentemp_counter     0x4               /usr/lib/gcl-2.6.7/unixport//libansi_gcl.a(main.o)
sLunbound_slot      0x4               /usr/lib/gcl-2.6.7/unixport//libansi_gcl.a(main.o)
sLinteger           0x4               /usr/lib/gcl-2.6.7/unixport//libansi_gcl.a(main.o)
delimiting_char     0x4               /usr/lib/gcl-2.6.7/unixport//libansi_gcl.a(main.o)
gmp_jmp             0x9c              /usr/lib/gcl-2.6.7/unixport//libansi_gcl.a(gmp_wrappers.o)
Vapplyhook          0x4               /usr/lib/gcl-2.6.7/unixport//libansi_gcl.a(main.o)
sLserious_condition
                    0x4               /usr/lib/gcl-2.6.7/unixport//libansi_gcl.a(main.o)
sLkeyword           0x4               /usr/lib/gcl-2.6.7/unixport//libansi_gcl.a(main.o)
sLstream            0x4               /usr/lib/gcl-2.6.7/unixport//libansi_gcl.a(main.o)
sSYB                0x4               /usr/lib/gcl-2.6.7/unixport//libansi_gcl.a(main.o)
sLbit_vector        0x4               /usr/lib/gcl-2.6.7/unixport//libansi_gcl.a(main.o)
sgc_type_map        0x20000           /usr/lib/gcl-2.6.7/unixport//libansi_gcl.a(main.o)
Cnil_body           0x34              /usr/lib/gcl-2.6.7/unixport//libansi_gcl.a(main.o)
sLsigned_byte       0x4               /usr/lib/gcl-2.6.7/unixport//libansi_gcl.a(main.o)
sKbase              0x4               /usr/lib/gcl-2.6.7/unixport//libansi_gcl.a(main.o)
sKrehash_size       0x4               /usr/lib/gcl-2.6.7/unixport//libansi_gcl.a(hash.o)
stdout_buf          0x2008            /usr/lib/gcl-2.6.7/unixport//libansi_gcl.a(main.o)
backq_level         0x4               /usr/lib/gcl-2.6.7/unixport//libansi_gcl.a(main.o)
sSvariable_documentation
                    0x4               /usr/lib/gcl-2.6.7/unixport//libansi_gcl.a(main.o)
cs_org              0x4               /usr/lib/gcl-2.6.7/unixport//libansi_gcl.a(main.o)
sSfunction_documentation
                    0x4               /usr/lib/gcl-2.6.7/unixport//libansi_gcl.a(main.o)
mark_table          0x4               /usr/lib/gcl-2.6.7/unixport//libansi_gcl.a(gbc.o)
write_ch_fun        0x4               /usr/lib/gcl-2.6.7/unixport//libansi_gcl.a(main.o)
PRINTpretty         0x4               /usr/lib/gcl-2.6.7/unixport//libansi_gcl.a(main.o)
PRINTcase           0x4               /usr/lib/gcl-2.6.7/unixport//libansi_gcl.a(main.o)
sLAprint_baseA      0x4               /usr/lib/gcl-2.6.7/unixport//libansi_gcl.a(main.o)
sLvector            0x4               /usr/lib/gcl-2.6.7/unixport//libansi_gcl.a(main.o)
Vdefault_pathname_defaults
                    0x4               /usr/lib/gcl-2.6.7/unixport//libansi_gcl.a(main.o)
tmp_alloc           0x4               /usr/lib/gcl-2.6.7/unixport//libansi_gcl.a(main.o)
sLAstandard_outputA
                    0x4               /usr/lib/gcl-2.6.7/unixport//libansi_gcl.a(main.o)
READbase            0x4               /usr/lib/gcl-2.6.7/unixport//libansi_gcl.a(main.o)
sLAprint_readablyA  0x4               /usr/lib/gcl-2.6.7/unixport//libansi_gcl.a(main.o)
sLplusp             0x4               /usr/lib/gcl-2.6.7/unixport//libansi_gcl.a(main.o)
signals_allowed     0x4               /usr/lib/gcl-2.6.7/unixport//libansi_gcl.a(main.o)
sKtype              0x4               /usr/lib/gcl-2.6.7/unixport//libansi_gcl.a(main.o)
gclModulus          0x4               /usr/lib/gcl-2.6.7/unixport//libansi_gcl.a(earith.o)
sKarray             0x4               /usr/lib/gcl-2.6.7/unixport//libansi_gcl.a(main.o)
sLcontrol_error     0x4               /usr/lib/gcl-2.6.7/unixport//libansi_gcl.a(main.o)
sLerror             0x4               /usr/lib/gcl-2.6.7/unixport//libansi_gcl.a(main.o)
sKrename            0x4               /usr/lib/gcl-2.6.7/unixport//libansi_gcl.a(main.o)
jmp_gmp             0x4               /usr/lib/gcl-2.6.7/unixport//libansi_gcl.a(gmp_wrappers.o)
what_to_collect     0x4               /usr/lib/gcl-2.6.7/unixport//libansi_gcl.a(fat_string.o)
sLsynonym_stream    0x4               /usr/lib/gcl-2.6.7/unixport//libansi_gcl.a(main.o)
tok_leng            0x4               /usr/lib/gcl-2.6.7/unixport//libansi_gcl.a(usig2.o)
interrupt_flag      0x4               /usr/lib/gcl-2.6.7/unixport//libansi_gcl.a(main.o)
tf                  0x4               /usr/lib/gcl-2.6.7/unixport//libansi_gcl.a(main.o)
sLfunction          0x4               /usr/lib/gcl-2.6.7/unixport//libansi_gcl.a(main.o)
sKpretty            0x4               /usr/lib/gcl-2.6.7/unixport//libansi_gcl.a(main.o)
sLsvref             0x4               /usr/lib/gcl-2.6.7/unixport//libansi_gcl.a(main.o)
sLrandom_state      0x4               /usr/lib/gcl-2.6.7/unixport//libansi_gcl.a(main.o)
sLdeclare           0x4               /usr/lib/gcl-2.6.7/unixport//libansi_gcl.a(main.o)
standard_io         0x4               /usr/lib/gcl-2.6.7/unixport//libansi_gcl.a(main.o)
terminal_io         0x4               /usr/lib/gcl-2.6.7/unixport//libansi_gcl.a(main.o)
small_fixnum_table  0x1a000           /usr/lib/gcl-2.6.7/unixport//libansi_gcl.a(main.o)
sLor                0x4               /usr/lib/gcl-2.6.7/unixport//libansi_gcl.a(main.o)
longfloat_zero      0x4               /usr/lib/gcl-2.6.7/unixport//libansi_gcl.a(main.o)
sKinvalid_variable  0x4               /usr/lib/gcl-2.6.7/unixport//libansi_gcl.a(main.o)
sLtag               0x4               /usr/lib/gcl-2.6.7/unixport//libansi_gcl.a(main.o)
sLprint_not_readable
                    0x4               /usr/lib/gcl-2.6.7/unixport//libansi_gcl.a(main.o)
sKstream            0x4               /usr/lib/gcl-2.6.7/unixport//libansi_gcl.a(main.o)
TSor_string_symbol  0x4               /usr/lib/gcl-2.6.7/unixport//libansi_gcl.a(main.o)
fmt_paramp          0x4               /usr/lib/gcl-2.6.7/unixport//libansi_gcl.a(format.o)
sKinput             0x4               /usr/lib/gcl-2.6.7/unixport//libansi_gcl.a(main.o)
sLsigned_short      0x4               /usr/lib/gcl-2.6.7/unixport//libansi_gcl.a(main.o)
sLstructure         0x4               /usr/lib/gcl-2.6.7/unixport//libansi_gcl.a(main.o)
sSYZ                0x4               /usr/lib/gcl-2.6.7/unixport//libansi_gcl.a(main.o)
sKload_toplevel     0x4               /usr/lib/gcl-2.6.7/unixport//libansi_gcl.a(main.o)
Vevalhook           0x4               /usr/lib/gcl-2.6.7/unixport//libansi_gcl.a(main.o)
sLtype_error        0x4               /usr/lib/gcl-2.6.7/unixport//libansi_gcl.a(main.o)
PRINTstructure      0x4               /usr/lib/gcl-2.6.7/unixport//libansi_gcl.a(main.o)
sLbuilt_in_class    0x4               /usr/lib/gcl-2.6.7/unixport//libansi_gcl.a(main.o)
nlj_fr              0x4               /usr/lib/gcl-2.6.7/unixport//libansi_gcl.a(main.o)
bigger_fixnums      0x8               /usr/lib/gcl-2.6.7/unixport//libansi_gcl.a(number.o)
STrubout            0x4               /usr/lib/gcl-2.6.7/unixport//libansi_gcl.a(main.o)
bill                0x8               /usr/lib/gcl-2.6.7/unixport//libansi_gcl.a(nfunlink.o)
sLfile_error        0x4               /usr/lib/gcl-2.6.7/unixport//libansi_gcl.a(main.o)
fmt_string          0x4               /usr/lib/gcl-2.6.7/unixport//libansi_gcl.a(main.o)
sKmyaddr            0x4               /usr/lib/gcl-2.6.7/unixport//libansi_gcl.a(main.o)
vs_base             0x4               /usr/lib/gcl-2.6.7/unixport//libansi_gcl.a(main.o)
big_gcprotect       0x4               /usr/lib/gcl-2.6.7/unixport//libansi_gcl.a(big.o)
READdefault_float_format
                    0x4               /usr/lib/gcl-2.6.7/unixport//libansi_gcl.a(main.o)
sLend_of_file       0x4               /usr/lib/gcl-2.6.7/unixport//libansi_gcl.a(main.o)
shortfloat_zero     0x4               /usr/lib/gcl-2.6.7/unixport//libansi_gcl.a(main.o)
sLlambda_closure    0x4               /usr/lib/gcl-2.6.7/unixport//libansi_gcl.a(main.o)
sSAdefault_time_zoneA
                    0x4               /usr/lib/gcl-2.6.7/unixport//libansi_gcl.a(main.o)
sSAload_with_freadA
                    0x4               /usr/lib/gcl-2.6.7/unixport//libansi_gcl.a(main.o)
ihs_stack           0x8c00            /usr/lib/gcl-2.6.7/unixport//libansi_gcl.a(main.o)
sLprogram_error     0x4               /usr/lib/gcl-2.6.7/unixport//libansi_gcl.a(main.o)
sLcondition         0x4               /usr/lib/gcl-2.6.7/unixport//libansi_gcl.a(main.o)
sKtest_not          0x4               /usr/lib/gcl-2.6.7/unixport//libansi_gcl.a(main.o)
sKdirectory         0x4               /usr/lib/gcl-2.6.7/unixport//libansi_gcl.a(main.o)
sKunbound_variable  0x4               /usr/lib/gcl-2.6.7/unixport//libansi_gcl.a(main.o)
sLeq                0x4               /usr/lib/gcl-2.6.7/unixport//libansi_gcl.a(hash.o)
sLlogical_pathname  0x4               /usr/lib/gcl-2.6.7/unixport//libansi_gcl.a(main.o)
sSchar_size         0x4               /usr/lib/gcl-2.6.7/unixport//libansi_gcl.a(main.o)
sSAsystem_directoryA
                    0x4               /usr/lib/gcl-2.6.7/unixport//libansi_gcl.a(main.o)
sKnewest            0x4               /usr/lib/gcl-2.6.7/unixport//libansi_gcl.a(main.o)
STbackspace         0x4               /usr/lib/gcl-2.6.7/unixport//libansi_gcl.a(main.o)
sLblock             0x4               /usr/lib/gcl-2.6.7/unixport//libansi_gcl.a(main.o)
sLAload_verboseA    0x4               /usr/lib/gcl-2.6.7/unixport//libansi_gcl.a(main.o)
sLreadtable         0x4               /usr/lib/gcl-2.6.7/unixport//libansi_gcl.a(main.o)
sLget               0x4               /usr/lib/gcl-2.6.7/unixport//libansi_gcl.a(main.o)
fmt_index           0x4               /usr/lib/gcl-2.6.7/unixport//libansi_gcl.a(main.o)
sKcatch             0x4               /usr/lib/gcl-2.6.7/unixport//libansi_gcl.a(main.o)
sKfile              0x4               /usr/lib/gcl-2.6.7/unixport//libansi_gcl.a(main.o)
sLsimple_array      0x4               /usr/lib/gcl-2.6.7/unixport//libansi_gcl.a(main.o)
sKrename_and_delete
                    0x4               /usr/lib/gcl-2.6.7/unixport//libansi_gcl.a(main.o)
Vverbose            0x4               /usr/lib/gcl-2.6.7/unixport//libansi_gcl.a(file.o)
sKasync             0x4               /usr/lib/gcl-2.6.7/unixport//libansi_gcl.a(main.o)
sLsequence          0x4               /usr/lib/gcl-2.6.7/unixport//libansi_gcl.a(main.o)
sLstandard_class    0x4               /usr/lib/gcl-2.6.7/unixport//libansi_gcl.a(main.o)
sLsimple_base_string
                    0x4               /usr/lib/gcl-2.6.7/unixport//libansi_gcl.a(main.o)
sLarray_total_size_limit
                    0x4               /usr/lib/gcl-2.6.7/unixport//libansi_gcl.a(main.o)
travel_push_type    0x20              /usr/lib/gcl-2.6.7/unixport//libansi_gcl.a(print.o)
printStructBufp     0x4               /usr/lib/gcl-2.6.7/unixport//libansi_gcl.a(main.o)
sKrev               0x4               /usr/lib/gcl-2.6.7/unixport//libansi_gcl.a(main.o)
sSAmatch_dataA      0x4               /usr/lib/gcl-2.6.7/unixport//libansi_gcl.a(main.o)
value_stack         0x80800           /usr/lib/gcl-2.6.7/unixport//libansi_gcl.a(main.o)
vs_marker           0x4               /usr/lib/gcl-2.6.7/unixport//libansi_gcl.a(main.o)
sharp_eq_context_max
                    0x4               /usr/lib/gcl-2.6.7/unixport//libansi_gcl.a(main.o)
frs_limit           0x4               /usr/lib/gcl-2.6.7/unixport//libansi_gcl.a(main.o)
sLmember            0x4               /usr/lib/gcl-2.6.7/unixport//libansi_gcl.a(main.o)
sLcons              0x4               /usr/lib/gcl-2.6.7/unixport//libansi_gcl.a(main.o)
sLAread_default_float_formatA
                    0x4               /usr/lib/gcl-2.6.7/unixport//libansi_gcl.a(main.o)
FASL_string         0x4               /usr/lib/gcl-2.6.7/unixport//libansi_gcl.a(main.o)
sKstart2            0x4               /usr/lib/gcl-2.6.7/unixport//libansi_gcl.a(string.o)
ARGC                0x4               /usr/lib/gcl-2.6.7/unixport//libansi_gcl.a(main.o)
sLsimple_warning    0x4               /usr/lib/gcl-2.6.7/unixport//libansi_gcl.a(main.o)
sSshort_size        0x4               /usr/lib/gcl-2.6.7/unixport//libansi_gcl.a(main.o)
fmt_base            0x4               /usr/lib/gcl-2.6.7/unixport//libansi_gcl.a(main.o)
sLstructure_class   0x4               /usr/lib/gcl-2.6.7/unixport//libansi_gcl.a(main.o)
sLload              0x4               /usr/lib/gcl-2.6.7/unixport//libansi_gcl.a(main.o)
PRINTstream         0x4               /usr/lib/gcl-2.6.7/unixport//libansi_gcl.a(main.o)
STnewline           0x4               /usr/lib/gcl-2.6.7/unixport//libansi_gcl.a(main.o)
fmt_temporary_stream
                    0x4               /usr/lib/gcl-2.6.7/unixport//libansi_gcl.a(format.o)
sKprotect           0x4               /usr/lib/gcl-2.6.7/unixport//libansi_gcl.a(main.o)
sSAlisp_maxpagesA   0x4               /usr/lib/gcl-2.6.7/unixport//libansi_gcl.a(main.o)
sKgensym            0x4               /usr/lib/gcl-2.6.7/unixport//libansi_gcl.a(main.o)
sKif_does_not_exist
                    0x4               /usr/lib/gcl-2.6.7/unixport//libansi_gcl.a(main.o)
sLAprint_escapeA    0x4               /usr/lib/gcl-2.6.7/unixport//libansi_gcl.a(main.o)
LSP_string          0x4               /usr/lib/gcl-2.6.7/unixport//libansi_gcl.a(file.o)
bds_limit           0x4               /usr/lib/gcl-2.6.7/unixport//libansi_gcl.a(main.o)
siSsharp_comma      0x4               /usr/lib/gcl-2.6.7/unixport//libansi_gcl.a(main.o)
old_cb_pointer      0x4               /usr/lib/gcl-2.6.7/unixport//libansi_gcl.a(main.o)
mark_origin         0x4b0             /usr/lib/gcl-2.6.7/unixport//libansi_gcl.a(gbc.o)
debug               0x4               /usr/lib/gcl-2.6.7/unixport//libansi_gcl.a(main.o)
sharing_table       0x4               /usr/lib/gcl-2.6.7/unixport//libansi_gcl.a(main.o)
sLAprint_lengthA    0x4               /usr/lib/gcl-2.6.7/unixport//libansi_gcl.a(main.o)
ENVP                0x4               /usr/lib/gcl-2.6.7/unixport//libansi_gcl.a(main.o)
sLfloating_point_invalid_operation
                    0x4               /usr/lib/gcl-2.6.7/unixport//libansi_gcl.a(main.o)
malloc_list         0x4               /usr/lib/gcl-2.6.7/unixport//libansi_gcl.a(alloc.o)
sLcell_error        0x4               /usr/lib/gcl-2.6.7/unixport//libansi_gcl.a(main.o)
sKupcase            0x4               /usr/lib/gcl-2.6.7/unixport//libansi_gcl.a(main.o)
sSAprint_nansA      0x4               /usr/lib/gcl-2.6.7/unixport//libansi_gcl.a(main.o)
sLunbound_variable  0x4               /usr/lib/gcl-2.6.7/unixport//libansi_gcl.a(main.o)
ncb                 0x4               /usr/lib/gcl-2.6.7/unixport//libansi_gcl.a(main.o)
sLchar              0x4               /usr/lib/gcl-2.6.7/unixport//libansi_gcl.a(main.o)
dot_flag            0x4               /usr/lib/gcl-2.6.7/unixport//libansi_gcl.a(main.o)
sLcdr               0x4               /usr/lib/gcl-2.6.7/unixport//libansi_gcl.a(main.o)
signals_pending     0x4               /usr/lib/gcl-2.6.7/unixport//libansi_gcl.a(main.o)
sLlambda            0x4               /usr/lib/gcl-2.6.7/unixport//libansi_gcl.a(main.o)
rb_start1           0x4               /usr/lib/gcl-2.6.7/unixport//libansi_gcl.a(main.o)
sSAcommand_argsA    0x4               /usr/lib/gcl-2.6.7/unixport//libansi_gcl.a(main.o)
sLratio             0x4               /usr/lib/gcl-2.6.7/unixport//libansi_gcl.a(main.o)
sLAprint_prettyA    0x4               /usr/lib/gcl-2.6.7/unixport//libansi_gcl.a(main.o)
sLAprint_radixA     0x4               /usr/lib/gcl-2.6.7/unixport//libansi_gcl.a(main.o)
sLincf              0x4               /usr/lib/gcl-2.6.7/unixport//libansi_gcl.a(main.o)
sLsimple_condition  0x4               /usr/lib/gcl-2.6.7/unixport//libansi_gcl.a(main.o)
fcall               0xdc              /usr/lib/gcl-2.6.7/unixport//libansi_gcl.a(main.o)
PRINTcircle         0x4               /usr/lib/gcl-2.6.7/unixport//libansi_gcl.a(main.o)
sKinvalid_form      0x4               /usr/lib/gcl-2.6.7/unixport//libansi_gcl.a(main.o)
detect_eos_flag     0x4               /usr/lib/gcl-2.6.7/unixport//libansi_gcl.a(main.o)
sKdefaults          0x4               /usr/lib/gcl-2.6.7/unixport//libansi_gcl.a(main.o)
sLdivision_by_zero  0x4               /usr/lib/gcl-2.6.7/unixport//libansi_gcl.a(main.o)
IfaslInStream       0x4               /usr/lib/gcl-2.6.7/unixport//libansi_gcl.a(fat_string.o)
sLrational          0x4               /usr/lib/gcl-2.6.7/unixport//libansi_gcl.a(main.o)
kf                  0x4               /usr/lib/gcl-2.6.7/unixport//libansi_gcl.a(main.o)
sLpackage_error     0x4               /usr/lib/gcl-2.6.7/unixport//libansi_gcl.a(main.o)
sSclear_compiler_properties
                    0x4               /usr/lib/gcl-2.6.7/unixport//libansi_gcl.a(main.o)
PRINTarray          0x4               /usr/lib/gcl-2.6.7/unixport//libansi_gcl.a(main.o)
sKundefined_function
                    0x4               /usr/lib/gcl-2.6.7/unixport//libansi_gcl.a(main.o)
TSor_rational_float
                    0x4               /usr/lib/gcl-2.6.7/unixport//libansi_gcl.a(main.o)
STpage              0x4               /usr/lib/gcl-2.6.7/unixport//libansi_gcl.a(main.o)
sSsigusr1_interrupt
                    0x4               /usr/lib/gcl-2.6.7/unixport//libansi_gcl.a(main.o)
PRINTpackage        0x4               /usr/lib/gcl-2.6.7/unixport//libansi_gcl.a(main.o)
gensym_prefix       0x4               /usr/lib/gcl-2.6.7/unixport//libansi_gcl.a(main.o)
sKinvalid_function  0x4               /usr/lib/gcl-2.6.7/unixport//libansi_gcl.a(main.o)
big_fixnum2         0x4               /usr/lib/gcl-2.6.7/unixport//libansi_gcl.a(main.o)
siSuniversal_error_handler
                    0x4               /usr/lib/gcl-2.6.7/unixport//libansi_gcl.a(error.o)
sSdefmacroA         0x4               /usr/lib/gcl-2.6.7/unixport//libansi_gcl.a(main.o)
mark_origin_block_max
                    0x4               /usr/lib/gcl-2.6.7/unixport//libansi_gcl.a(gbc.o)
big_fixnum2_body    0x10              /usr/lib/gcl-2.6.7/unixport//libansi_gcl.a(main.o)
combined_table      0xc               /usr/lib/gcl-2.6.7/unixport//libansi_gcl.a(sfasl.o)
sKexternal          0x4               /usr/lib/gcl-2.6.7/unixport//libansi_gcl.a(main.o)
sLlambda_block      0x4               /usr/lib/gcl-2.6.7/unixport//libansi_gcl.a(main.o)
sLunsigned_byte     0x4               /usr/lib/gcl-2.6.7/unixport//libansi_gcl.a(main.o)
ANDrest             0x4               /usr/lib/gcl-2.6.7/unixport//libansi_gcl.a(main.o)
sSAgbc_messageA     0x4               /usr/lib/gcl-2.6.7/unixport//libansi_gcl.a(main.o)
sKuse               0x4               /usr/lib/gcl-2.6.7/unixport//libansi_gcl.a(main.o)
sLarithmetic_error  0x4               /usr/lib/gcl-2.6.7/unixport//libansi_gcl.a(main.o)
sKkey               0x4               /usr/lib/gcl-2.6.7/unixport//libansi_gcl.a(main.o)
uninterned_list     0x4               /usr/lib/gcl-2.6.7/unixport//libansi_gcl.a(main.o)
cssize              0x4               /usr/lib/gcl-2.6.7/unixport//libansi_gcl.a(main.o)
gc_enabled          0x4               /usr/lib/gcl-2.6.7/unixport//libansi_gcl.a(main.o)
saving_system       0x4               /usr/lib/gcl-2.6.7/unixport//libansi_gcl.a(main.o)
GBC_enable          0x4               /usr/lib/gcl-2.6.7/unixport//libansi_gcl.a(main.o)
sLparse_error       0x4               /usr/lib/gcl-2.6.7/unixport//libansi_gcl.a(main.o)
token               0x4               /usr/lib/gcl-2.6.7/unixport//libansi_gcl.a(main.o)
type_map            0x20000           /usr/lib/gcl-2.6.7/unixport//libansi_gcl.a(main.o)
sLAread_suppressA   0x4               /usr/lib/gcl-2.6.7/unixport//libansi_gcl.a(main.o)
sLstring_stream     0x4               /usr/lib/gcl-2.6.7/unixport//libansi_gcl.a(main.o)
sLAprint_gensymA    0x4               /usr/lib/gcl-2.6.7/unixport//libansi_gcl.a(main.o)
sLreader_error      0x4               /usr/lib/gcl-2.6.7/unixport//libansi_gcl.a(main.o)
dispatch_reader     0x4               /usr/lib/gcl-2.6.7/unixport//libansi_gcl.a(read.o)
sKerror             0x4               /usr/lib/gcl-2.6.7/unixport//libansi_gcl.a(main.o)
sSAafter_gbc_hookA  0x4               /usr/lib/gcl-2.6.7/unixport//libansi_gcl.a(main.o)
sKdaemon            0x4               /usr/lib/gcl-2.6.7/unixport//libansi_gcl.a(main.o)
sLecho_stream       0x4               /usr/lib/gcl-2.6.7/unixport//libansi_gcl.a(main.o)
sLeql               0x4               /usr/lib/gcl-2.6.7/unixport//libansi_gcl.a(hash.o)
sLstructure_object  0x4               /usr/lib/gcl-2.6.7/unixport//libansi_gcl.a(main.o)
sKescape            0x4               /usr/lib/gcl-2.6.7/unixport//libansi_gcl.a(main.o)
ANDkey              0x4               /usr/lib/gcl-2.6.7/unixport//libansi_gcl.a(main.o)
STreturn            0x4               /usr/lib/gcl-2.6.7/unixport//libansi_gcl.a(main.o)
fmt_param           0x320             /usr/lib/gcl-2.6.7/unixport//libansi_gcl.a(format.o)
key_function        0x4               /usr/lib/gcl-2.6.7/unixport//libansi_gcl.a(main.o)
intern_flag         0x4               /usr/lib/gcl-2.6.7/unixport//libansi_gcl.a(main.o)
TSor_symbol_string  0x4               /usr/lib/gcl-2.6.7/unixport//libansi_gcl.a(main.o)
sLmod               0x4               /usr/lib/gcl-2.6.7/unixport//libansi_gcl.a(main.o)
ARGV                0x4               /usr/lib/gcl-2.6.7/unixport//libansi_gcl.a(main.o)
sSAindent_formatted_outputA
                    0x4               /usr/lib/gcl-2.6.7/unixport//libansi_gcl.a(main.o)
our_signal_handler  0x80              /usr/lib/gcl-2.6.7/unixport//libansi_gcl.a(usig2.o)
lisp_package        0x4               /usr/lib/gcl-2.6.7/unixport//libansi_gcl.a(main.o)
sKhost              0x4               /usr/lib/gcl-2.6.7/unixport//libansi_gcl.a(main.o)
TSor_pathname_string_symbol
                    0x4               /usr/lib/gcl-2.6.7/unixport//libansi_gcl.a(main.o)
sLfuncall           0x4               /usr/lib/gcl-2.6.7/unixport//libansi_gcl.a(main.o)
preserving_whitespace_flag
                    0x4               /usr/lib/gcl-2.6.7/unixport//libansi_gcl.a(main.o)
sScdefn             0x4               /usr/lib/gcl-2.6.7/unixport//libansi_gcl.a(main.o)
sLelt               0x4               /usr/lib/gcl-2.6.7/unixport//libansi_gcl.a(main.o)
rb_pointer          0x4               /usr/lib/gcl-2.6.7/unixport//libansi_gcl.a(main.o)
sLeval              0x4               /usr/lib/gcl-2.6.7/unixport//libansi_gcl.a(main.o)
sSAbreak_pointsA    0x4               /usr/lib/gcl-2.6.7/unixport//libansi_gcl.a(main.o)
ANDallow_other_keys
                    0x4               /usr/lib/gcl-2.6.7/unixport//libansi_gcl.a(main.o)
sKname              0x4               /usr/lib/gcl-2.6.7/unixport//libansi_gcl.a(main.o)
left_trim           0x4               /usr/lib/gcl-2.6.7/unixport//libansi_gcl.a(main.o)
sKlink              0x4               /usr/lib/gcl-2.6.7/unixport//libansi_gcl.a(main.o)
sSlambda_block_expanded
                    0x4               /usr/lib/gcl-2.6.7/unixport//libansi_gcl.a(main.o)
string_sign         0x4               /usr/lib/gcl-2.6.7/unixport//libansi_gcl.a(main.o)
in_list_flag        0x4               /usr/lib/gcl-2.6.7/unixport//libansi_gcl.a(main.o)
sStraced            0x4               /usr/lib/gcl-2.6.7/unixport//libansi_gcl.a(main.o)
common_lisp_package
                    0x4               /usr/lib/gcl-2.6.7/unixport//libansi_gcl.a(main.o)
sKsupersede         0x4               /usr/lib/gcl-2.6.7/unixport//libansi_gcl.a(main.o)
sLAdebug_ioA        0x4               /usr/lib/gcl-2.6.7/unixport//libansi_gcl.a(main.o)
sKparent            0x4               /usr/lib/gcl-2.6.7/unixport//libansi_gcl.a(main.o)
sSPinit             0x4               /usr/lib/gcl-2.6.7/unixport//libansi_gcl.a(main.o)
vs_top              0x4               /usr/lib/gcl-2.6.7/unixport//libansi_gcl.a(main.o)
bds_org             0x4               /usr/lib/gcl-2.6.7/unixport//libansi_gcl.a(main.o)
sKtest              0x4               /usr/lib/gcl-2.6.7/unixport//libansi_gcl.a(main.o)
CMPtemp3            0x4               /usr/lib/gcl-2.6.7/unixport//libansi_gcl.a(main.o)
sLAterminal_ioA     0x4               /usr/lib/gcl-2.6.7/unixport//libansi_gcl.a(main.o)
sLstream_error      0x4               /usr/lib/gcl-2.6.7/unixport//libansi_gcl.a(main.o)
sharp_eq_context    0x1770            /usr/lib/gcl-2.6.7/unixport//libansi_gcl.a(read.o)
sKend               0x4               /usr/lib/gcl-2.6.7/unixport//libansi_gcl.a(main.o)
fmt_indents         0x4               /usr/lib/gcl-2.6.7/unixport//libansi_gcl.a(main.o)
siSpname            0x4               /usr/lib/gcl-2.6.7/unixport//libansi_gcl.a(symbol.o)
this_lisp           0x4               /usr/lib/gcl-2.6.7/unixport//libansi_gcl.a(main.o)
current_fasd        0x24              /usr/lib/gcl-2.6.7/unixport//libansi_gcl.a(fat_string.o)
sLAmacroexpand_hookA
                    0x4               /usr/lib/gcl-2.6.7/unixport//libansi_gcl.a(main.o)
old_rb_start        0x4               /usr/lib/gcl-2.6.7/unixport//libansi_gcl.a(gbc.o)
sLcomplex           0x4               /usr/lib/gcl-2.6.7/unixport//libansi_gcl.a(main.o)
sLAerror_outputA    0x4               /usr/lib/gcl-2.6.7/unixport//libansi_gcl.a(main.o)
big_register_0      0x4               /usr/lib/gcl-2.6.7/unixport//libansi_gcl.a(main.o)
sLdecf              0x4               /usr/lib/gcl-2.6.7/unixport//libansi_gcl.a(main.o)
sSAnotify_optimize_maximum_pagesA
                    0x4               /usr/lib/gcl-2.6.7/unixport//libansi_gcl.a(main.o)
c_table             0xc               /usr/lib/gcl-2.6.7/unixport//libansi_gcl.a(sfasl.o)
sKnicknames         0x4               /usr/lib/gcl-2.6.7/unixport//libansi_gcl.a(main.o)
mark_origin_block   0xa0              /usr/lib/gcl-2.6.7/unixport//libansi_gcl.a(gbc.o)
sKpersistent        0x4               /usr/lib/gcl-2.6.7/unixport//libansi_gcl.a(main.o)
frame_stack         0xc0800           /usr/lib/gcl-2.6.7/unixport//libansi_gcl.a(main.o)
sLcharacter         0x4               /usr/lib/gcl-2.6.7/unixport//libansi_gcl.a(main.o)
gentemp_prefix      0x4               /usr/lib/gcl-2.6.7/unixport//libansi_gcl.a(main.o)
sLsigned_char       0x4               /usr/lib/gcl-2.6.7/unixport//libansi_gcl.a(main.o)
nlj_active          0x4               /usr/lib/gcl-2.6.7/unixport//libansi_gcl.a(main.o)
sKcatchall          0x4               /usr/lib/gcl-2.6.7/unixport//libansi_gcl.a(main.o)
sLpush              0x4               /usr/lib/gcl-2.6.7/unixport//libansi_gcl.a(main.o)
sLshort_float       0x4               /usr/lib/gcl-2.6.7/unixport//libansi_gcl.a(main.o)
ihs_org             0x4               /usr/lib/gcl-2.6.7/unixport//libansi_gcl.a(main.o)
sLundefined_function
                    0x4               /usr/lib/gcl-2.6.7/unixport//libansi_gcl.a(main.o)
sLAlink_arrayA      0x4               /usr/lib/gcl-2.6.7/unixport//libansi_gcl.a(main.o)
sLunsigned_short    0x4               /usr/lib/gcl-2.6.7/unixport//libansi_gcl.a(main.o)
sLstandard_method   0x4               /usr/lib/gcl-2.6.7/unixport//libansi_gcl.a(main.o)
sLlist              0x4               /usr/lib/gcl-2.6.7/unixport//libansi_gcl.a(main.o)
PRINTescape         0x4               /usr/lib/gcl-2.6.7/unixport//libansi_gcl.a(main.o)
sLstring_char       0x4               /usr/lib/gcl-2.6.7/unixport//libansi_gcl.a(main.o)
sKverbose           0x4               /usr/lib/gcl-2.6.7/unixport//libansi_gcl.a(main.o)
mark_origin_max     0x4               /usr/lib/gcl-2.6.7/unixport//libansi_gcl.a(gbc.o)
sLstandard_generic_function
                    0x4               /usr/lib/gcl-2.6.7/unixport//libansi_gcl.a(main.o)
sKcompile_toplevel  0x4               /usr/lib/gcl-2.6.7/unixport//libansi_gcl.a(main.o)
sLcompiled_function
                    0x4               /usr/lib/gcl-2.6.7/unixport//libansi_gcl.a(main.o)
casefun             0x4               /usr/lib/gcl-2.6.7/unixport//libansi_gcl.a(main.o)
sLfloating_point_underflow
                    0x4               /usr/lib/gcl-2.6.7/unixport//libansi_gcl.a(main.o)
sLmethod            0x4               /usr/lib/gcl-2.6.7/unixport//libansi_gcl.a(main.o)
sKtoo_many_arguments
                    0x4               /usr/lib/gcl-2.6.7/unixport//libansi_gcl.a(main.o)
sKradix             0x4               /usr/lib/gcl-2.6.7/unixport//libansi_gcl.a(main.o)
sKmyport            0x4               /usr/lib/gcl-2.6.7/unixport//libansi_gcl.a(main.o)
minus_half          0x4               /usr/lib/gcl-2.6.7/unixport//libansi_gcl.a(num_co.o)
STtab               0x4               /usr/lib/gcl-2.6.7/unixport//libansi_gcl.a(main.o)
sKserver            0x4               /usr/lib/gcl-2.6.7/unixport//libansi_gcl.a(main.o)
minus_imag_unit     0x4               /usr/lib/gcl-2.6.7/unixport//libansi_gcl.a(num_sfun.o)
sLfloat             0x4               /usr/lib/gcl-2.6.7/unixport//libansi_gcl.a(main.o)
heap_end            0x4               /usr/lib/gcl-2.6.7/unixport//libansi_gcl.a(main.o)
sLAquery_ioA        0x4               /usr/lib/gcl-2.6.7/unixport//libansi_gcl.a(main.o)
rb_limit            0x4               /usr/lib/gcl-2.6.7/unixport//libansi_gcl.a(main.o)
sKinitial_element   0x4               /usr/lib/gcl-2.6.7/unixport//libansi_gcl.a(string.o)
sLsingle_float      0x4               /usr/lib/gcl-2.6.7/unixport//libansi_gcl.a(main.o)
vs_org              0x4               /usr/lib/gcl-2.6.7/unixport//libansi_gcl.a(main.o)
sLbase_char         0x4               /usr/lib/gcl-2.6.7/unixport//libansi_gcl.a(main.o)
in_signal_handler   0x4               /usr/lib/gcl-2.6.7/unixport//libansi_gcl.a(main.o)
sSAprofile_arrayA   0x4               /usr/lib/gcl-2.6.7/unixport//libansi_gcl.a(main.o)
sLschar             0x4               /usr/lib/gcl-2.6.7/unixport//libansi_gcl.a(main.o)
fmt_temporary_string
                    0x4               /usr/lib/gcl-2.6.7/unixport//libansi_gcl.a(format.o)
sLstring            0x4               /usr/lib/gcl-2.6.7/unixport//libansi_gcl.a(main.o)
nlj_tag             0x4               /usr/lib/gcl-2.6.7/unixport//libansi_gcl.a(main.o)
sLotherwise         0x4               /usr/lib/gcl-2.6.7/unixport//libansi_gcl.a(conditional.o)
sLsymbol            0x4               /usr/lib/gcl-2.6.7/unixport//libansi_gcl.a(main.o)
sKcurrent           0x4               /usr/lib/gcl-2.6.7/unixport//libansi_gcl.a(main.o)
test_function       0x4               /usr/lib/gcl-2.6.7/unixport//libansi_gcl.a(main.o)
sLstorage_condition
                    0x4               /usr/lib/gcl-2.6.7/unixport//libansi_gcl.a(main.o)
sLlistA             0x4               /usr/lib/gcl-2.6.7/unixport//libansi_gcl.a(main.o)
sKend2              0x4               /usr/lib/gcl-2.6.7/unixport//libansi_gcl.a(string.o)
PRINTradix          0x4               /usr/lib/gcl-2.6.7/unixport//libansi_gcl.a(main.o)
sKsize              0x4               /usr/lib/gcl-2.6.7/unixport//libansi_gcl.a(hash.o)
ANDaux              0x4               /usr/lib/gcl-2.6.7/unixport//libansi_gcl.a(main.o)
sLapply             0x4               /usr/lib/gcl-2.6.7/unixport//libansi_gcl.a(main.o)
frs_top             0x4               /usr/lib/gcl-2.6.7/unixport//libansi_gcl.a(main.o)
bind_stack          0x4800            /usr/lib/gcl-2.6.7/unixport//libansi_gcl.a(main.o)
sKstart             0x4               /usr/lib/gcl-2.6.7/unixport//libansi_gcl.a(main.o)
sSsigio_interrupt   0x4               /usr/lib/gcl-2.6.7/unixport//libansi_gcl.a(main.o)
standard_readtable  0x4               /usr/lib/gcl-2.6.7/unixport//libansi_gcl.a(main.o)
big_fixnum1         0x4               /usr/lib/gcl-2.6.7/unixport//libansi_gcl.a(main.o)
sKinternal          0x4               /usr/lib/gcl-2.6.7/unixport//libansi_gcl.a(main.o)
sLfloating_point_overflow
                    0x4               /usr/lib/gcl-2.6.7/unixport//libansi_gcl.a(main.o)
string_boundary     0x4               /usr/lib/gcl-2.6.7/unixport//libansi_gcl.a(main.o)
sKcircle            0x4               /usr/lib/gcl-2.6.7/unixport//libansi_gcl.a(main.o)
sLstandard_char     0x4               /usr/lib/gcl-2.6.7/unixport//libansi_gcl.a(main.o)
sLpackage           0x4               /usr/lib/gcl-2.6.7/unixport//libansi_gcl.a(main.o)
sSuniversal_error_handler
                    0x4               /usr/lib/gcl-2.6.7/unixport//libansi_gcl.a(main.o)
sSs_data            0x4               /usr/lib/gcl-2.6.7/unixport//libansi_gcl.a(main.o)
PRINTlevel          0x4               /usr/lib/gcl-2.6.7/unixport//libansi_gcl.a(main.o)
sLfile_stream       0x4               /usr/lib/gcl-2.6.7/unixport//libansi_gcl.a(main.o)
sLconcatenated_stream
                    0x4               /usr/lib/gcl-2.6.7/unixport//libansi_gcl.a(main.o)
alloca_val          0x4               /usr/lib/gcl-2.6.7/unixport//libansi_gcl.a(main.o)
fmt_spare_spaces    0x4               /usr/lib/gcl-2.6.7/unixport//libansi_gcl.a(format.o)
fmt_nparam          0x4               /usr/lib/gcl-2.6.7/unixport//libansi_gcl.a(format.o)
sSAinhibit_macro_specialA
                    0x4               /usr/lib/gcl-2.6.7/unixport//libansi_gcl.a(main.o)
core_end            0x4               /usr/lib/gcl-2.6.7/unixport//libansi_gcl.a(main.o)
sKlevel             0x4               /usr/lib/gcl-2.6.7/unixport//libansi_gcl.a(main.o)
kcl_self            0x4               /usr/lib/gcl-2.6.7/unixport//libansi_gcl.a(main.o)
sSAignore_eof_on_terminal_ioA
                    0x4               /usr/lib/gcl-2.6.7/unixport//libansi_gcl.a(main.o)
sSAcollect_binary_modulesA
                    0x4               /usr/lib/gcl-2.6.7/unixport//libansi_gcl.a(main.o)
sLA                 0x4               /usr/lib/gcl-2.6.7/unixport//libansi_gcl.a(main.o)
ctl_origin          0x4               /usr/lib/gcl-2.6.7/unixport//libansi_gcl.a(main.o)
sKper               0x4               /usr/lib/gcl-2.6.7/unixport//libansi_gcl.a(main.o)
Dotnil_body         0x24              /usr/lib/gcl-2.6.7/unixport//libansi_gcl.a(main.o)
sLextended_char     0x4               /usr/lib/gcl-2.6.7/unixport//libansi_gcl.a(main.o)
TSor_symbol_string_package
                    0x4               /usr/lib/gcl-2.6.7/unixport//libansi_gcl.a(main.o)
sLAprint_arrayA     0x4               /usr/lib/gcl-2.6.7/unixport//libansi_gcl.a(main.o)
holepage            0x4               /usr/lib/gcl-2.6.7/unixport//libansi_gcl.a(main.o)
sSAload_pathnameA   0x4               /usr/lib/gcl-2.6.7/unixport//libansi_gcl.a(main.o)
sSAnotify_gbcA      0x4               /usr/lib/gcl-2.6.7/unixport//libansi_gcl.a(main.o)
sLstandard_object   0x4               /usr/lib/gcl-2.6.7/unixport//libansi_gcl.a(main.o)
sKprobe             0x4               /usr/lib/gcl-2.6.7/unixport//libansi_gcl.a(main.o)
Vrandom_state       0x4               /usr/lib/gcl-2.6.7/unixport//libansi_gcl.a(number.o)
sLand               0x4               /usr/lib/gcl-2.6.7/unixport//libansi_gcl.a(main.o)
sLarray_dimension_limit
                    0x4               /usr/lib/gcl-2.6.7/unixport//libansi_gcl.a(main.o)
default_dispatch_macro
                    0x4               /usr/lib/gcl-2.6.7/unixport//libansi_gcl.a(main.o)
sLbignum            0x4               /usr/lib/gcl-2.6.7/unixport//libansi_gcl.a(main.o)
rb_end              0x4               /usr/lib/gcl-2.6.7/unixport//libansi_gcl.a(main.o)
sKwild              0x4               /usr/lib/gcl-2.6.7/unixport//libansi_gcl.a(main.o)
sKallow_other_keys  0x4               /usr/lib/gcl-2.6.7/unixport//libansi_gcl.a(main.o)
sLgeneric_function  0x4               /usr/lib/gcl-2.6.7/unixport//libansi_gcl.a(main.o)
sLequal             0x4               /usr/lib/gcl-2.6.7/unixport//libansi_gcl.a(hash.o)
sLgethash           0x4               /usr/lib/gcl-2.6.7/unixport//libansi_gcl.a(main.o)
sKabort             0x4               /usr/lib/gcl-2.6.7/unixport//libansi_gcl.a(main.o)
sSterminal_interrupt
                    0x4               /usr/lib/gcl-2.6.7/unixport//libansi_gcl.a(main.o)
sSAallow_gzipped_fileA
                    0x4               /usr/lib/gcl-2.6.7/unixport//libansi_gcl.a(main.o)
three_nils          0xc               /usr/lib/gcl-2.6.7/unixport//libansi_gcl.a(eval.o)
sKprint             0x4               /usr/lib/gcl-2.6.7/unixport//libansi_gcl.a(main.o)
ctl_index           0x4               /usr/lib/gcl-2.6.7/unixport//libansi_gcl.a(main.o)
sLsimple_string     0x4               /usr/lib/gcl-2.6.7/unixport//libansi_gcl.a(main.o)
PRINTvs_limit       0x4               /usr/lib/gcl-2.6.7/unixport//libansi_gcl.a(main.o)
STlinefeed          0x4               /usr/lib/gcl-2.6.7/unixport//libansi_gcl.a(main.o)
sKif_exists         0x4               /usr/lib/gcl-2.6.7/unixport//libansi_gcl.a(main.o)
sKappend            0x4               /usr/lib/gcl-2.6.7/unixport//libansi_gcl.a(main.o)
sLstyle_warning     0x4               /usr/lib/gcl-2.6.7/unixport//libansi_gcl.a(main.o)
sLpop               0x4               /usr/lib/gcl-2.6.7/unixport//libansi_gcl.a(main.o)
pack_pointer        0x4               /usr/lib/gcl-2.6.7/unixport//libansi_gcl.a(main.o)
sKversion           0x4               /usr/lib/gcl-2.6.7/unixport//libansi_gcl.a(main.o)
CMPtemp2            0x4               /usr/lib/gcl-2.6.7/unixport//libansi_gcl.a(main.o)
sLcommon            0x4               /usr/lib/gcl-2.6.7/unixport//libansi_gcl.a(main.o)
system_package      0x4               /usr/lib/gcl-2.6.7/unixport//libansi_gcl.a(main.o)
sSpretty_print_format
                    0x4               /usr/lib/gcl-2.6.7/unixport//libansi_gcl.a(main.o)
sSAinterrupt_enableA
                    0x4               /usr/lib/gcl-2.6.7/unixport//libansi_gcl.a(main.o)
sLbroadcast_stream  0x4               /usr/lib/gcl-2.6.7/unixport//libansi_gcl.a(main.o)
sLApackageA         0x4               /usr/lib/gcl-2.6.7/unixport//libansi_gcl.a(main.o)
sLfixnum            0x4               /usr/lib/gcl-2.6.7/unixport//libansi_gcl.a(main.o)
sLAprint_levelA     0x4               /usr/lib/gcl-2.6.7/unixport//libansi_gcl.a(main.o)
sLgetf              0x4               /usr/lib/gcl-2.6.7/unixport//libansi_gcl.a(main.o)
ANDoptional         0x4               /usr/lib/gcl-2.6.7/unixport//libansi_gcl.a(main.o)
sSdebug             0x4               /usr/lib/gcl-2.6.7/unixport//libansi_gcl.a(main.o)
estack              0x8               /usr/lib/gcl-2.6.7/unixport//libansi_gcl.a(main.o)
sLaref              0x4               /usr/lib/gcl-2.6.7/unixport//libansi_gcl.a(main.o)
sLclass             0x4               /usr/lib/gcl-2.6.7/unixport//libansi_gcl.a(main.o)
sKexecute           0x4               /usr/lib/gcl-2.6.7/unixport//libansi_gcl.a(main.o)
sLAstandard_inputA  0x4               /usr/lib/gcl-2.6.7/unixport//libansi_gcl.a(main.o)
sLsimple_bit_vector
                    0x4               /usr/lib/gcl-2.6.7/unixport//libansi_gcl.a(main.o)
PRINTgensym         0x4               /usr/lib/gcl-2.6.7/unixport//libansi_gcl.a(main.o)
sKdefault           0x4               /usr/lib/gcl-2.6.7/unixport//libansi_gcl.a(main.o)
sSAprint_packageA   0x4               /usr/lib/gcl-2.6.7/unixport//libansi_gcl.a(main.o)
sSAprint_structureA
                    0x4               /usr/lib/gcl-2.6.7/unixport//libansi_gcl.a(main.o)
sLvalues            0x4               /usr/lib/gcl-2.6.7/unixport//libansi_gcl.a(main.o)
PRINTvs_top         0x4               /usr/lib/gcl-2.6.7/unixport//libansi_gcl.a(main.o)
sLsimple_vector     0x4               /usr/lib/gcl-2.6.7/unixport//libansi_gcl.a(main.o)
sKcreate            0x4               /usr/lib/gcl-2.6.7/unixport//libansi_gcl.a(main.o)
vs_limit            0x4               /usr/lib/gcl-2.6.7/unixport//libansi_gcl.a(main.o)
sSAbinary_modulesA  0x4               /usr/lib/gcl-2.6.7/unixport//libansi_gcl.a(main.o)
sLdouble_float      0x4               /usr/lib/gcl-2.6.7/unixport//libansi_gcl.a(main.o)
six_nils            0x18              /usr/lib/gcl-2.6.7/unixport//libansi_gcl.a(bind.o)
sKwrong_type_argument
                    0x4               /usr/lib/gcl-2.6.7/unixport//libansi_gcl.a(main.o)
siClisp_pagesize    0x4               /usr/lib/gcl-2.6.7/unixport//libansi_gcl.a(main.o)
sSY                 0x4               /usr/lib/gcl-2.6.7/unixport//libansi_gcl.a(main.o)
sLprogn             0x4               /usr/lib/gcl-2.6.7/unixport//libansi_gcl.a(main.o)
Vreadtable          0x4               /usr/lib/gcl-2.6.7/unixport//libansi_gcl.a(main.o)
imag_unit           0x4               /usr/lib/gcl-2.6.7/unixport//libansi_gcl.a(num_sfun.o)
frs_org             0x4               /usr/lib/gcl-2.6.7/unixport//libansi_gcl.a(main.o)
sLsetf              0x4               /usr/lib/gcl-2.6.7/unixport//libansi_gcl.a(main.o)
sLnconc             0x4               /usr/lib/gcl-2.6.7/unixport//libansi_gcl.a(main.o)
sSAreadline_prefixA
                    0x4               /usr/lib/gcl-2.6.7/unixport//libansi_gcl.a(main.o)
item_compared       0x4               /usr/lib/gcl-2.6.7/unixport//libansi_gcl.a(main.o)
sLsimple_type_error
                    0x4               /usr/lib/gcl-2.6.7/unixport//libansi_gcl.a(main.o)
sKinherited         0x4               /usr/lib/gcl-2.6.7/unixport//libansi_gcl.a(main.o)
sKjunk_allowed      0x4               /usr/lib/gcl-2.6.7/unixport//libansi_gcl.a(main.o)
sLmacro             0x4               /usr/lib/gcl-2.6.7/unixport//libansi_gcl.a(main.o)
sLgensym_counter    0x4               /usr/lib/gcl-2.6.7/unixport//libansi_gcl.a(main.o)
TSnon_negative_integer
                    0x4               /usr/lib/gcl-2.6.7/unixport//libansi_gcl.a(main.o)
sLlambda_block_closure
                    0x4               /usr/lib/gcl-2.6.7/unixport//libansi_gcl.a(main.o)
sSAno_initA         0x4               /usr/lib/gcl-2.6.7/unixport//libansi_gcl.a(main.o)
fmt_end             0x4               /usr/lib/gcl-2.6.7/unixport//libansi_gcl.a(main.o)
sLbase_string       0x4               /usr/lib/gcl-2.6.7/unixport//libansi_gcl.a(main.o)
Ct_body             0x34              /usr/lib/gcl-2.6.7/unixport//libansi_gcl.a(main.o)
sKnew_version       0x4               /usr/lib/gcl-2.6.7/unixport//libansi_gcl.a(main.o)
sLfloating_point_inexact
                    0x4               /usr/lib/gcl-2.6.7/unixport//libansi_gcl.a(main.o)
sLbit               0x4               /usr/lib/gcl-2.6.7/unixport//libansi_gcl.a(main.o)
sKdowncase          0x4               /usr/lib/gcl-2.6.7/unixport//libansi_gcl.a(main.o)
sLhash_table        0x4               /usr/lib/gcl-2.6.7/unixport//libansi_gcl.a(main.o)
car_or_cdr          0x4               /usr/lib/gcl-2.6.7/unixport//libansi_gcl.a(main.o)
maxpage             0x4               /usr/lib/gcl-2.6.7/unixport//libansi_gcl.a(fat_string.o)
sLsatisfies         0x4               /usr/lib/gcl-2.6.7/unixport//libansi_gcl.a(main.o)
sLnot               0x4               /usr/lib/gcl-2.6.7/unixport//libansi_gcl.a(main.o)
rb_pointer1         0x4               /usr/lib/gcl-2.6.7/unixport//libansi_gcl.a(main.o)
sKpackage_error     0x4               /usr/lib/gcl-2.6.7/unixport//libansi_gcl.a(main.o)
READsuppress        0x4               /usr/lib/gcl-2.6.7/unixport//libansi_gcl.a(main.o)
sLarray_rank_limit  0x4               /usr/lib/gcl-2.6.7/unixport//libansi_gcl.a(main.o)
sKcapitalize        0x4               /usr/lib/gcl-2.6.7/unixport//libansi_gcl.a(main.o)
sKroot              0x4               /usr/lib/gcl-2.6.7/unixport//libansi_gcl.a(main.o)
sLpositive_fixnum   0x4               /usr/lib/gcl-2.6.7/unixport//libansi_gcl.a(main.o)
sKrehash_threshold  0x4               /usr/lib/gcl-2.6.7/unixport//libansi_gcl.a(hash.o)
READtable           0x4               /usr/lib/gcl-2.6.7/unixport//libansi_gcl.a(main.o)
STspace             0x4               /usr/lib/gcl-2.6.7/unixport//libansi_gcl.a(main.o)
string_register     0x4               /usr/lib/gcl-2.6.7/unixport//libansi_gcl.a(main.o)
sLtypep             0x4               /usr/lib/gcl-2.6.7/unixport//libansi_gcl.a(main.o)
sKlength            0x4               /usr/lib/gcl-2.6.7/unixport//libansi_gcl.a(main.o)
fmt_line_length     0x4               /usr/lib/gcl-2.6.7/unixport//libansi_gcl.a(format.o)
sLwarning           0x4               /usr/lib/gcl-2.6.7/unixport//libansi_gcl.a(main.o)
PRINTlength         0x4               /usr/lib/gcl-2.6.7/unixport//libansi_gcl.a(main.o)

Discarded input sections

 .note.GNU-stack
                0x0000000000000000        0x0 /usr/lib/gcc/i486-linux-gnu/4.4.4/../../../../lib/crt1.o
 .gnu_debuglink
                0x0000000000000000        0xc /usr/lib/gcc/i486-linux-gnu/4.4.4/../../../../lib/crt1.o
 .note.GNU-stack
                0x0000000000000000        0x0 /usr/lib/gcc/i486-linux-gnu/4.4.4/../../../../lib/crti.o
 .gnu_debuglink
                0x0000000000000000        0xc /usr/lib/gcc/i486-linux-gnu/4.4.4/../../../../lib/crti.o
 .note.GNU-stack
                0x0000000000000000        0x0 /usr/lib/gcc/i486-linux-gnu/4.4.4/crtbegin.o
 .note.GNU-stack
                0x0000000000000000        0x0 ./user-init.o
 .note.GNU-stack
                0x0000000000000000        0x0 /usr/lib/gcl-2.6.7/unixport//libansi_gcl.a(main.o)
 .note.GNU-stack
                0x0000000000000000        0x0 /usr/lib/gcl-2.6.7/unixport//libansi_gcl.a(package.o)
 .note.GNU-stack
                0x0000000000000000        0x0 /usr/lib/gcl-2.6.7/unixport//libansi_gcl.a(gcl_readline.o)
 .note.GNU-stack
                0x0000000000000000        0x0 /usr/lib/gcl-2.6.7/unixport//libansi_gcl.a(symbol.o)
 .note.GNU-stack
                0x0000000000000000        0x0 /usr/lib/gcl-2.6.7/unixport//libansi_gcl.a(makefun.o)
 .note.GNU-stack
                0x0000000000000000        0x0 /usr/lib/gcl-2.6.7/unixport//libansi_gcl.a(string.o)
 .note.GNU-stack
                0x0000000000000000        0x0 /usr/lib/gcl-2.6.7/unixport//libansi_gcl.a(print.o)
 .note.GNU-stack
                0x0000000000000000        0x0 /usr/lib/gcl-2.6.7/unixport//libansi_gcl.a(macros.o)
 .note.GNU-stack
                0x0000000000000000        0x0 /usr/lib/gcl-2.6.7/unixport//libansi_gcl.a(multival.o)
 .note.GNU-stack
                0x0000000000000000        0x0 /usr/lib/gcl-2.6.7/unixport//libansi_gcl.a(file.o)
 .note.GNU-stack
                0x0000000000000000        0x0 /usr/lib/gcl-2.6.7/unixport//libansi_gcl.a(sys_ansi_gcl.o)
 .note.GNU-stack
                0x0000000000000000        0x0 /usr/lib/gcl-2.6.7/unixport//libansi_gcl.a(sfasl.o)
 .note.GNU-stack
                0x0000000000000000        0x0 /usr/lib/gcl-2.6.7/unixport//libansi_gcl.a(eval.o)
 .note.GNU-stack
                0x0000000000000000        0x0 /usr/lib/gcl-2.6.7/unixport//libansi_gcl.a(array.o)
 .note.GNU-stack
                0x0000000000000000        0x0 /usr/lib/gcl-2.6.7/unixport//libansi_gcl.a(lex.o)
 .note.GNU-stack
                0x0000000000000000        0x0 /usr/lib/gcl-2.6.7/unixport//libansi_gcl.a(earith.o)
 .note.GNU-stack
                0x0000000000000000        0x0 /usr/lib/gcl-2.6.7/unixport//libansi_gcl.a(toplevel.o)
 .note.GNU-stack
                0x0000000000000000        0x0 /usr/lib/gcl-2.6.7/unixport//libansi_gcl.a(nsocket.o)
 .note.GNU-stack
                0x0000000000000000        0x0 /usr/lib/gcl-2.6.7/unixport//libansi_gcl.a(list.o)
 .note.GNU-stack
                0x0000000000000000        0x0 /usr/lib/gcl-2.6.7/unixport//libansi_gcl.a(structure.o)
 .note.GNU-stack
                0x0000000000000000        0x0 /usr/lib/gcl-2.6.7/unixport//libansi_gcl.a(unixfsys.o)
 .note.GNU-stack
                0x0000000000000000        0x0 /usr/lib/gcl-2.6.7/unixport//libansi_gcl.a(unixsys.o)
 .note.GNU-stack
                0x0000000000000000        0x0 /usr/lib/gcl-2.6.7/unixport//libansi_gcl.a(predicate.o)
 .note.GNU-stack
                0x0000000000000000        0x0 /usr/lib/gcl-2.6.7/unixport//libansi_gcl.a(number.o)
 .note.GNU-stack
                0x0000000000000000        0x0 /usr/lib/gcl-2.6.7/unixport//libansi_gcl.a(cmpaux.o)
 .note.GNU-stack
                0x0000000000000000        0x0 /usr/lib/gcl-2.6.7/unixport//libansi_gcl.a(num_log.o)
 .note.GNU-stack
                0x0000000000000000        0x0 /usr/lib/gcl-2.6.7/unixport//libansi_gcl.a(sequence.o)
 .note.GNU-stack
                0x0000000000000000        0x0 /usr/lib/gcl-2.6.7/unixport//libansi_gcl.a(pathname.o)
 .note.GNU-stack
                0x0000000000000000        0x0 /usr/lib/gcl-2.6.7/unixport//libansi_gcl.a(unixsave.o)
 .note.GNU-stack
                0x0000000000000000        0x0 /usr/lib/gcl-2.6.7/unixport//libansi_gcl.a(num_co.o)
 .note.GNU-stack
                0x0000000000000000        0x0 /usr/lib/gcl-2.6.7/unixport//libansi_gcl.a(usig2.o)
 .note.GNU-stack
                0x0000000000000000        0x0 /usr/lib/gcl-2.6.7/unixport//libansi_gcl.a(num_pred.o)
 .note.GNU-stack
                0x0000000000000000        0x0 /usr/lib/gcl-2.6.7/unixport//libansi_gcl.a(let.o)
 .note.GNU-stack
                0x0000000000000000        0x0 /usr/lib/gcl-2.6.7/unixport//libansi_gcl.a(bind.o)
 .note.GNU-stack
                0x0000000000000000        0x0 /usr/lib/gcl-2.6.7/unixport//libansi_gcl.a(mapfun.o)
 .note.GNU-stack
                0x0000000000000000        0x0 /usr/lib/gcl-2.6.7/unixport//libansi_gcl.a(typespec.o)
 .note.GNU-stack
                0x0000000000000000        0x0 /usr/lib/gcl-2.6.7/unixport//libansi_gcl.a(funlink.o)
 .note.GNU-stack
                0x0000000000000000        0x0 /usr/lib/gcl-2.6.7/unixport//libansi_gcl.a(new_init.o)
 .note.GNU-stack
                0x0000000000000000        0x0 /usr/lib/gcl-2.6.7/unixport//libansi_gcl.a(utils.o)
 .note.GNU-stack
                0x0000000000000000        0x0 /usr/lib/gcl-2.6.7/unixport//libansi_gcl.a(read.o)
 .note.GNU-stack
                0x0000000000000000        0x0 /usr/lib/gcl-2.6.7/unixport//libansi_gcl.a(prog.o)
 .note.GNU-stack
                0x0000000000000000        0x0 /usr/lib/gcl-2.6.7/unixport//libansi_gcl.a(catch.o)
 .note.GNU-stack
                0x0000000000000000        0x0 /usr/lib/gcl-2.6.7/unixport//libansi_gcl.a(iteration.o)
 .note.GNU-stack
                0x0000000000000000        0x0 /usr/lib/gcl-2.6.7/unixport//libansi_gcl.a(error.o)
 .note.GNU-stack
                0x0000000000000000        0x0 /usr/lib/gcl-2.6.7/unixport//libansi_gcl.a(unixtime.o)
 .note.GNU-stack
                0x0000000000000000        0x0 /usr/lib/gcl-2.6.7/unixport//libansi_gcl.a(format.o)
 .note.GNU-stack
                0x0000000000000000        0x0 /usr/lib/gcl-2.6.7/unixport//libansi_gcl.a(big.o)
 .note.GNU-stack
                0x0000000000000000        0x0 /usr/lib/gcl-2.6.7/unixport//libansi_gcl.a(hash.o)
 .note.GNU-stack
                0x0000000000000000        0x0 /usr/lib/gcl-2.6.7/unixport//libansi_gcl.a(num_comp.o)
 .note.GNU-stack
                0x0000000000000000        0x0 /usr/lib/gcl-2.6.7/unixport//libansi_gcl.a(gmp_wrappers.o)
 .note.GNU-stack
                0x0000000000000000        0x0 /usr/lib/gcl-2.6.7/unixport//libansi_gcl.a(unixfasl.o)
 .note.GNU-stack
                0x0000000000000000        0x0 /usr/lib/gcl-2.6.7/unixport//libansi_gcl.a(reference.o)
 .note.GNU-stack
                0x0000000000000000        0x0 /usr/lib/gcl-2.6.7/unixport//libansi_gcl.a(fat_string.o)
 .note.GNU-stack
                0x0000000000000000        0x0 /usr/lib/gcl-2.6.7/unixport//libansi_gcl.a(character.o)
 .note.GNU-stack
                0x0000000000000000        0x0 /usr/lib/gcl-2.6.7/unixport//libansi_gcl.a(alloc.o)
 .note.GNU-stack
                0x0000000000000000        0x0 /usr/lib/gcl-2.6.7/unixport//libansi_gcl.a(regexpr.o)
 .note.GNU-stack
                0x0000000000000000        0x0 /usr/lib/gcl-2.6.7/unixport//libansi_gcl.a(usig.o)
 .note.GNU-stack
                0x0000000000000000        0x0 /usr/lib/gcl-2.6.7/unixport//libansi_gcl.a(gbc.o)
 .note.GNU-stack
                0x0000000000000000        0x0 /usr/lib/gcl-2.6.7/unixport//libansi_gcl.a(cfun.o)
 .note.GNU-stack
                0x0000000000000000        0x0 /usr/lib/gcl-2.6.7/unixport//libansi_gcl.a(nfunlink.o)
 .note.GNU-stack
                0x0000000000000000        0x0 /usr/lib/gcl-2.6.7/unixport//libansi_gcl.a(backq.o)
 .note.GNU-stack
                0x0000000000000000        0x0 /usr/lib/gcl-2.6.7/unixport//libansi_gcl.a(bds.o)
 .note.GNU-stack
                0x0000000000000000        0x0 /usr/lib/gcl-2.6.7/unixport//libansi_gcl.a(run_process.o)
 .note.GNU-stack
                0x0000000000000000        0x0 /usr/lib/gcl-2.6.7/unixport//libansi_gcl.a(assignment.o)
 .note.GNU-stack
                0x0000000000000000        0x0 /usr/lib/gcl-2.6.7/unixport//libansi_gcl.a(conditional.o)
 .note.GNU-stack
                0x0000000000000000        0x0 /usr/lib/gcl-2.6.7/unixport//libansi_gcl.a(block.o)
 .note.GNU-stack
                0x0000000000000000        0x0 /usr/lib/gcl-2.6.7/unixport//libansi_gcl.a(frame.o)
 .note.GNU-stack
                0x0000000000000000        0x0 /usr/lib/gcl-2.6.7/unixport//libansi_gcl.a(num_arith.o)
 .note.GNU-stack
                0x0000000000000000        0x0 /usr/lib/gcl-2.6.7/unixport//libansi_gcl.a(sockets.o)
 .note.GNU-stack
                0x0000000000000000        0x0 /usr/lib/gcl-2.6.7/unixport//libansi_gcl.a(gcl_numlib.o)
 .note.GNU-stack
                0x0000000000000000        0x0 /usr/lib/gcl-2.6.7/unixport//libansi_gcl.a(gcl_destructuring_bind.o)
 .note.GNU-stack
                0x0000000000000000        0x0 /usr/lib/gcl-2.6.7/unixport//libansi_gcl.a(gcl_listlib.o)
 .note.GNU-stack
                0x0000000000000000        0x0 /usr/lib/gcl-2.6.7/unixport//libansi_gcl.a(gcl_module.o)
 .note.GNU-stack
                0x0000000000000000        0x0 /usr/lib/gcl-2.6.7/unixport//libansi_gcl.a(gcl_top.o)
 .note.GNU-stack
                0x0000000000000000        0x0 /usr/lib/gcl-2.6.7/unixport//libansi_gcl.a(gcl_predlib.o)
 .note.GNU-stack
                0x0000000000000000        0x0 /usr/lib/gcl-2.6.7/unixport//libansi_gcl.a(gcl_iolib.o)
 .note.GNU-stack
                0x0000000000000000        0x0 /usr/lib/gcl-2.6.7/unixport//libansi_gcl.a(gcl_serror.o)
 .note.GNU-stack
                0x0000000000000000        0x0 /usr/lib/gcl-2.6.7/unixport//libansi_gcl.a(gcl_defstruct.o)
 .note.GNU-stack
                0x0000000000000000        0x0 /usr/lib/gcl-2.6.7/unixport//libansi_gcl.a(gcl_debug.o)
 .note.GNU-stack
                0x0000000000000000        0x0 /usr/lib/gcl-2.6.7/unixport//libansi_gcl.a(gcl_arraylib.o)
 .note.GNU-stack
                0x0000000000000000        0x0 /usr/lib/gcl-2.6.7/unixport//libansi_gcl.a(gcl_packlib.o)
 .note.GNU-stack
                0x0000000000000000        0x0 /usr/lib/gcl-2.6.7/unixport//libansi_gcl.a(gcl_seq.o)
 .note.GNU-stack
                0x0000000000000000        0x0 /usr/lib/gcl-2.6.7/unixport//libansi_gcl.a(gcl_defpackage.o)
 .note.GNU-stack
                0x0000000000000000        0x0 /usr/lib/gcl-2.6.7/unixport//libansi_gcl.a(gcl_info.o)
 .note.GNU-stack
                0x0000000000000000        0x0 /usr/lib/gcl-2.6.7/unixport//libansi_gcl.a(gcl_trace.o)
 .note.GNU-stack
                0x0000000000000000        0x0 /usr/lib/gcl-2.6.7/unixport//libansi_gcl.a(gcl_sloop.o)
 .note.GNU-stack
                0x0000000000000000        0x0 /usr/lib/gcl-2.6.7/unixport//libansi_gcl.a(gcl_mislib.o)
 .note.GNU-stack
                0x0000000000000000        0x0 /usr/lib/gcl-2.6.7/unixport//libansi_gcl.a(gcl_defmacro.o)
 .note.GNU-stack
                0x0000000000000000        0x0 /usr/lib/gcl-2.6.7/unixport//libansi_gcl.a(gcl_evalmacros.o)
 .note.GNU-stack
                0x0000000000000000        0x0 /usr/lib/gcl-2.6.7/unixport//libansi_gcl.a(gcl_seqlib.o)
 .note.GNU-stack
                0x0000000000000000        0x0 /usr/lib/gcl-2.6.7/unixport//libansi_gcl.a(gcl_loop.o)
 .note.GNU-stack
                0x0000000000000000        0x0 /usr/lib/gcl-2.6.7/unixport//libansi_gcl.a(gcl_describe.o)
 .note.GNU-stack
                0x0000000000000000        0x0 /usr/lib/gcl-2.6.7/unixport//libansi_gcl.a(gcl_setf.o)
 .note.GNU-stack
                0x0000000000000000        0x0 /usr/lib/gcl-2.6.7/unixport//libansi_gcl.a(gcl_make_defpackage.o)
 .note.GNU-stack
                0x0000000000000000        0x0 /usr/lib/gcl-2.6.7/unixport//libansi_gcl.a(gcl_assert.o)
 .note.GNU-stack
                0x0000000000000000        0x0 /usr/lib/gcl-2.6.7/unixport//libansi_gcl.a(gcl_defentry_events.o)
 .note.GNU-stack
                0x0000000000000000        0x0 /usr/lib/gcl-2.6.7/unixport//libansi_gcl.a(gcl_keysymdef.o)
 .note.GNU-stack
                0x0000000000000000        0x0 /usr/lib/gcl-2.6.7/unixport//libansi_gcl.a(gcl_XStruct_l_3.o)
 .note.GNU-stack
                0x0000000000000000        0x0 /usr/lib/gcl-2.6.7/unixport//libansi_gcl.a(gcl_tohtml.o)
 .note.GNU-stack
                0x0000000000000000        0x0 /usr/lib/gcl-2.6.7/unixport//libansi_gcl.a(Events.o)
 .note.GNU-stack
                0x0000000000000000        0x0 /usr/lib/gcl-2.6.7/unixport//libansi_gcl.a(gcl_Xutil.o)
 .note.GNU-stack
                0x0000000000000000        0x0 /usr/lib/gcl-2.6.7/unixport//libansi_gcl.a(XStruct-4.o)
 .note.GNU-stack
                0x0000000000000000        0x0 /usr/lib/gcl-2.6.7/unixport//libansi_gcl.a(gcl_Xlib.o)
 .note.GNU-stack
                0x0000000000000000        0x0 /usr/lib/gcl-2.6.7/unixport//libansi_gcl.a(gcl_Xstruct.o)
 .note.GNU-stack
                0x0000000000000000        0x0 /usr/lib/gcl-2.6.7/unixport//libansi_gcl.a(XStruct-2.o)
 .note.GNU-stack
                0x0000000000000000        0x0 /usr/lib/gcl-2.6.7/unixport//libansi_gcl.a(gcl_XAtom.o)
 .note.GNU-stack
                0x0000000000000000        0x0 /usr/lib/gcl-2.6.7/unixport//libansi_gcl.a(gcl_X10.o)
 .note.GNU-stack
                0x0000000000000000        0x0 /usr/lib/gcl-2.6.7/unixport//libansi_gcl.a(Xutil-2.o)
 .note.GNU-stack
                0x0000000000000000        0x0 /usr/lib/gcl-2.6.7/unixport//libansi_gcl.a(gcl_Xinit.o)
 .note.GNU-stack
                0x0000000000000000        0x0 /usr/lib/gcl-2.6.7/unixport//libansi_gcl.a(gcl_index.o)
 .note.GNU-stack
                0x0000000000000000        0x0 /usr/lib/gcl-2.6.7/unixport//libansi_gcl.a(gcl_dwtrans.o)
 .note.GNU-stack
                0x0000000000000000        0x0 /usr/lib/gcl-2.6.7/unixport//libansi_gcl.a(gcl_general.o)
 .note.GNU-stack
                0x0000000000000000        0x0 /usr/lib/gcl-2.6.7/unixport//libansi_gcl.a(gcl_X.o)
 .note.GNU-stack
                0x0000000000000000        0x0 /usr/lib/gcl-2.6.7/unixport//libansi_gcl.a(gcl_cmplet.o)
 .note.GNU-stack
                0x0000000000000000        0x0 /usr/lib/gcl-2.6.7/unixport//libansi_gcl.a(gcl_cmpflet.o)
 .note.GNU-stack
                0x0000000000000000        0x0 /usr/lib/gcl-2.6.7/unixport//libansi_gcl.a(gcl_cmpfun.o)
 .note.GNU-stack
                0x0000000000000000        0x0 /usr/lib/gcl-2.6.7/unixport//libansi_gcl.a(gcl_cmpspecial.o)
 .note.GNU-stack
                0x0000000000000000        0x0 /usr/lib/gcl-2.6.7/unixport//libansi_gcl.a(gcl_cmputil.o)
 .note.GNU-stack
                0x0000000000000000        0x0 /usr/lib/gcl-2.6.7/unixport//libansi_gcl.a(gcl_cmptag.o)
 .note.GNU-stack
                0x0000000000000000        0x0 /usr/lib/gcl-2.6.7/unixport//libansi_gcl.a(gcl_cmpblock.o)
 .note.GNU-stack
                0x0000000000000000        0x0 /usr/lib/gcl-2.6.7/unixport//libansi_gcl.a(gcl_cmpwt.o)
 .note.GNU-stack
                0x0000000000000000        0x0 /usr/lib/gcl-2.6.7/unixport//libansi_gcl.a(gcl_cmplam.o)
 .note.GNU-stack
                0x0000000000000000        0x0 /usr/lib/gcl-2.6.7/unixport//libansi_gcl.a(gcl_cmpvs.o)
 .note.GNU-stack
                0x0000000000000000        0x0 /usr/lib/gcl-2.6.7/unixport//libansi_gcl.a(gcl_cmpenv.o)
 .note.GNU-stack
                0x0000000000000000        0x0 /usr/lib/gcl-2.6.7/unixport//libansi_gcl.a(gcl_cmpcatch.o)
 .note.GNU-stack
                0x0000000000000000        0x0 /usr/lib/gcl-2.6.7/unixport//libansi_gcl.a(gcl_cmpmulti.o)
 .note.GNU-stack
                0x0000000000000000        0x0 /usr/lib/gcl-2.6.7/unixport//libansi_gcl.a(gcl_cmpmain.o)
 .note.GNU-stack
                0x0000000000000000        0x0 /usr/lib/gcl-2.6.7/unixport//libansi_gcl.a(gcl_cmptop.o)
 .note.GNU-stack
                0x0000000000000000        0x0 /usr/lib/gcl-2.6.7/unixport//libansi_gcl.a(gcl_cmptype.o)
 .note.GNU-stack
                0x0000000000000000        0x0 /usr/lib/gcl-2.6.7/unixport//libansi_gcl.a(gcl_cmpvar.o)
 .note.GNU-stack
                0x0000000000000000        0x0 /usr/lib/gcl-2.6.7/unixport//libansi_gcl.a(gcl_cmpif.o)
 .note.GNU-stack
                0x0000000000000000        0x0 /usr/lib/gcl-2.6.7/unixport//libansi_gcl.a(gcl_cmpbind.o)
 .note.GNU-stack
                0x0000000000000000        0x0 /usr/lib/gcl-2.6.7/unixport//libansi_gcl.a(gcl_cmploc.o)
 .note.GNU-stack
                0x0000000000000000        0x0 /usr/lib/gcl-2.6.7/unixport//libansi_gcl.a(gcl_cmplabel.o)
 .note.GNU-stack
                0x0000000000000000        0x0 /usr/lib/gcl-2.6.7/unixport//libansi_gcl.a(gcl_cmpmap.o)
 .note.GNU-stack
                0x0000000000000000        0x0 /usr/lib/gcl-2.6.7/unixport//libansi_gcl.a(gcl_cmpinline.o)
 .note.GNU-stack
                0x0000000000000000        0x0 /usr/lib/gcl-2.6.7/unixport//libansi_gcl.a(gcl_cmpeval.o)
 .note.GNU-stack
                0x0000000000000000        0x0 /usr/lib/gcl-2.6.7/unixport//libansi_gcl.a(gcl_cmpcall.o)
 .note.GNU-stack
                0x0000000000000000        0x0 /usr/lib/gcl-2.6.7/unixport//libansi_gcl.a(gcl_pcl_gazonk5.o)
 .note.GNU-stack
                0x0000000000000000        0x0 /usr/lib/gcl-2.6.7/unixport//libansi_gcl.a(gcl_pcl_precom2.o)
 .note.GNU-stack
                0x0000000000000000        0x0 /usr/lib/gcl-2.6.7/unixport//libansi_gcl.a(gcl_pcl_macros.o)
 .note.GNU-stack
                0x0000000000000000        0x0 /usr/lib/gcl-2.6.7/unixport//libansi_gcl.a(gcl_pcl_fast_init.o)
 .note.GNU-stack
                0x0000000000000000        0x0 /usr/lib/gcl-2.6.7/unixport//libansi_gcl.a(gcl_pcl_env.o)
 .note.GNU-stack
                0x0000000000000000        0x0 /usr/lib/gcl-2.6.7/unixport//libansi_gcl.a(gcl_pcl_walk.o)
 .note.GNU-stack
                0x0000000000000000        0x0 /usr/lib/gcl-2.6.7/unixport//libansi_gcl.a(gcl_pcl_defcombin.o)
 .note.GNU-stack
                0x0000000000000000        0x0 /usr/lib/gcl-2.6.7/unixport//libansi_gcl.a(gcl_pcl_std_class.o)
 .note.GNU-stack
                0x0000000000000000        0x0 /usr/lib/gcl-2.6.7/unixport//libansi_gcl.a(gcl_pcl_defclass.o)
 .note.GNU-stack
                0x0000000000000000        0x0 /usr/lib/gcl-2.6.7/unixport//libansi_gcl.a(gcl_pcl_fsc.o)
 .note.GNU-stack
                0x0000000000000000        0x0 /usr/lib/gcl-2.6.7/unixport//libansi_gcl.a(gcl_pcl_vector.o)
 .note.GNU-stack
                0x0000000000000000        0x0 /usr/lib/gcl-2.6.7/unixport//libansi_gcl.a(gcl_pcl_precom1.o)
 .note.GNU-stack
                0x0000000000000000        0x0 /usr/lib/gcl-2.6.7/unixport//libansi_gcl.a(gcl_pcl_compat.o)
 .note.GNU-stack
                0x0000000000000000        0x0 /usr/lib/gcl-2.6.7/unixport//libansi_gcl.a(gcl_pcl_cpl.o)
 .note.GNU-stack
                0x0000000000000000        0x0 /usr/lib/gcl-2.6.7/unixport//libansi_gcl.a(gcl_pcl_fngen.o)
 .note.GNU-stack
                0x0000000000000000        0x0 /usr/lib/gcl-2.6.7/unixport//libansi_gcl.a(gcl_pcl_slots_boot.o)
 .note.GNU-stack
                0x0000000000000000        0x0 /usr/lib/gcl-2.6.7/unixport//libansi_gcl.a(gcl_pcl_gazonk7.o)
 .note.GNU-stack
                0x0000000000000000        0x0 /usr/lib/gcl-2.6.7/unixport//libansi_gcl.a(gcl_pcl_gazonk3.o)
 .note.GNU-stack
                0x0000000000000000        0x0 /usr/lib/gcl-2.6.7/unixport//libansi_gcl.a(gcl_pcl_boot.o)
 .note.GNU-stack
                0x0000000000000000        0x0 /usr/lib/gcl-2.6.7/unixport//libansi_gcl.a(gcl_pcl_impl_low.o)
 .note.GNU-stack
                0x0000000000000000        0x0 /usr/lib/gcl-2.6.7/unixport//libansi_gcl.a(gcl_pcl_dlisp.o)
 .note.GNU-stack
                0x0000000000000000        0x0 /usr/lib/gcl-2.6.7/unixport//libansi_gcl.a(gcl_pcl_init.o)
 .note.GNU-stack
                0x0000000000000000        0x0 /usr/lib/gcl-2.6.7/unixport//libansi_gcl.a(gcl_pcl_dlisp2.o)
 .note.GNU-stack
                0x0000000000000000        0x0 /usr/lib/gcl-2.6.7/unixport//libansi_gcl.a(gcl_pcl_cache.o)
 .note.GNU-stack
                0x0000000000000000        0x0 /usr/lib/gcl-2.6.7/unixport//libansi_gcl.a(gcl_pcl_gazonk6.o)
 .note.GNU-stack
                0x0000000000000000        0x0 /usr/lib/gcl-2.6.7/unixport//libansi_gcl.a(gcl_pcl_defs.o)
 .note.GNU-stack
                0x0000000000000000        0x0 /usr/lib/gcl-2.6.7/unixport//libansi_gcl.a(gcl_pcl_low.o)
 .note.GNU-stack
                0x0000000000000000        0x0 /usr/lib/gcl-2.6.7/unixport//libansi_gcl.a(gcl_pcl_generic_functions.o)
 .note.GNU-stack
                0x0000000000000000        0x0 /usr/lib/gcl-2.6.7/unixport//libansi_gcl.a(gcl_pcl_gazonk4.o)
 .note.GNU-stack
                0x0000000000000000        0x0 /usr/lib/gcl-2.6.7/unixport//libansi_gcl.a(gcl_pcl_iterate.o)
 .note.GNU-stack
                0x0000000000000000        0x0 /usr/lib/gcl-2.6.7/unixport//libansi_gcl.a(gcl_pcl_gazonk2.o)
 .note.GNU-stack
                0x0000000000000000        0x0 /usr/lib/gcl-2.6.7/unixport//libansi_gcl.a(gcl_pcl_methods.o)
 .note.GNU-stack
                0x0000000000000000        0x0 /usr/lib/gcl-2.6.7/unixport//libansi_gcl.a(gcl_pcl_fin.o)
 .note.GNU-stack
                0x0000000000000000        0x0 /usr/lib/gcl-2.6.7/unixport//libansi_gcl.a(gcl_pcl_gazonk1.o)
 .note.GNU-stack
                0x0000000000000000        0x0 /usr/lib/gcl-2.6.7/unixport//libansi_gcl.a(gcl_pcl_gazonk0.o)
 .note.GNU-stack
                0x0000000000000000        0x0 /usr/lib/gcl-2.6.7/unixport//libansi_gcl.a(gcl_pcl_dfun.o)
 .note.GNU-stack
                0x0000000000000000        0x0 /usr/lib/gcl-2.6.7/unixport//libansi_gcl.a(gcl_pcl_fixup.o)
 .note.GNU-stack
                0x0000000000000000        0x0 /usr/lib/gcl-2.6.7/unixport//libansi_gcl.a(gcl_pcl_slots.o)
 .note.GNU-stack
                0x0000000000000000        0x0 /usr/lib/gcl-2.6.7/unixport//libansi_gcl.a(gcl_pcl_combin.o)
 .note.GNU-stack
                0x0000000000000000        0x0 /usr/lib/gcl-2.6.7/unixport//libansi_gcl.a(gcl_pcl_pkg.o)
 .note.GNU-stack
                0x0000000000000000        0x0 /usr/lib/gcl-2.6.7/unixport//libansi_gcl.a(gcl_pcl_braid.o)
 .note.GNU-stack
                0x0000000000000000        0x0 /usr/lib/gcl-2.6.7/unixport//libansi_gcl.a(gcl_pcl_ctypes.o)
 .note.GNU-stack
                0x0000000000000000        0x0 /usr/lib/gcl-2.6.7/unixport//libansi_gcl.a(gcl_clcs_install.o)
 .note.GNU-stack
                0x0000000000000000        0x0 /usr/lib/gcl-2.6.7/unixport//libansi_gcl.a(gcl_clcs_handler.o)
 .note.GNU-stack
                0x0000000000000000        0x0 /usr/lib/gcl-2.6.7/unixport//libansi_gcl.a(gcl_clcs_macros.o)
 .note.GNU-stack
                0x0000000000000000        0x0 /usr/lib/gcl-2.6.7/unixport//libansi_gcl.a(gcl_clcs_conditions.o)
 .note.GNU-stack
                0x0000000000000000        0x0 /usr/lib/gcl-2.6.7/unixport//libansi_gcl.a(gcl_clcs_debugger.o)
 .note.GNU-stack
                0x0000000000000000        0x0 /usr/lib/gcl-2.6.7/unixport//libansi_gcl.a(gcl_clcs_top_patches.o)
 .note.GNU-stack
                0x0000000000000000        0x0 /usr/lib/gcl-2.6.7/unixport//libansi_gcl.a(gcl_clcs_condition_definitions.o)
 .note.GNU-stack
                0x0000000000000000        0x0 /usr/lib/gcl-2.6.7/unixport//libansi_gcl.a(gcl_clcs_restart.o)
 .note.GNU-stack
                0x0000000000000000        0x0 /usr/lib/gcl-2.6.7/unixport//libansi_gcl.a(gcl_clcs_precom.o)
 .note.GNU-stack
                0x0000000000000000        0x0 /usr/lib/gcl-2.6.7/unixport//libansi_gcl.a(gcl_clcs_kcl_cond.o)
 .note.GNU-stack
                0x0000000000000000        0x0 /usr/lib/gcl-2.6.7/unixport//libansi_gcl.a(num_sfun.o)
 .note.GNU-stack
                0x0000000000000000        0x0 /usr/lib/gcl-2.6.7/unixport//libansi_gcl.a(num_rand.o)
 .note.GNU-stack
                0x0000000000000000        0x0 /usr/lib/gcl-2.6.7/unixport//libansi_gcl.a(general-c.o)
 .group         0x0000000000000000        0x8 /usr/lib/libc_nonshared.a(elf-init.oS)
 .note.GNU-stack
                0x0000000000000000        0x0 /usr/lib/libc_nonshared.a(elf-init.oS)
 .group         0x0000000000000000        0x8 /usr/lib/libc_nonshared.a(atexit.oS)
 .text.__i686.get_pc_thunk.bx
                0x0000000000000000        0x4 /usr/lib/libc_nonshared.a(atexit.oS)
 .note.GNU-stack
                0x0000000000000000        0x0 /usr/lib/libc_nonshared.a(atexit.oS)
 .note.GNU-stack
                0x0000000000000000        0x0 /usr/lib/gcc/i486-linux-gnu/4.4.4/libgcc.a(_moddi3.o)
 .note.GNU-stack
                0x0000000000000000        0x0 /usr/lib/gcc/i486-linux-gnu/4.4.4/crtend.o
 .note.GNU-stack
                0x0000000000000000        0x0 /usr/lib/gcc/i486-linux-gnu/4.4.4/../../../../lib/crtn.o
 .gnu_debuglink
                0x0000000000000000        0xc /usr/lib/gcc/i486-linux-gnu/4.4.4/../../../../lib/crtn.o

Memory Configuration

Name             Origin             Length             Attributes
*default*        0x0000000000000000 0xffffffffffffffff

Linker script and memory map

LOAD /usr/lib/gcc/i486-linux-gnu/4.4.4/../../../../lib/crt1.o
LOAD /usr/lib/gcc/i486-linux-gnu/4.4.4/../../../../lib/crti.o
LOAD /usr/lib/gcc/i486-linux-gnu/4.4.4/crtbegin.o
LOAD ./user-init.o
LOAD /usr/lib/gcl-2.6.7/unixport//libansi_gcl.a
LOAD /usr/lib/gcc/i486-linux-gnu/4.4.4/../../../../lib/libX11.so
LOAD /usr/lib/gcc/i486-linux-gnu/4.4.4/../../../../lib/libm.so
LOAD /usr/lib/gcc/i486-linux-gnu/4.4.4/../../../../lib/libgmp.so
LOAD /usr/lib/gcc/i486-linux-gnu/4.4.4/../../../../lib/libreadline.so
LOAD /usr/lib/gcc/i486-linux-gnu/4.4.4/../../../../lib/libc.so
START GROUP
LOAD /lib/libc.so.6
LOAD /usr/lib/libc_nonshared.a
LOAD /lib/ld-linux.so.2
END GROUP
LOAD /usr/lib/gcl-2.6.7/unixport//libgclp.a
LOAD /usr/lib/gcc/i486-linux-gnu/4.4.4/libgcc.a
LOAD /usr/lib/gcc/i486-linux-gnu/4.4.4/libgcc_s.so
LOAD /usr/lib/gcc/i486-linux-gnu/4.4.4/../../../../lib/libc.so
START GROUP
LOAD /lib/libc.so.6
LOAD /usr/lib/libc_nonshared.a
LOAD /lib/ld-linux.so.2
END GROUP
LOAD /usr/lib/gcc/i486-linux-gnu/4.4.4/libgcc.a
LOAD /usr/lib/gcc/i486-linux-gnu/4.4.4/libgcc_s.so
LOAD /usr/lib/gcc/i486-linux-gnu/4.4.4/crtend.o
LOAD /usr/lib/gcc/i486-linux-gnu/4.4.4/../../../../lib/crtn.o
                0x0000000008048000                PROVIDE (__executable_start, 0x8048000)
                0x0000000008048134                . = (0x8048000 + SIZEOF_HEADERS)

.interp         0x0000000008048134       0x13
 *(.interp)
 .interp        0x0000000008048134       0x13 /usr/lib/gcc/i486-linux-gnu/4.4.4/../../../../lib/crt1.o

.note.ABI-tag   0x0000000008048148       0x20
 .note.ABI-tag  0x0000000008048148       0x20 /usr/lib/gcc/i486-linux-gnu/4.4.4/../../../../lib/crt1.o

.note.gnu.build-id
                0x0000000008048168       0x24
 *(.note.gnu.build-id)
 .note.gnu.build-id
                0x0000000008048168       0x24 /usr/lib/gcc/i486-linux-gnu/4.4.4/../../../../lib/crt1.o

.hash           0x000000000804818c     0x1178
 *(.hash)
 .hash          0x000000000804818c     0x1178 /usr/lib/gcc/i486-linux-gnu/4.4.4/../../../../lib/crt1.o

.gnu.hash       0x0000000008049304       0xd8
 *(.gnu.hash)
 .gnu.hash      0x0000000008049304       0xd8 /usr/lib/gcc/i486-linux-gnu/4.4.4/../../../../lib/crt1.o

.dynsym         0x00000000080493dc     0x2530
 *(.dynsym)
 .dynsym        0x00000000080493dc     0x2530 /usr/lib/gcc/i486-linux-gnu/4.4.4/../../../../lib/crt1.o

.dynstr         0x000000000804b90c     0x1f06
 *(.dynstr)
 .dynstr        0x000000000804b90c     0x1f06 /usr/lib/gcc/i486-linux-gnu/4.4.4/../../../../lib/crt1.o

.gnu.version    0x000000000804d812      0x4a6
 *(.gnu.version)
 .gnu.version   0x000000000804d812      0x4a6 /usr/lib/gcc/i486-linux-gnu/4.4.4/../../../../lib/crt1.o

.gnu.version_d  0x000000000804dcb8        0x0
 *(.gnu.version_d)
 .gnu.version_d
                0x0000000000000000        0x0 /usr/lib/gcc/i486-linux-gnu/4.4.4/../../../../lib/crt1.o

.gnu.version_r  0x000000000804dcb8       0x90
 *(.gnu.version_r)
 .gnu.version_r
                0x000000000804dcb8       0x90 /usr/lib/gcc/i486-linux-gnu/4.4.4/../../../../lib/crt1.o

.rel.dyn        0x000000000804dd48       0x40
 *(.rel.init)
 *(.rel.text .rel.text.* .rel.gnu.linkonce.t.*)
 .rel.text      0x0000000000000000        0x0 /usr/lib/gcc/i486-linux-gnu/4.4.4/../../../../lib/crt1.o
 *(.rel.fini)
 *(.rel.rodata .rel.rodata.* .rel.gnu.linkonce.r.*)
 .rel.rodata    0x0000000000000000        0x0 /usr/lib/gcc/i486-linux-gnu/4.4.4/../../../../lib/crt1.o
 *(.rel.data.rel.ro* .rel.gnu.linkonce.d.rel.ro.*)
 *(.rel.data .rel.data.* .rel.gnu.linkonce.d.*)
 .rel.data      0x0000000000000000        0x0 /usr/lib/gcc/i486-linux-gnu/4.4.4/../../../../lib/crt1.o
 *(.rel.tdata .rel.tdata.* .rel.gnu.linkonce.td.*)
 *(.rel.tbss .rel.tbss.* .rel.gnu.linkonce.tb.*)
 *(.rel.ctors)
 *(.rel.dtors)
 *(.rel.got)
 .rel.got       0x000000000804dd48        0x8 /usr/lib/gcc/i486-linux-gnu/4.4.4/../../../../lib/crt1.o
 *(.rel.bss .rel.bss.* .rel.gnu.linkonce.b.*)
 .rel.bss       0x000000000804dd50       0x38 /usr/lib/gcc/i486-linux-gnu/4.4.4/../../../../lib/crt1.o
 *(.rel.ifunc)

.rel.plt        0x000000000804dd88     0x11e0
 *(.rel.plt)
 .rel.plt       0x000000000804dd88     0x11e0 /usr/lib/gcc/i486-linux-gnu/4.4.4/../../../../lib/crt1.o
                0x000000000804ef68                PROVIDE (__rel_iplt_start, .)
 *(.rel.iplt)
 .rel.iplt      0x0000000000000000        0x0 /usr/lib/gcc/i486-linux-gnu/4.4.4/../../../../lib/crt1.o
                0x000000000804ef68                PROVIDE (__rel_iplt_end, .)

.init           0x000000000804ef68       0x30
 *(.init)
 .init          0x000000000804ef68       0x22 /usr/lib/gcc/i486-linux-gnu/4.4.4/../../../../lib/crti.o
                0x000000000804ef68                _init
 .init          0x000000000804ef8a        0x5 /usr/lib/gcc/i486-linux-gnu/4.4.4/crtbegin.o
 .init          0x000000000804ef8f        0x5 /usr/lib/gcc/i486-linux-gnu/4.4.4/crtend.o
 .init          0x000000000804ef94        0x4 /usr/lib/gcc/i486-linux-gnu/4.4.4/../../../../lib/crtn.o

.plt            0x000000000804ef98     0x23d0
 *(.plt)
 .plt           0x000000000804ef98     0x23d0 /usr/lib/gcc/i486-linux-gnu/4.4.4/../../../../lib/crt1.o
                0x000000000804efa8                fileno@@GLIBC_2.0
                0x000000000804efb8                getpagesize@@GLIBC_2.0
                0x000000000804efc8                XWidthOfScreen
                0x000000000804efd8                abort@@GLIBC_2.0
                0x000000000804efe8                __errno_location@@GLIBC_2.0
                0x000000000804eff8                XXorRegion
                0x000000000804f008                XDrawString
                0x000000000804f018                brk@@GLIBC_2.0
                0x000000000804f028                __gmpz_cmp
                0x000000000804f038                XSetWindowBorderPixmap
                0x000000000804f048                XQueryExtension
                0x000000000804f058                __gmpz_mul
                0x000000000804f068                XQueryColors
                0x000000000804f078                sigemptyset@@GLIBC_2.0
                0x000000000804f088                XProtocolRevision
                0x000000000804f098                XLookupKeysym
                0x000000000804f0a8                XDefaultGCOfScreen
                0x000000000804f0b8                XRebindKeysym
                0x000000000804f0c8                sprintf@@GLIBC_2.0
                0x000000000804f0d8                XGetSizeHints
                0x000000000804f0e8                XLoadFont
                0x000000000804f0f8                popen@@GLIBC_2.1
                0x000000000804f108                XSetIconSizes
                0x000000000804f118                open@@GLIBC_2.0
                0x000000000804f128                XCreateFontCursor
                0x000000000804f138                XFree
                0x000000000804f148                connect@@GLIBC_2.0
                0x000000000804f158                __gmpn_popcount
                0x000000000804f168                XMoveWindow
                0x000000000804f178                mmap@@GLIBC_2.0
                0x000000000804f188                XGetRGBColormaps
                0x000000000804f198                XFreeCursor
                0x000000000804f1a8                XSetRegion
                0x000000000804f1b8                getpid@@GLIBC_2.0
                0x000000000804f1c8                XSetSizeHints
                0x000000000804f1d8                strerror@@GLIBC_2.0
                0x000000000804f1e8                XDefaultDepthOfScreen
                0x000000000804f1f8                setbuf@@GLIBC_2.0
                0x000000000804f208                XQLength
                0x000000000804f218                getsockname@@GLIBC_2.0
                0x000000000804f228                __cxa_atexit@@GLIBC_2.1.3
                0x000000000804f238                __gmpz_fits_sint_p
                0x000000000804f248                tanf@@GLIBC_2.0
                0x000000000804f258                XQueryBestSize
                0x000000000804f268                XClearWindow
                0x000000000804f278                qsort@@GLIBC_2.0
                0x000000000804f288                inet_ntoa@@GLIBC_2.0
                0x000000000804f298                XDrawSegments
                0x000000000804f2a8                XCirculateSubwindowsUp
                0x000000000804f2b8                XCreateRegion
                0x000000000804f2c8                XStringToKeysym
                0x000000000804f2d8                XCreateGlyphCursor
                0x000000000804f2e8                XListPixmapFormats
                0x000000000804f2f8                bsearch@@GLIBC_2.0
                0x000000000804f308                XConfigureWindow
                0x000000000804f318                XChangeActivePointerGrab
                0x000000000804f328                XStoreBytes
                0x000000000804f338                XHeightMMOfScreen
                0x000000000804f348                XInitExtension
                0x000000000804f358                XBitmapBitOrder
                0x000000000804f368                __finitef@@GLIBC_2.1
                0x000000000804f378                XCirculateSubwindowsDown
                0x000000000804f388                XCheckTypedWindowEvent
                0x000000000804f398                __gmpz_mul_2exp
                0x000000000804f3a8                XStoreNamedColor
                0x000000000804f3b8                XStoreName
                0x000000000804f3c8                XReconfigureWMWindow
                0x000000000804f3d8                __gmpz_set_ui
                0x000000000804f3e8                XAllocClassHint
                0x000000000804f3f8                sqrtf@@GLIBC_2.0
                0x000000000804f408                __xstat@@GLIBC_2.0
                0x000000000804f418                XRefreshKeyboardMapping
                0x000000000804f428                XGrabServer
                0x000000000804f438                XGetWMNormalHints
                0x000000000804f448                sigismember@@GLIBC_2.0
                0x000000000804f468                XScreenCount
                0x000000000804f478                __lxstat@@GLIBC_2.0
                0x000000000804f488                XAutoRepeatOff
                0x000000000804f498                XFreeColormap
                0x000000000804f4a8                XLookupString
                0x000000000804f4b8                XShrinkRegion
                0x000000000804f4c8                XTextWidth16
                0x000000000804f4d8                XWhitePixelOfScreen
                0x000000000804f4e8                XCopyGC
                0x000000000804f4f8                XGetZoomHints
                0x000000000804f508                __gmpz_xor
                0x000000000804f518                localtime@@GLIBC_2.0
                0x000000000804f528                XSetTile
                0x000000000804f538                XResourceManagerString
                0x000000000804f548                XBitmapUnit
                0x000000000804f558                XSetPointerMapping
                0x000000000804f568                XCreateImage
                0x000000000804f578                XFreeFont
                0x000000000804f588                XSetCloseDownMode
                0x000000000804f598                XTextExtents16
                0x000000000804f5a8                XPolygonRegion
                0x000000000804f5b8                XSetClipMask
                0x000000000804f5c8                profil@@GLIBC_2.0
                0x000000000804f5d8                strtod@@GLIBC_2.0
                0x000000000804f5e8                socketpair@@GLIBC_2.0
                0x000000000804f5f8                strchr@@GLIBC_2.0
                0x000000000804f608                XRotateWindowProperties
                0x000000000804f618                XRaiseWindow
                0x000000000804f628                getenv@@GLIBC_2.0
                0x000000000804f638                XDestroySubwindows
                0x000000000804f648                inet_addr@@GLIBC_2.0
                0x000000000804f658                system@@GLIBC_2.0
                0x000000000804f668                XSetState
                0x000000000804f678                putchar@@GLIBC_2.0
                0x000000000804f688                XConvertSelection
                0x000000000804f698                XSetFontPath
                0x000000000804f6a8                XQueryFont
                0x000000000804f6b8                XGetIconName
                0x000000000804f6c8                write@@GLIBC_2.0
                0x000000000804f6d8                XUngrabPointer
                0x000000000804f6e8                XUnionRegion
                0x000000000804f6f8                XGetWindowProperty
                0x000000000804f708                XReadBitmapFile
                0x000000000804f718                XDisplayWidth
                0x000000000804f728                XSetFont
                0x000000000804f738                XFreeModifiermap
                0x000000000804f748                pow@@GLIBC_2.0
                0x000000000804f758                listen@@GLIBC_2.0
                0x000000000804f768                XEventMaskOfScreen
                0x000000000804f778                XQueryBestTile
                0x000000000804f788                rename@@GLIBC_2.0
                0x000000000804f798                memset@@GLIBC_2.0
                0x000000000804f7a8                __gmpz_ior
                0x000000000804f7b8                XOffsetRegion
                0x000000000804f7c8                XSetFillStyle
                0x000000000804f7d8                XDrawImageString16
                0x000000000804f7e8                XListExtensions
                0x000000000804f7f8                XEmptyRegion
                0x000000000804f808                XMatchVisualInfo
                0x000000000804f818                XAllocNamedColor
                0x000000000804f828                XListDepths
                0x000000000804f838                setsid@@GLIBC_2.0
                0x000000000804f848                XSetWMNormalHints
                0x000000000804f858                XCheckTypedEvent
                0x000000000804f868                XGrabPointer
                0x000000000804f878                XGContextFromGC
                0x000000000804f888                XGetGCValues
                0x000000000804f898                __libc_start_main@@GLIBC_2.0
                0x000000000804f8a8                XLastKnownRequestProcessed
                0x000000000804f8b8                _IO_getc@@GLIBC_2.0
                0x000000000804f8c8                XUngrabKey
                0x000000000804f8d8                XEnableAccessControl
                0x000000000804f8e8                XSetClassHint
                0x000000000804f8f8                XFreeColors
                0x000000000804f908                XSubtractRegion
                0x000000000804f918                XCreateWindow
                0x000000000804f928                XListFonts
                0x000000000804f938                XIconifyWindow
                0x000000000804f948                modf@@GLIBC_2.0
                0x000000000804f958                XSetSubwindowMode
                0x000000000804f968                XTranslateCoordinates
                0x000000000804f978                XFindContext
                0x000000000804f988                XCreateSimpleWindow
                0x000000000804f998                XGetStandardColormap
                0x000000000804f9a8                XCreateColormap
                0x000000000804f9b8                chmod@@GLIBC_2.0
                0x000000000804f9c8                xdr_float@@GLIBC_2.0
                0x000000000804f9d8                __fpclassifyf@@GLIBC_2.1
                0x000000000804f9e8                XWMGeometry
                0x000000000804f9f8                XInsertModifiermapEntry
                0x000000000804fa08                XConnectionNumber
                0x000000000804fa18                XGetWMSizeHints
                0x000000000804fa28                XDefaultVisual
                0x000000000804fa38                XRemoveFromSaveSet
                0x000000000804fa48                XRootWindow
                0x000000000804fa58                XDisplayMotionBufferSize
                0x000000000804fa68                XAutoRepeatOn
                0x000000000804fa78                XRecolorCursor
                0x000000000804fa88                XQueryKeymap
                0x000000000804fa98                __gmpz_add
                0x000000000804faa8                XClipBox
                0x000000000804fab8                XHeightOfScreen
                0x000000000804fac8                read@@GLIBC_2.0
                0x000000000804fad8                sigaltstack@@GLIBC_2.0
                0x000000000804fae8                XOpenDisplay
                0x000000000804faf8                perror@@GLIBC_2.0
                0x000000000804fb08                exp@@GLIBC_2.0
                0x000000000804fb18                __gmpz_set
                0x000000000804fb28                XFreeFontNames
                0x000000000804fb38                XGetMotionEvents
                0x000000000804fb48                ungetc@@GLIBC_2.0
                0x000000000804fb58                __gmpz_sizeinbase
                0x000000000804fb68                usleep@@GLIBC_2.0
                0x000000000804fb78                rl_completion_matches
                0x000000000804fb88                XServerVendor
                0x000000000804fb98                XGetFontProperty
                0x000000000804fba8                tmpfile@@GLIBC_2.1
                0x000000000804fbb8                XListHosts
                0x000000000804fbc8                XDisableAccessControl
                0x000000000804fbd8                gettimeofday@@GLIBC_2.0
                0x000000000804fbe8                __gmpz_get_d
                0x000000000804fbf8                XDrawRectangles
                0x000000000804fc08                XSetWMProperties
                0x000000000804fc18                fdopen@@GLIBC_2.1
                0x000000000804fc28                XGetPointerMapping
                0x000000000804fc38                XRemoveHosts
                0x000000000804fc48                __ctype_toupper_loc@@GLIBC_2.3
                0x000000000804fc58                __gmp_set_memory_functions
                0x000000000804fc68                XSetWMIconName
                0x000000000804fc78                XAllocWMHints
                0x000000000804fc88                XDrawPoint
                0x000000000804fc98                atan@@GLIBC_2.0
                0x000000000804fca8                XImageByteOrder
                0x000000000804fcb8                __fpclassify@@GLIBC_2.1
                0x000000000804fcc8                XDisplayWidthMM
                0x000000000804fcd8                XUnloadFont
                0x000000000804fce8                XDisplayKeycodes
                0x000000000804fcf8                XCopyArea
                0x000000000804fd08                XDeleteProperty
                0x000000000804fd18                XListProperties
                0x000000000804fd28                XDrawLine
                0x000000000804fd38                XGetPixel
                0x000000000804fd48                XSetGraphicsExposures
                0x000000000804fd58                XSetWindowBorder
                0x000000000804fd68                XGetTextProperty
                0x000000000804fd78                XDestroyWindow
                0x000000000804fd88                XGetIconSizes
                0x000000000804fd98                XFillRectangles
                0x000000000804fda8                XFreeFontInfo
                0x000000000804fdb8                XCloseDisplay
                0x000000000804fdc8                sigaction@@GLIBC_2.0
                0x000000000804fdd8                XBell
                0x000000000804fde8                sbrk@@GLIBC_2.0
                0x000000000804fdf8                fflush@@GLIBC_2.0
                0x000000000804fe08                XFillArc
                0x000000000804fe18                XMapSubwindows
                0x000000000804fe28                sqrt@@GLIBC_2.0
                0x000000000804fe38                XQueryTextExtents
                0x000000000804fe48                XGetErrorText
                0x000000000804fe58                accept@@GLIBC_2.0
                0x000000000804fe68                ioctl@@GLIBC_2.0
                0x000000000804fe78                socket@@GLIBC_2.0
                0x000000000804fe88                getrlimit@@GLIBC_2.2
                0x000000000804fe98                __ctype_b_loc@@GLIBC_2.3
                0x000000000804fea8                fseek@@GLIBC_2.0
                0x000000000804feb8                XActivateScreenSaver
                0x000000000804fec8                mprotect@@GLIBC_2.0
                0x000000000804fed8                XSetForeground
                0x000000000804fee8                XFillRectangle
                0x000000000804fef8                XrmStringToQuark
                0x000000000804ff08                XVendorRelease
                0x000000000804ff18                XSetModifierMapping
                0x000000000804ff28                XAddToSaveSet
                0x000000000804ff38                isatty@@GLIBC_2.0
                0x000000000804ff48                realpath@@GLIBC_2.3
                0x000000000804ff58                XGetGeometry
                0x000000000804ff68                XSetStandardColormap
                0x000000000804ff78                XUnmapWindow
                0x000000000804ff88                XGetErrorDatabaseText
                0x000000000804ff98                umask@@GLIBC_2.0
                0x000000000804ffa8                XUnmapSubwindows
                0x000000000804ffb8                XGetClassHint
                0x000000000804ffc8                fclose@@GLIBC_2.1
                0x000000000804ffd8                XSetTransientForHint
                0x000000000804ffe8                XDisplayOfScreen
                0x000000000804fff8                bcopy@@GLIBC_2.0
                0x0000000008050008                XSetWMSizeHints
                0x0000000008050018                XListInstalledColormaps
                0x0000000008050028                XCreatePixmapFromBitmapData
                0x0000000008050038                dup@@GLIBC_2.0
                0x0000000008050048                _setjmp@@GLIBC_2.0
                0x0000000008050058                XCreatePixmapCursor
                0x0000000008050068                XQueryBestCursor
                0x0000000008050078                XSetWMName
                0x0000000008050088                XRestackWindows
                0x0000000008050098                XFreeGC
                0x00000000080500a8                XAllocColorCells
                0x00000000080500b8                XUngrabServer
                0x00000000080500c8                XDisplayName
                0x00000000080500d8                XGetWMColormapWindows
                0x00000000080500e8                __gmpz_get_si
                0x00000000080500f8                memcpy@@GLIBC_2.0
                0x0000000008050108                XMoveResizeWindow
                0x0000000008050118                XDrawLines
                0x0000000008050128                XGetWMIconName
                0x0000000008050138                XDrawRectangle
                0x0000000008050148                execvp@@GLIBC_2.0
                0x0000000008050158                strlen@@GLIBC_2.0
                0x0000000008050168                XSetBackground
                0x0000000008050178                XStoreBuffer
                0x0000000008050188                XSetFunction
                0x0000000008050198                cosf@@GLIBC_2.0
                0x00000000080501a8                XAddHosts
                0x00000000080501b8                XAllPlanes
                0x00000000080501c8                fopen@@GLIBC_2.1
                0x00000000080501d8                XForceScreenSaver
                0x00000000080501e8                XListFontsWithInfo
                0x00000000080501f8                XNextEvent
                0x0000000008050208                cos@@GLIBC_2.0
                0x0000000008050218                XWindowEvent
                0x0000000008050228                __gmpz_and
                0x0000000008050238                XWhitePixel
                0x0000000008050248                xdr_long@@GLIBC_2.0
                0x0000000008050258                XRotateBuffers
                0x0000000008050268                XDefaultGC
                0x0000000008050278                XResetScreenSaver
                0x0000000008050288                alarm@@GLIBC_2.0
                0x0000000008050298                XDefaultRootWindow
                0x00000000080502a8                unlink@@GLIBC_2.0
                0x00000000080502b8                XRectInRegion
                0x00000000080502c8                XQueryTextExtents16
                0x00000000080502d8                getpwuid@@GLIBC_2.0
                0x00000000080502e8                XSetWMProtocols
                0x00000000080502f8                XSetTextProperty
                0x0000000008050308                __finite@@GLIBC_2.1
                0x0000000008050318                XBitmapPad
                0x0000000008050328                XLowerWindow
                0x0000000008050338                XDefaultScreen
                0x0000000008050348                __gmpz_fdiv_q_2exp
                0x0000000008050358                XScreenNumberOfScreen
                0x0000000008050368                XSetLineAttributes
                0x0000000008050378                XDisplayHeight
                0x0000000008050388                XClearArea
                0x0000000008050398                XAllocStandardColormap
                0x00000000080503a8                freopen@@GLIBC_2.0
                0x00000000080503b8                XRemoveHost
                0x00000000080503c8                XSaveContext
                0x00000000080503d8                XSetStipple
                0x00000000080503e8                __gmpz_set_si
                0x00000000080503f8                feof@@GLIBC_2.0
                0x0000000008050408                strcpy@@GLIBC_2.0
                0x0000000008050418                XDrawArcs
                0x0000000008050428                ftell@@GLIBC_2.0
                0x0000000008050438                longjmp@@GLIBC_2.0
                0x0000000008050448                XAllowEvents
                0x0000000008050458                XChangeKeyboardControl
                0x0000000008050468                __gmpz_get_str
                0x0000000008050478                printf@@GLIBC_2.0
                0x0000000008050488                XChangeKeyboardMapping
                0x0000000008050498                XKeysymToString
                0x00000000080504a8                XCheckMaskEvent
                0x00000000080504b8                XSetZoomHints
                0x00000000080504c8                xdr_short@@GLIBC_2.0
                0x00000000080504d8                XResizeWindow
                0x00000000080504e8                __gmpz_com
                0x00000000080504f8                XEqualRegion
                0x0000000008050508                chdir@@GLIBC_2.0
                0x0000000008050518                bind@@GLIBC_2.0
                0x0000000008050528                getuid@@GLIBC_2.0
                0x0000000008050538                XSetIOErrorHandler
                0x0000000008050548                XChangePointerControl
                0x0000000008050558                XMapWindow
                0x0000000008050568                XUngrabKeyboard
                0x0000000008050578                XPointInRegion
                0x0000000008050588                gethostbyaddr@@GLIBC_2.0
                0x0000000008050598                XGetInputFocus
                0x00000000080505a8                XPutBackEvent
                0x00000000080505b8                XDisplayHeightMM
                0x00000000080505c8                XCreateBitmapFromData
                0x00000000080505d8                __gmpz_tdiv_qr
                0x00000000080505e8                XDrawText16
                0x00000000080505f8                XChangeSaveSet
                0x0000000008050608                XSetWMColormapWindows
                0x0000000008050618                XGetWMHints
                0x0000000008050628                XTextPropertyToStringList
                0x0000000008050638                XGetNormalHints
                0x0000000008050648                XDrawText
                0x0000000008050658                XWidthMMOfScreen
                0x0000000008050668                XDisplayString
                0x0000000008050678                XPutPixel
                0x0000000008050688                select@@GLIBC_2.0
                0x0000000008050698                XSetWindowBackground
                0x00000000080506a8                __gmpz_sub_ui
                0x00000000080506b8                XSetIconName
                0x00000000080506c8                ftruncate@@GLIBC_2.0
                0x00000000080506d8                XCreateGC
                0x00000000080506e8                XrmInitialize
                0x00000000080506f8                close@@GLIBC_2.0
                0x0000000008050708                fwrite@@GLIBC_2.0
                0x0000000008050718                XRootWindowOfScreen
                0x0000000008050728                XSetAccessControl
                0x0000000008050738                XDefaultColormap
                0x0000000008050748                XSelectInput
                0x0000000008050758                XSetInputFocus
                0x0000000008050768                XScreenOfDisplay
                0x0000000008050778                fprintf@@GLIBC_2.0
                0x0000000008050788                strstr@@GLIBC_2.0
                0x0000000008050798                time@@GLIBC_2.0
                0x00000000080507a8                XQueryBestStipple
                0x00000000080507b8                XFlush
                0x00000000080507c8                XFreeExtensionList
                0x00000000080507d8                XSetTSOrigin
                0x00000000080507e8                execve@@GLIBC_2.0
                0x00000000080507f8                XDestroyImage
                0x0000000008050808                XFillArcs
                0x0000000008050818                readline
                0x0000000008050828                XQueryColor
                0x0000000008050838                XBlackPixel
                0x0000000008050848                XLookupColor
                0x0000000008050858                XTextWidth
                0x0000000008050868                sigprocmask@@GLIBC_2.0
                0x0000000008050878                XSync
                0x0000000008050888                __gmpz_sub
                0x0000000008050898                XSetSelectionOwner
                0x00000000080508a8                XStoreColors
                0x00000000080508b8                XMaskEvent
                0x00000000080508c8                __gmpz_mul_si
                0x00000000080508d8                XSendEvent
                0x00000000080508e8                __gmpz_fits_slong_p
                0x00000000080508f8                XChangeGC
                0x0000000008050908                XGetDefault
                0x0000000008050918                XWarpPointer
                0x0000000008050928                XWithdrawWindow
                0x0000000008050938                XGetAtomName
                0x0000000008050948                gethostname@@GLIBC_2.0
                0x0000000008050958                XPutImage
                0x0000000008050968                XProtocolVersion
                0x0000000008050978                setrlimit@@GLIBC_2.2
                0x0000000008050988                XFillPolygon
                0x0000000008050998                XNextRequest
                0x00000000080509a8                XGetFontPath
                0x00000000080509b8                __gmpz_init
                0x00000000080509c8                XBlackPixelOfScreen
                0x00000000080509d8                XCopyColormapAndFree
                0x00000000080509e8                XPeekEvent
                0x00000000080509f8                XLoadQueryFont
                0x0000000008050a08                XTextExtents
                0x0000000008050a18                rmdir@@GLIBC_2.0
                0x0000000008050a28                XSetNormalHints
                0x0000000008050a38                XMinCmapsOfScreen
                0x0000000008050a48                XParseColor
                0x0000000008050a58                XKeycodeToKeysym
                0x0000000008050a68                xdr_double@@GLIBC_2.0
                0x0000000008050a78                XDeleteContext
                0x0000000008050a88                sleep@@GLIBC_2.0
                0x0000000008050a98                sigaddset@@GLIBC_2.0
                0x0000000008050aa8                on_exit@@GLIBC_2.0
                0x0000000008050ab8                readlink@@GLIBC_2.0
                0x0000000008050ac8                XSetWMClientMachine
                0x0000000008050ad8                strncasecmp@@GLIBC_2.0
                0x0000000008050ae8                XIntersectRegion
                0x0000000008050af8                XFreeStringList
                0x0000000008050b08                XAllocColorPlanes
                0x0000000008050b18                XAddToExtensionList
                0x0000000008050b28                XDisplayPlanes
                0x0000000008050b38                XInstallColormap
                0x0000000008050b48                XFindOnExtensionList
                0x0000000008050b58                XSetWindowBorderWidth
                0x0000000008050b68                XDisplayCells
                0x0000000008050b78                XGetWMClientMachine
                0x0000000008050b88                __ctype_tolower_loc@@GLIBC_2.3
                0x0000000008050b98                strcat@@GLIBC_2.0
                0x0000000008050ba8                XDefineCursor
                0x0000000008050bb8                XDrawImageString
                0x0000000008050bc8                send@@GLIBC_2.0
                0x0000000008050bd8                XGetImage
                0x0000000008050be8                XGetScreenSaver
                0x0000000008050bf8                XDestroyRegion
                0x0000000008050c08                getcwd@@GLIBC_2.0
                0x0000000008050c18                XDrawArc
                0x0000000008050c28                XSetWindowBackgroundPixmap
                0x0000000008050c38                XAllocColor
                0x0000000008050c48                XFetchName
                0x0000000008050c58                XGetCommand
                0x0000000008050c68                XCopyPlane
                0x0000000008050c78                XGetModifierMapping
                0x0000000008050c88                XGetWMName
                0x0000000008050c98                XSetPlaneMask
                0x0000000008050ca8                XInternAtom
                0x0000000008050cb8                log@@GLIBC_2.0
                0x0000000008050cc8                XGrabKeyboard
                0x0000000008050cd8                sinf@@GLIBC_2.0
                0x0000000008050ce8                XSubImage
                0x0000000008050cf8                puts@@GLIBC_2.0
                0x0000000008050d08                XDefaultVisualOfScreen
                0x0000000008050d18                fork@@GLIBC_2.0
                0x0000000008050d28                XQueryPointer
                0x0000000008050d38                XAllocIconSize
                0x0000000008050d48                XUndefineCursor
                0x0000000008050d58                XGetVisualInfo
                0x0000000008050d68                __gmpz_tstbit
                0x0000000008050d78                setsockopt@@GLIBC_2.0
                0x0000000008050d88                XVisualIDFromVisual
                0x0000000008050d98                XWriteBitmapFile
                0x0000000008050da8                XKeysymToKeycode
                0x0000000008050db8                fcntl@@GLIBC_2.0
                0x0000000008050dc8                XSetCommand
                0x0000000008050dd8                XAddExtension
                0x0000000008050de8                XCellsOfScreen
                0x0000000008050df8                XDoesBackingStore
                0x0000000008050e08                XPlanesOfScreen
                0x0000000008050e18                XSetRGBColormaps
                0x0000000008050e28                XGrabButton
                0x0000000008050e38                XDoesSaveUnders
                0x0000000008050e48                XGetSubImage
                0x0000000008050e58                XGetWindowAttributes
                0x0000000008050e68                XSetClipRectangles
                0x0000000008050e78                XDefaultDepth
                0x0000000008050e88                __fxstat@@GLIBC_2.0
                0x0000000008050e98                XNoOp
                0x0000000008050ea8                XFetchBytes
                0x0000000008050eb8                XSetStandardProperties
                0x0000000008050ec8                memchr@@GLIBC_2.0
                0x0000000008050ed8                strncmp@@GLIBC_2.0
                0x0000000008050ee8                XChangeProperty
                0x0000000008050ef8                XAllocSizeHints
                0x0000000008050f08                XCheckWindowEvent
                0x0000000008050f18                XGrabKey
                0x0000000008050f28                personality@@GLIBC_2.0
                0x0000000008050f38                XSetErrorHandler
                0x0000000008050f48                XFreePixmap
                0x0000000008050f58                XNewModifiermap
                0x0000000008050f68                _IO_putc@@GLIBC_2.0
                0x0000000008050f78                munmap@@GLIBC_2.0
                0x0000000008050f88                XGetKeyboardControl
                0x0000000008050f98                XDrawString16
                0x0000000008050fa8                XGetTransientForHint
                0x0000000008050fb8                XGetWMProtocols
                0x0000000008050fc8                xdr_array@@GLIBC_2.0
                0x0000000008050fd8                XCirculateSubwindows
                0x0000000008050fe8                XGetKeyboardMapping
                0x0000000008050ff8                XGetPointerControl
                0x0000000008051008                __gmpz_realloc
                0x0000000008051018                XMaxRequestSize
                0x0000000008051028                tan@@GLIBC_2.0
                0x0000000008051038                fread@@GLIBC_2.0
                0x0000000008051048                XDefaultScreenOfDisplay
                0x0000000008051058                XStringListToTextProperty
                0x0000000008051068                XSetFillRule
                0x0000000008051078                XFetchBuffer
                0x0000000008051088                XDrawPoints
                0x0000000008051098                XReparentWindow
                0x00000000080510a8                XCreatePixmap
                0x00000000080510b8                snprintf@@GLIBC_2.0
                0x00000000080510c8                kill@@GLIBC_2.0
                0x00000000080510d8                XrmUniqueQuark
                0x00000000080510e8                times@@GLIBC_2.0
                0x00000000080510f8                XMapRaised
                0x0000000008051108                XUngrabButton
                0x0000000008051118                add_history
                0x0000000008051128                strcspn@@GLIBC_2.0
                0x0000000008051138                XUninstallColormap
                0x0000000008051148                XAddHost
                0x0000000008051158                sin@@GLIBC_2.0
                0x0000000008051168                XAddPixel
                0x0000000008051178                getpeername@@GLIBC_2.0
                0x0000000008051188                gethostbyname@@GLIBC_2.0
                0x0000000008051198                XUnionRectWithRegion
                0x00000000080511a8                XDefaultColormapOfScreen
                0x00000000080511b8                XGeometry
                0x00000000080511c8                XSetClipOrigin
                0x00000000080511d8                getpwnam@@GLIBC_2.0
                0x00000000080511e8                XSetDashes
                0x00000000080511f8                strcmp@@GLIBC_2.0
                0x0000000008051208                XMaxCmapsOfScreen
                0x0000000008051218                XQueryTree
                0x0000000008051228                setenv@@GLIBC_2.0
                0x0000000008051238                xdrstdio_create@@GLIBC_2.0
                0x0000000008051248                XStoreColor
                0x0000000008051258                exit@@GLIBC_2.0
                0x0000000008051268                XGetSelectionOwner
                0x0000000008051278                XEventsQueued
                0x0000000008051288                XDeleteModifiermapEntry
                0x0000000008051298                pclose@@GLIBC_2.1
                0x00000000080512a8                XFreeFontPath
                0x00000000080512b8                XSetWMHints
                0x00000000080512c8                XSetWindowColormap
                0x00000000080512d8                logf@@GLIBC_2.0
                0x00000000080512e8                sincos@@GLIBC_2.1
                0x00000000080512f8                XPending
                0x0000000008051308                XKillClient
                0x0000000008051318                XSetScreenSaver
                0x0000000008051328                XChangeWindowAttributes
                0x0000000008051338                __gmpz_add_ui
                0x0000000008051348                XSetArcMode
                0x0000000008051358                XParseGeometry
 *(.iplt)
 .iplt          0x0000000000000000        0x0 /usr/lib/gcc/i486-linux-gnu/4.4.4/../../../../lib/crt1.o

.text           0x0000000008051370   0x291fcc
 *(.text.unlikely .text.*_unlikely)
 *(.text .stub .text.* .gnu.linkonce.t.*)
 .text          0x0000000008051370       0x24 /usr/lib/gcc/i486-linux-gnu/4.4.4/../../../../lib/crt1.o
                0x0000000008051370                _start
 .text          0x0000000008051394        0x0 /usr/lib/gcc/i486-linux-gnu/4.4.4/../../../../lib/crti.o
 *fill*         0x0000000008051394        0xc 90909090
 .text          0x00000000080513a0       0x83 /usr/lib/gcc/i486-linux-gnu/4.4.4/crtbegin.o
 *fill*         0x0000000008051423        0xd 90909090
 .text          0x0000000008051430       0x27 ./user-init.o
                0x0000000008051430                user_init
                0x0000000008051450                user_match
 *fill*         0x0000000008051457        0x9 90909090
 .text          0x0000000008051460     0x1d31 /usr/lib/gcl-2.6.7/unixport//libansi_gcl.a(main.o)
                0x0000000008051480                fLidentity
                0x00000000080514a0                fLlisp_implementation_version
                0x00000000080514c0                fSgcl_compile_time
                0x00000000080514e0                fLlisp_implementation_version_init
                0x0000000008051510                fLidentity_init
                0x0000000008051540                fLquit_init
                0x0000000008051570                fLbye_init
                0x00000000080515a0                fSldb1
                0x00000000080515f0                Lldb1
                0x0000000008051610                Lgcl_compile_time
                0x0000000008051630                Lidentity
                0x0000000008051650                Lby
                0x0000000008051670                fSldb1_init
                0x00000000080516a0                fSgcl_compile_time_init
                0x0000000008051800                siLinit_system
                0x0000000008051840                fLbye
                0x0000000008051860                fLquit
                0x0000000008051970                install_segmentation_catcher
                0x0000000008051990                error
                0x0000000008051a10                siLreset_stack_limits
                0x0000000008051ba0                segmentation_catcher
                0x0000000008051bc0                ihs_overflow
                0x0000000008051c20                frs_overflow
                0x0000000008051c80                bds_overflow
                0x0000000008051ce0                vs_overflow
                0x0000000008052430                main
 *fill*         0x0000000008053191        0xf 90909090
 .text          0x00000000080531a0     0x3598 /usr/lib/gcl-2.6.7/unixport//libansi_gcl.a(package.o)
                0x00000000080531a0                pack_hash
                0x0000000008053360                gcl_init_package_function
                0x00000000080536e0                siLpackage_external
                0x00000000080537a0                siLpackage_internal
                0x0000000008053860                Llist_all_packages
                0x00000000080539b0                find_package
                0x0000000008053af0                Lpackage_used_by_list
                0x0000000008053b70                Lpackage_use_list
                0x0000000008053bf0                Lpackage_nicknames
                0x0000000008053c70                Lpackage_name
                0x0000000008054130                gcl_init_package
                0x0000000008054300                Lrename_package
                0x00000000080545b0                Lfind_package
                0x00000000080545f0                Ldelete_package
                0x0000000008054800                Lmake_package
                0x0000000008054970                find_symbol
                0x0000000008054c80                Lin_package
                0x0000000008055310                import
                0x00000000080553a0                export
                0x0000000008055510                intern
                0x00000000080557c0                current_package
                0x0000000008055810                Lunuse_package
                0x0000000008055980                Luse_package
                0x0000000008055af0                Lshadow
                0x0000000008055c60                Lshadowing_import
                0x0000000008055df0                Limport
                0x0000000008055f90                Lunexport
                0x0000000008056120                Lexport
                0x00000000080562c0                Lunintern
                0x00000000080564e0                Lfind_symbol
                0x0000000008056600                Lintern
 *fill*         0x0000000008056738        0x8 90909090
 .text          0x0000000008056740      0x771 /usr/lib/gcl-2.6.7/unixport//libansi_gcl.a(gcl_readline.o)
                0x0000000008056750                gcl_init_readline_function
                0x0000000008056c20                rl_ungetc_em
                0x0000000008056c80                rl_putc_em
                0x0000000008056d80                rl_getc_em
 *fill*         0x0000000008056eb1        0xf 90909090
 .text          0x0000000008056ec0     0x195f /usr/lib/gcl-2.6.7/unixport//libansi_gcl.a(symbol.o)
                0x0000000008056ec0                keywordp
                0x0000000008056ef0                gcl_init_symbol
                0x0000000008056fb0                Lkeywordp
                0x0000000008057010                siLset_symbol_plist
                0x0000000008057060                Lsymbol_package
                0x00000000080570b0                Lsymbol_plist
                0x0000000008057100                getf
                0x0000000008057180                Lgetf
                0x0000000008057220                Lget
                0x00000000080572c0                Lget_properties
                0x0000000008057520                remf
                0x00000000080576b0                siLrem_f
                0x0000000008057720                Lremprop
                0x00000000080577b0                remprop
                0x00000000080577f0                get
                0x0000000008057840                putf
                0x0000000008057910                siLputprop
                0x0000000008057990                siLput_f
                0x00000000080579f0                symbol_name
                0x0000000008057b00                Lsymbol_name
                0x0000000008057b40                sputprop
                0x0000000008057b90                putprop
                0x0000000008057be0                symbol_value
                0x0000000008057c10                make_symbol
                0x0000000008057d00                Lcopy_symbol
                0x0000000008057e10                Lmake_symbol
                0x0000000008057e60                set_up_string_register
                0x0000000008057e90                Lgentemp
                0x0000000008058080                Lgensym
                0x0000000008058350                make_keyword
                0x0000000008058420                make_si_ordinary
                0x0000000008058540                gcl_init_symbol_function
                0x00000000080586d0                make_si_constant
                0x00000000080586f0                make_si_special
                0x0000000008058710                make_ordinary
                0x00000000080587e0                make_constant
                0x0000000008058800                make_special
 *fill*         0x000000000805881f        0x1 90909090
 .text          0x0000000008058820      0x3e7 /usr/lib/gcl-2.6.7/unixport//libansi_gcl.a(makefun.o)
                0x0000000008058820                fSinvoke
                0x0000000008058850                fSset_key_struct
                0x0000000008058890                fSinitmacro
                0x00000000080588c0                MakeAfun
                0x0000000008058930                LISP_makefun
                0x00000000080589a0                SI_makefun
                0x0000000008058a10                fSinvoke_init
                0x0000000008058a40                fSset_key_struct_init
                0x0000000008058a70                fSinitmacro_init
                0x0000000008058aa0                fSinitfun_init
                0x0000000008058ad0                fSinitfun
 *fill*         0x0000000008058c07        0x9 90909090
 .text          0x0000000008058c10     0x1dcc /usr/lib/gcl-2.6.7/unixport//libansi_gcl.a(string.o)
                0x0000000008058c10                string_eq
                0x0000000008058c70                gcl_init_string_function
                0x0000000008059010                string_equal
                0x0000000008059220                get_string_start_end
                0x00000000080593d0                Lnstring_capitalize
                0x00000000080593f0                Lnstring_downcase
                0x0000000008059410                Lnstring_upcase
                0x0000000008059430                Lchar
                0x00000000080594d0                siLchar_set
                0x0000000008059590                copy_simple_string
                0x0000000008059650                alloc_simple_string
                0x0000000008059690                Lmake_string
                0x0000000008059810                coerce_to_string
                0x0000000008059990                Lstring
                0x0000000008059b30                Lstring_capitalize
                0x0000000008059b50                Lstring_downcase
                0x0000000008059b70                Lstring_upcase
                0x0000000008059e90                Lstring_not_equal
                0x0000000008059eb0                Lstring_not_lessp
                0x0000000008059ed0                Lstring_not_greaterp
                0x0000000008059ef0                Lstring_greaterp
                0x0000000008059f10                Lstring_lessp
                0x000000000805a1e0                Lstring_neq
                0x000000000805a200                Lstring_ge
                0x000000000805a220                Lstring_le
                0x000000000805a240                Lstring_g
                0x000000000805a260                Lstring_l
                0x000000000805a280                Lstring_equal
                0x000000000805a460                Lstring_eq
                0x000000000805a8c0                Lstring_right_trim
                0x000000000805a8e0                Lstring_left_trim
                0x000000000805a900                Lstring_trim
                0x000000000805a920                make_simple_string
 *fill*         0x000000000805a9dc        0x4 90909090
 .text          0x000000000805a9e0     0x50fc /usr/lib/gcl-2.6.7/unixport//libansi_gcl.a(print.o)
                0x000000000805a9e0                write_str
                0x000000000805ac10                gcl_init_print_function
                0x000000000805ad90                princ_char
                0x000000000805ae40                writec_PRINTstream
                0x000000000805ae90                princ_str
                0x000000000805af10                write_string
                0x000000000805afb0                terpri
                0x000000000805b040                gcl_init_print
                0x000000000805b100                Lwrite_byte
                0x000000000805b190                Lclear_output
                0x000000000805b240                Lforce_output
                0x000000000805b300                Lfinish_output
                0x000000000805b3c0                Lterpri
                0x000000000805b430                Lfresh_line
                0x000000000805bc10                cleanupPRINT
                0x000000000805bc40                Lwrite_line
                0x000000000805bdc0                Lwrite_string
                0x000000000805bf30                Lwrite_char
                0x000000000805c1d0                setupPRINTdefault
                0x000000000805cc90                edit_double
                0x000000000805d1a0                write_object
                0x000000000805ed70                prin1
                0x000000000805eea0                Lprin1
                0x000000000805ef20                princ
                0x000000000805f090                pp
                0x000000000805f0c0                print
                0x000000000805f110                Lprint
                0x000000000805f190                Lprinc
                0x000000000805f210                Lpprint
                0x000000000805f3b0                Lwrite
 *fill*         0x000000000805fadc        0x4 90909090
 .text          0x000000000805fae0      0xb4c /usr/lib/gcl-2.6.7/unixport//libansi_gcl.a(macros.o)
                0x000000000805fae0                gcl_init_macros
                0x00000000080600b0                macro_expand
                0x00000000080602b0                Lmacroexpand
                0x00000000080602d0                fLmacroexpand_init
                0x0000000008060300                Imacro_expand1
                0x0000000008060370                Lmacroexpand_1
                0x00000000080604f0                fLmacroexpand
 *fill*         0x000000000806062c        0x4 90909090
 .text          0x0000000008060630      0x664 /usr/lib/gcl-2.6.7/unixport//libansi_gcl.a(multival.o)
                0x0000000008060630                Lvalues
                0x0000000008060650                gcl_init_multival
                0x0000000008060c00                Lvalues_list
 *fill*         0x0000000008060c94        0xc 90909090
 .text          0x0000000008060ca0     0x5195 /usr/lib/gcl-2.6.7/unixport//libansi_gcl.a(file.o)
                0x0000000008060ce0                end_of_stream
                0x0000000008060d10                gcl_init_file_function
                0x0000000008061010                Lstreamp
                0x0000000008061060                siLoutput_stream_string
                0x0000000008061170                siLmake_string_output_stream_from_string
                0x0000000008061210                make_string_input_stream
                0x0000000008061250                make_two_way_stream
                0x0000000008061290                gcl_init_file
                0x0000000008061720                coerce_stream
                0x0000000008061be0                Lfile_length
                0x0000000008061c80                Lstream_element_type
                0x0000000008061ec0                Loutput_stream_p
                0x0000000008061fc0                Linput_stream_p
                0x0000000008062030                Lmake_echo_stream
                0x0000000008062110                Lmake_two_way_stream
                0x00000000080621e0                file_column
                0x00000000080623b0                Lget_output_stream_string
                0x0000000008062440                Lmake_concatenated_stream
                0x0000000008062530                Lmake_broadcast_stream
                0x0000000008062620                Lmake_synonym_stream
                0x0000000008062690                file_position
                0x00000000080627d0                make_string_output_stream
                0x00000000080628d0                unreadc_stream
                0x0000000008062b10                listen_stream
                0x0000000008062d80                close_stream
                0x00000000080636e0                Lclose
                0x0000000008063860                flush_stream
                0x0000000008063a30                stream_at_end
                0x0000000008063c80                writec_stream
                0x0000000008063ff0                file_position_set
                0x00000000080640d0                Lfile_position
                0x0000000008064250                writestr_stream
                0x0000000008064290                readc_stream
                0x0000000008064560                siLcopy_stream
                0x0000000008064610                setup_stream_buffer
                0x0000000008064660                open_stream
                0x0000000008064e00                read_fasl_data
                0x0000000008065d60                load
 *fill*         0x0000000008065e35        0xb 90909090
 .text          0x0000000008065e40      0xe8c /usr/lib/gcl-2.6.7/unixport//libansi_gcl.a(sys_ansi_gcl.o)
                0x0000000008066070                gcl_init_cmp_anon
                0x0000000008066260                gcl_init_system
                0x0000000008066c70                gcl_init_init
 *fill*         0x0000000008066ccc        0x4 90909090
 .text          0x0000000008066cd0     0x170d /usr/lib/gcl-2.6.7/unixport//libansi_gcl.a(sfasl.o)
                0x0000000008066cd0                gcl_init_sfasl
                0x0000000008066cf0                use_symbols
                0x00000000080672e0                build_symbol_table
                0x0000000008067af0                seek_to_end_ofile
                0x0000000008067c50                fasload
 *fill*         0x00000000080683dd        0x3 90909090
 .text          0x00000000080683e0     0x3490 /usr/lib/gcl-2.6.7/unixport//libansi_gcl.a(eval.o)
                0x00000000080683e0                fLconstantp
                0x0000000008068430                gcl_init_eval
                0x00000000080684d0                funcall_cfun
                0x00000000080685f0                Lconstantp
                0x0000000008068610                Leval
                0x0000000008068630                Lapply
                0x0000000008068650                Lfuncall
                0x0000000008068670                fLconstantp_init
                0x00000000080686a0                fLeval_init
                0x00000000080686d0                fLapply_init
                0x0000000008068700                fLfuncall_init
                0x0000000008068730                fLapply
                0x0000000008068860                fLfuncall
                0x0000000008068ee0                funcall
                0x0000000008069660                fcalln1
                0x0000000008069a70                funcall_with_catcher
                0x0000000008069b70                super_funcall
                0x0000000008069bd0                ifuncall3
                0x0000000008069c30                ifuncall2
                0x0000000008069c90                ifuncall1
                0x0000000008069cf0                Lapplyhook
                0x0000000008069f10                simple_symlispcall
                0x000000000806a150                simple_lispcall
                0x000000000806a390                symlispcall_no_event
                0x000000000806a510                symlispcall
                0x000000000806a750                lispcall_no_event
                0x000000000806a8d0                lispcall
                0x000000000806ab00                funcall_no_event
                0x000000000806acb0                eval
                0x000000000806b2f0                ieval
                0x000000000806b330                Levalhook
                0x000000000806b4b0                fLeval
                0x000000000806b510                Ieval
                0x000000000806b530                super_funcall_no_event
 .text          0x000000000806b870     0x770a /usr/lib/gcl-2.6.7/unixport//libansi_gcl.a(array.o)
                0x000000000806b870                adjust_displaced
                0x000000000806b8c0                gcl_init_array_function
                0x000000000806b8e0                fSdisplaced_array_p
                0x000000000806b910                fLadjustable_array_p
                0x000000000806b930                fLarray_has_fill_pointer_p
                0x000000000806b980                fLarray_total_size
                0x000000000806b9c0                fLarray_rank
                0x000000000806ba10                fSget_aelttype
                0x000000000806baf0                fLarray_element_type
                0x000000000806bc80                fLarray_dimension
                0x000000000806bd30                fSfill_pointer_set
                0x000000000806be10                gset
                0x000000000806c030                fLfill_pointer
                0x000000000806c090                fSaset_by_cursor_init
                0x000000000806c0c0                fSreplace_array_init
                0x000000000806c0f0                fSdisplaced_array_p_init
                0x000000000806c120                fSfill_pointer_set_init
                0x000000000806c150                fScopy_array_portion_init
                0x000000000806c180                fSmake_array1_init
                0x000000000806c1b0                fSmake_vector_init
                0x000000000806c1e0                fSget_aelttype_init
                0x000000000806c210                fSmake_vector1_init
                0x000000000806c240                fSsvset_init
                0x000000000806c270                fSaset_init
                0x000000000806c2a0                fSaset1_init
                0x000000000806c2d0                fLarray_total_size_init
                0x000000000806c300                fLarray_dimension_init
                0x000000000806c330                fLarray_rank_init
                0x000000000806c360                fLadjustable_array_p_init
                0x000000000806c390                fLarray_element_type_init
                0x000000000806c3c0                fLarray_has_fill_pointer_p_init
                0x000000000806c3f0                fLfill_pointer_init
                0x000000000806c420                fLrow_major_aref_init
                0x000000000806c450                fLsvref_init
                0x000000000806c480                fLaref_init
                0x000000000806c5e0                fSreplace_array
                0x000000000806c730                array_allocself
                0x000000000806c930                siLreplace_array
                0x000000000806c950                Larray_dimension
                0x000000000806c970                Larray_rank
                0x000000000806c990                siLdisplaced_array_p
                0x000000000806c9b0                Ladjustable_array_p
                0x000000000806c9d0                Larray_element_type
                0x000000000806c9f0                Lfill_pointer
                0x000000000806ca10                siLfill_pointer_set
                0x000000000806ca30                siLmake_vector
                0x000000000806ca50                siLsvset
                0x000000000806ca70                siLaset
                0x000000000806ca90                Lsvref
                0x000000000806cab0                Laref
                0x000000000806cad0                fSsvset
                0x000000000806ccc0                fSmake_array1
                0x000000000806ce20                fSmake_vector1
                0x000000000806d000                fSmake_vector1_1
                0x000000000806d020                fSmake_vector
                0x000000000806d0a0                fSaset1
                0x000000000806d310                fSaset
                0x000000000806d520                fSaset_by_cursor
                0x00000000080728f0                aset1
                0x0000000008072900                fLrow_major_aref
                0x0000000008072b00                fScopy_array_portion
                0x0000000008072d30                fLaref
                0x0000000008072ef0                fLsvref
 *fill*         0x0000000008072f7a        0x6 90909090
 .text          0x0000000008072f80      0x485 /usr/lib/gcl-2.6.7/unixport//libansi_gcl.a(lex.o)
                0x0000000008072f80                gcl_init_lex
                0x0000000008072fe0                lex_block_sch
                0x00000000080730a0                assoc_eq
                0x0000000008073150                lex_tag_sch
                0x0000000008073210                lex_block_bind
                0x0000000008073290                lex_tag_bind
                0x0000000008073310                lex_macro_bind
                0x0000000008073390                lex_fun_bind
 *fill*         0x0000000008073405        0xb 90909090
 .text          0x0000000008073410      0x644 /usr/lib/gcl-2.6.7/unixport//libansi_gcl.a(earith.o)
                0x0000000008073410                gcl_init_cmac
                0x0000000008073490                siLcdifference
                0x00000000080734b0                siLctimes
                0x00000000080734d0                siLcplus
                0x00000000080734f0                siLcmod
                0x0000000008073510                fScdifference_init
                0x0000000008073540                fSctimes_init
                0x0000000008073570                fScplus_init
                0x00000000080735a0                fScmod_init
                0x00000000080735d0                cmod
                0x0000000008073730                fScmod
                0x0000000008073750                cplus
                0x0000000008073830                fScplus
                0x0000000008073860                cdifference
                0x0000000008073940                fScdifference
                0x0000000008073970                ctimes
                0x0000000008073a30                fSctimes
 *fill*         0x0000000008073a54        0xc 90909090
 .text          0x0000000008073a60      0xe96 /usr/lib/gcl-2.6.7/unixport//libansi_gcl.a(toplevel.o)
                0x0000000008073a60                gcl_init_toplevel
 *fill*         0x00000000080748f6        0xa 90909090
 .text          0x0000000008074900      0xb77 /usr/lib/gcl-2.6.7/unixport//libansi_gcl.a(nsocket.o)
                0x0000000008074900                getCharGclSocket
                0x0000000008074af0                tcpCloseSocket
                0x0000000008074b00                TcpOutputProc
                0x0000000008074b50                ungetCharGclSocket
                0x0000000008074ba0                getOneChar
                0x0000000008074d70                fSset_blocking
                0x0000000008074f20                fSset_blocking_init
                0x0000000008074f50                fSgetsockname_init
                0x0000000008074f80                fSgetpeername_init
                0x0000000008074fb0                fSgetsockname
                0x00000000080750a0                fSgetpeername
                0x0000000008075230                CreateSocket
 *fill*         0x0000000008075477        0x9 90909090
 .text          0x0000000008075480     0x5935 /usr/lib/gcl-2.6.7/unixport//libansi_gcl.a(list.o)
                0x0000000008075490                on_stack_list_vector_new
                0x00000000080755b0                on_stack_make_list
                0x0000000008075620                member_eq
                0x0000000008075660                delete_eq
                0x0000000008075690                gcl_init_list_function
                0x0000000008075f10                Lrassoc_if_not
                0x0000000008075f30                Lrassoc_if
                0x0000000008075f50                Lassoc_if_not
                0x0000000008075f70                Lassoc_if
                0x0000000008075f90                Lreconc
                0x0000000008076020                Lnconc
                0x0000000008076180                nconc
                0x00000000080762d0                Lendp
                0x0000000008076350                Lcdr
                0x00000000080763b0                Lcar
                0x0000000008076410                kar
                0x0000000008076440                cdr
                0x0000000008076480                Lcddddr
                0x00000000080764e0                Lcdddr
                0x0000000008076530                Lcddr
                0x0000000008076580                cddddr
                0x00000000080765b0                cdddr
                0x00000000080765e0                cddr
                0x0000000008076600                car
                0x0000000008076640                fLfirst
                0x0000000008076660                Lcdddar
                0x00000000080766c0                Lcddadr
                0x0000000008076720                Lcddaar
                0x0000000008076780                Lcdaddr
                0x00000000080767e0                Lcdadar
                0x0000000008076840                Lcdaadr
                0x00000000080768a0                Lcdaaar
                0x0000000008076900                Lcadddr
                0x0000000008076960                Lcaddar
                0x00000000080769c0                Lcadadr
                0x0000000008076a20                Lcadaar
                0x0000000008076a80                Lcaaddr
                0x0000000008076ae0                Lcaadar
                0x0000000008076b40                Lcaaadr
                0x0000000008076ba0                Lcaaaar
                0x0000000008076c00                Lcddar
                0x0000000008076c50                Lcdadr
                0x0000000008076ca0                Lcdaar
                0x0000000008076cf0                Lcaddr
                0x0000000008076d40                Lcadar
                0x0000000008076d90                Lcaadr
                0x0000000008076de0                Lcaaar
                0x0000000008076e30                Lcdar
                0x0000000008076e80                Lcadr
                0x0000000008076ed0                Lcaar
                0x0000000008076f20                cdddar
                0x0000000008076f50                cddadr
                0x0000000008076f80                cddaar
                0x0000000008076fb0                cdaddr
                0x0000000008076fe0                cdadar
                0x0000000008077010                cdaadr
                0x0000000008077040                cdaaar
                0x0000000008077070                cadddr
                0x00000000080770a0                caddar
                0x00000000080770d0                cadadr
                0x0000000008077100                cadaar
                0x0000000008077130                caaddr
                0x0000000008077160                caadar
                0x0000000008077190                caaadr
                0x00000000080771c0                caaaar
                0x00000000080771f0                cddar
                0x0000000008077220                cdadr
                0x0000000008077250                cdaar
                0x0000000008077280                caddr
                0x00000000080772b0                cadar
                0x00000000080772e0                caadr
                0x0000000008077310                caaar
                0x0000000008077340                cdar
                0x0000000008077360                cadr
                0x0000000008077380                caar
                0x0000000008077aa0                Lrassoc
                0x0000000008077ac0                Lassoc
                0x0000000008077ae0                Lmember
                0x0000000008077d00                Lmember_if_not
                0x0000000008077d50                Lmember_if
                0x0000000008077da0                Lnsublis
                0x0000000008077f80                Lnsubst
                0x0000000008078170                Lnsubst_if_not
                0x00000000080781c0                Lnsubst_if
                0x0000000008078210                Ltree_equal
                0x0000000008078400                check_alist
                0x00000000080784e0                Ltailp
                0x0000000008078760                Lacons
                0x00000000080787d0                Ladjoin
                0x0000000008078890                sublis1
                0x0000000008078940                Lcopy_alist
                0x0000000008078b20                make_list
                0x0000000008078b60                copy_list
                0x0000000008078bf0                Lcopy_list
                0x0000000008078c30                append
                0x0000000008078db0                Lappend
                0x0000000008078e10                list_vector_new
                0x0000000008078e90                Lrplacd
                0x0000000008078ee0                Lrplaca
                0x0000000008078f30                nthcdr
                0x0000000008078fe0                nth
                0x0000000008079180                Llist_length
                0x0000000008079370                fLnth
                0x0000000008079430                fLtenth
                0x0000000008079450                fLninth
                0x0000000008079470                fLeighth
                0x0000000008079490                fLseventh
                0x00000000080794b0                fLsixth
                0x00000000080794d0                fLfifth
                0x00000000080794f0                fLfourth
                0x0000000008079510                fLthird
                0x0000000008079530                fLsecond
                0x0000000008079550                Lnbutlast
                0x00000000080796f0                Lmake_list
                0x00000000080797e0                Llast
                0x0000000008079970                Lnthcdr
                0x00000000080799d0                Lcons
                0x0000000008079a20                stack_cons
                0x0000000008079a60                Lpairlis
                0x0000000008079ec0                Lsublis
                0x000000000807a160                Lsubst
                0x000000000807a360                Lsubst_if_not
                0x000000000807a3b0                Lsubst_if
                0x000000000807a400                Lldiff
                0x000000000807a5b0                Lbutlast
                0x000000000807a7a0                Lrevappend
                0x000000000807a910                Lcopy_tree
                0x000000000807a960                LlistA
                0x000000000807a9b0                Llist
                0x000000000807a9f0                fLtenth_init
                0x000000000807aa20                fLninth_init
                0x000000000807aa50                fLeighth_init
                0x000000000807aa80                fLseventh_init
                0x000000000807aab0                fLsixth_init
                0x000000000807aae0                fLfifth_init
                0x000000000807ab10                fLfourth_init
                0x000000000807ab40                fLthird_init
                0x000000000807ab70                fLsecond_init
                0x000000000807aba0                fLfirst_init
                0x000000000807abd0                fLnth_init
                0x000000000807ac00                Lnth
                0x000000000807ac20                listA
                0x000000000807aca0                list
 *fill*         0x000000000807adb5        0xb 90909090
 .text          0x000000000807adc0     0x11ca /usr/lib/gcl-2.6.7/unixport//libansi_gcl.a(structure.o)
                0x000000000807adc0                gcl_init_structure_function
                0x000000000807af20                siLstructurep
                0x000000000807b1b0                siLlist_nth
                0x000000000807b330                siLrplaca_nthcdr
                0x000000000807b4c0                siLstructure_name
                0x000000000807b520                structure_set
                0x000000000807b6e0                siLstructure_set
                0x000000000807b8e0                siLmake_structure
                0x000000000807bb70                structure_ref
                0x000000000807bde0                siLstructure_ref
                0x000000000807be40                structure_to_list
 *fill*         0x000000000807bf8a        0x6 90909090
 .text          0x000000000807bf90     0x12cb /usr/lib/gcl-2.6.7/unixport//libansi_gcl.a(unixfsys.o)
                0x000000000807bf90                gcl_init_unixfsys
                0x000000000807c120                Ldelete_file
                0x000000000807c140                fLdelete_file_init
                0x000000000807c170                fSsetenv
                0x000000000807c1d0                fSsetenv_init
                0x000000000807c200                fSstat_init
                0x000000000807c230                file_len
                0x000000000807c270                backup_fopen
                0x000000000807c2f0                fopen_not_dir
                0x000000000807c350                getwd
                0x000000000807c370                coerce_to_filename
                0x000000000807c620                Lfile_author
                0x000000000807c6f0                Lfile_write_date
                0x000000000807c7b0                fLdelete_file
                0x000000000807c850                fSstat
                0x000000000807c970                file_exists
                0x000000000807ca60                truename
                0x000000000807cde0                Lprobe_file
                0x000000000807ce60                Ltruename
                0x000000000807ceb0                Ldirectory
                0x000000000807d0f0                Lrename_file
 *fill*         0x000000000807d25b        0x5 90909090
 .text          0x000000000807d260      0x3d2 /usr/lib/gcl-2.6.7/unixport//libansi_gcl.a(unixsys.o)
                0x000000000807d260                gcl_init_unixsys
                0x000000000807d280                un_mmap
                0x000000000807d2c0                get_mmap
                0x000000000807d480                fSgetpid
                0x000000000807d4c0                fSgetpid_init
                0x000000000807d4f0                msystem
 *fill*         0x000000000807d632        0xe 90909090
 .text          0x000000000807d640     0x1b74 /usr/lib/gcl-2.6.7/unixport//libansi_gcl.a(predicate.o)
                0x000000000807d640                fLnull
                0x000000000807d670                fLnot
                0x000000000807d6a0                fLsymbolp
                0x000000000807d6d0                fLatom
                0x000000000807d700                fLconsp
                0x000000000807d730                fLlistp
                0x000000000807d770                fLnumberp
                0x000000000807d7a0                fLintegerp
                0x000000000807d7d0                fLrationalp
                0x000000000807d800                fLrealp
                0x000000000807d830                fLfloatp
                0x000000000807d860                fLcomplexp
                0x000000000807d890                fLcharacterp
                0x000000000807d8c0                fLstringp
                0x000000000807d8f0                fLbit_vector_p
                0x000000000807d920                fLvectorp
                0x000000000807d950                fLsimple_string_p
                0x000000000807d990                fLsimple_bit_vector_p
                0x000000000807d9d0                fLsimple_vector_p
                0x000000000807da20                fLarrayp
                0x000000000807da50                fLpackagep
                0x000000000807da80                fLfunctionp
                0x000000000807db20                fLcompiled_function_p
                0x000000000807db60                fLcommonp
                0x000000000807db90                fLeq
                0x000000000807dbc0                contains_sharp_comma
                0x000000000807dd20                fScontains_sharp_comma
                0x000000000807dd50                fSspicep
                0x000000000807dd80                fSfixnump
                0x000000000807ddb0                gcl_init_predicate_function
                0x000000000807e130                fSfixnump_init
                0x000000000807e160                fSspicep_init
                0x000000000807e190                fScontains_sharp_comma_init
                0x000000000807e1c0                Lequalp
                0x000000000807e1e0                Lequal
                0x000000000807e200                Leql
                0x000000000807e220                Leq
                0x000000000807e240                Lcommonp
                0x000000000807e260                Lcompiled_function_p
                0x000000000807e280                Lfunctionp
                0x000000000807e2a0                Lpackagep
                0x000000000807e2c0                Larrayp
                0x000000000807e2e0                Lsimple_vector_p
                0x000000000807e300                Lsimple_bit_vector_p
                0x000000000807e320                Lsimple_string_p
                0x000000000807e340                Lvectorp
                0x000000000807e360                Lbit_vector_p
                0x000000000807e380                Lstringp
                0x000000000807e3a0                Lcharacterp
                0x000000000807e3c0                Lcomplexp
                0x000000000807e3e0                Lfloatp
                0x000000000807e400                Lintegerp
                0x000000000807e420                Lnumberp
                0x000000000807e440                Llistp
                0x000000000807e460                Lconsp
                0x000000000807e480                Latom
                0x000000000807e4a0                Lsymbolp
                0x000000000807e4c0                Lnull
                0x000000000807e4e0                fLequalp_init
                0x000000000807e510                fLequal_init
                0x000000000807e540                fLeql_init
                0x000000000807e570                fLeq_init
                0x000000000807e5a0                fLcommonp_init
                0x000000000807e5d0                fLcompiled_function_p_init
                0x000000000807e600                fLfunctionp_init
                0x000000000807e630                fLpackagep_init
                0x000000000807e660                fLarrayp_init
                0x000000000807e690                fLsimple_vector_p_init
                0x000000000807e6c0                fLsimple_bit_vector_p_init
                0x000000000807e6f0                fLsimple_string_p_init
                0x000000000807e720                fLvectorp_init
                0x000000000807e750                fLbit_vector_p_init
                0x000000000807e780                fLstringp_init
                0x000000000807e7b0                fLcharacterp_init
                0x000000000807e7e0                fLcomplexp_init
                0x000000000807e810                fLfloatp_init
                0x000000000807e840                fLrealp_init
                0x000000000807e870                fLrationalp_init
                0x000000000807e8a0                fLintegerp_init
                0x000000000807e8d0                fLnumberp_init
                0x000000000807e900                fLlistp_init
                0x000000000807e930                fLconsp_init
                0x000000000807e960                fLatom_init
                0x000000000807e990                fLsymbolp_init
                0x000000000807e9c0                fLnot_init
                0x000000000807e9f0                fLnull_init
                0x000000000807ea20                eql
                0x000000000807eb20                equal
                0x000000000807eda0                fLequal
                0x000000000807ede0                equalp
                0x000000000807f140                fLequalp
                0x000000000807f180                fLeql
 *fill*         0x000000000807f1b4        0xc 90909090
 .text          0x000000000807f1c0      0x709 /usr/lib/gcl-2.6.7/unixport//libansi_gcl.a(number.o)
                0x000000000807f1c0                make_longfloat
                0x000000000807f200                make_shortfloat
                0x000000000807f240                make_fixnum1
                0x000000000807f290                gcl_init_number
                0x000000000807f360                number_to_double
                0x000000000807f4e0                make_complex
                0x000000000807f610                fixnnint
                0x000000000807f650                make_ratio
                0x000000000807f7e0                fSallocate_bigger_fixnum_range
                0x000000000807f870                fSallocate_bigger_fixnum_range_init
                0x000000000807f8a0                fixint
 *fill*         0x000000000807f8c9        0x7 90909090
 .text          0x000000000807f8d0      0xabc /usr/lib/gcl-2.6.7/unixport//libansi_gcl.a(cmpaux.o)
                0x000000000807f8d0                fSspecialp
                0x000000000807f900                gcl_init_cmpaux
                0x000000000807f910                fSfind_init_name_init
                0x000000000807f940                fSinit_cmp_anon_init
                0x000000000807f970                fSsetvv_init
                0x000000000807f9a0                fSdebug_init
                0x000000000807f9d0                fSdefvar1_init
                0x000000000807fa00                fSspecialp_init
                0x000000000807fa30                fSsetvv
                0x000000000807fa80                find_init_name1
                0x000000000807fc20                fSfind_init_name
                0x000000000807fc50                fSinit_cmp_anon
                0x000000000807fc90                call_init
                0x000000000807fd70                gcl_init_or_load1
                0x000000000807fe40                do_init
                0x000000000807ff10                object_to_string
                0x000000000807ffd0                object_to_double
                0x0000000008080050                object_to_float
                0x00000000080800d0                object_to_fixnum
                0x0000000008080170                object_to_int
                0x0000000008080210                object_to_char
                0x00000000080802a0                fSdebug
                0x00000000080802e0                fSdefvar1
                0x0000000008080370                siLspecialp
 *fill*         0x000000000808038c        0x4 90909090
 .text          0x0000000008080390     0x1b1d /usr/lib/gcl-2.6.7/unixport//libansi_gcl.a(num_log.o)
                0x00000000080806f0                gcl_init_num_log
                0x0000000008080920                siLbit_array_op
                0x00000000080812c0                Linteger_length
                0x0000000008081400                Llogcount
                0x0000000008081530                Llogbitp
                0x0000000008081830                Lboole
                0x0000000008081a00                Llogeqv
                0x0000000008081a90                Llogand
                0x0000000008081b20                Llogxor
                0x0000000008081bb0                Llogior
                0x0000000008081c40                shift_integer
                0x0000000008081d70                Lash
 *fill*         0x0000000008081ead        0x3 90909090
 .text          0x0000000008081eb0     0x13c0 /usr/lib/gcl-2.6.7/unixport//libansi_gcl.a(sequence.o)
                0x0000000008081eb0                gcl_init_sequence_function
                0x0000000008081f50                nreverse
                0x0000000008082240                length
                0x00000000080822c0                Lnreverse
                0x0000000008082300                Llength
                0x0000000008082370                elt_set
                0x0000000008082560                siLelt_set
                0x00000000080825d0                elt
                0x00000000080827c0                Lelt
                0x0000000008082820                alloc_simple_bitvector
                0x0000000008082870                alloc_simple_vector
                0x00000000080828c0                reverse
                0x0000000008082c10                Lreverse
                0x0000000008082c50                Lsubseq
                0x0000000008083230                Lcopy_seq
 .text          0x0000000008083270     0x1dfd /usr/lib/gcl-2.6.7/unixport//libansi_gcl.a(pathname.o)
                0x0000000008083270                gcl_init_pathname_function
                0x00000000080833c0                Lpathnamep
                0x0000000008083410                namestring
                0x0000000008083810                coerce_to_namestring
                0x0000000008083940                Lnamestring
                0x00000000080839e0                make_pathname
                0x0000000008083a20                gcl_init_pathname
                0x0000000008083b90                merge_pathnames
                0x0000000008083cc0                parse_namestring
                0x0000000008084170                coerce_to_pathname
                0x0000000008084230                Lhost_namestring
                0x00000000080842c0                Lpathname_version
                0x0000000008084320                Lpathname_type
                0x0000000008084380                Lpathname_name
                0x00000000080843e0                Lpathname_directory
                0x0000000008084440                Lpathname_device
                0x00000000080844a0                Lpathname_host
                0x0000000008084500                Lmerge_pathnames
                0x00000000080845e0                Lpathname
                0x0000000008084630                Lparse_namestring
                0x0000000008084a00                Lenough_namestring
                0x0000000008084c00                Ldirectory_namestring
                0x0000000008084ca0                Lfile_namestring
                0x0000000008084d40                Lmake_pathname
 *fill*         0x000000000808506d        0x3 90909090
 .text          0x0000000008085070     0x121f /usr/lib/gcl-2.6.7/unixport//libansi_gcl.a(unixsave.o)
                0x0000000008085070                gcl_init_unixsave
                0x00000000080861a0                Lsave
 *fill*         0x000000000808628f        0x1 90909090
 .text          0x0000000008086290     0x2b9e /usr/lib/gcl-2.6.7/unixport//libansi_gcl.a(num_co.o)
                0x0000000008086290                gcl_init_num_co
                0x0000000008086ca0                Limagpart
                0x0000000008086d30                Lrealpart
                0x0000000008086d90                Lcomplex
                0x0000000008086e40                Lfloat_precision
                0x0000000008086ee0                Lfloat_digits
                0x0000000008086f40                Lfloat_sign
                0x0000000008087050                Lfloat_radix
                0x0000000008087180                Linteger_decode_float
                0x0000000008087470                Lscale_float
                0x0000000008087640                Ldecode_float
                0x00000000080878c0                Lfloat
                0x0000000008087a90                Ldenominator
                0x0000000008087af0                Lnumerator
                0x0000000008087b50                double_to_integer
                0x0000000008087cb0                Lround
                0x0000000008088250                Ltruncate
                0x00000000080884a0                Lrem
                0x00000000080884e0                Lceiling
                0x0000000008088920                Lfloor
                0x0000000008088d60                Lmod
                0x0000000008088da0                gcl_isnormal_float
                0x0000000008088de0                gcl_isnormal_double
 *fill*         0x0000000008088e2e        0x2 90909090
 .text          0x0000000008088e30      0xb61 /usr/lib/gcl-2.6.7/unixport//libansi_gcl.a(usig2.o)
                0x0000000008088e30                gcl_init_safety
                0x0000000008088e50                fSallow_signal
                0x0000000008088ea0                fSallow_signal_init
                0x0000000008088ed0                sSsignal_safety_required_init
                0x00000000080897d0                raise_pending_signals
                0x0000000008089890                main_signal_handler
                0x0000000008089910                sSsignal_safety_required
 *fill*         0x0000000008089991        0xf 90909090
 .text          0x00000000080899a0      0x53c /usr/lib/gcl-2.6.7/unixport//libansi_gcl.a(num_pred.o)
                0x00000000080899a0                gcl_init_num_pred
                0x0000000008089a10                number_evenp
                0x0000000008089a60                Levenp
                0x0000000008089ad0                number_oddp
                0x0000000008089b20                Loddp
                0x0000000008089b90                number_zerop
                0x0000000008089c40                Lzerop
                0x0000000008089cb0                number_minusp
                0x0000000008089d50                Lminusp
                0x0000000008089dc0                number_plusp
                0x0000000008089e70                Lplusp
 *fill*         0x0000000008089edc        0x4 90909090
 .text          0x0000000008089ee0     0x16bf /usr/lib/gcl-2.6.7/unixport//libansi_gcl.a(let.o)
                0x0000000008089ee0                gcl_init_let
                0x000000000808ae40                let_var_list
 *fill*         0x000000000808b59f        0x1 90909090
 .text          0x000000000808b5a0     0x3401 /usr/lib/gcl-2.6.7/unixport//libansi_gcl.a(bind.o)
                0x000000000808b5a0                set_key_struct
                0x000000000808b620                gcl_init_bind
                0x000000000808b7f0                bind_var
                0x000000000808b900                parse_key_rest_new
                0x000000000808bb40                parse_key_new_new
                0x000000000808bd50                check_other_key
                0x000000000808bfd0                parse_key
                0x000000000808c380                find_special
                0x000000000808c720                letA_bind
                0x000000000808c7e0                let_bind
                0x000000000808c8b0                lambda_bind
 *fill*         0x000000000808e9a1        0xf 90909090
 .text          0x000000000808e9b0     0x107b /usr/lib/gcl-2.6.7/unixport//libansi_gcl.a(mapfun.o)
                0x000000000808e9b0                gcl_init_mapfun
                0x000000000808ea30                Lmapcon
                0x000000000808ed90                Lmapcan
                0x000000000808f100                Lmapl
                0x000000000808f320                Lmapc
                0x000000000808f550                Lmaplist
                0x000000000808f7c0                Lmapcar
 *fill*         0x000000000808fa2b        0x5 90909090
 .text          0x000000000808fa30      0xb82 /usr/lib/gcl-2.6.7/unixport//libansi_gcl.a(typespec.o)
                0x000000000808fa30                gcl_init_typespec
                0x000000000808fa40                gcl_init_typespec_function
                0x000000000808fd20                Ltype_of
                0x000000000808fff0                check_type
                0x0000000008090040                check_type_array
                0x0000000008090080                check_type_hash_table
                0x00000000080900c0                check_type_random_state
                0x0000000008090100                check_type_or_pathname_string_symbol_stream
                0x0000000008090150                check_type_or_Pathname_string_symbol
                0x00000000080901a0                check_type_readtable
                0x00000000080901e0                check_type_stream
                0x0000000008090220                check_type_cons
                0x0000000008090260                check_type_string
                0x00000000080902a0                check_type_package
                0x00000000080902e0                check_type_or_string_symbol
                0x0000000008090320                check_type_or_symbol_string
                0x0000000008090360                check_type_symbol
                0x00000000080903a0                check_type_character
                0x00000000080903e0                check_type_number
                0x0000000008090440                check_type_or_rational_float
                0x0000000008090490                check_type_float
                0x00000000080904d0                check_type_rational
                0x0000000008090520                check_type_integer
                0x0000000008090560                check_type_non_negative_integer
 *fill*         0x00000000080905b2        0xe 90909090
 .text          0x00000000080905c0     0x58d2 /usr/lib/gcl-2.6.7/unixport//libansi_gcl.a(funlink.o)
                0x00000000080905c0                clear_stack
                0x0000000008090600                gcl_init_links
                0x0000000008090740                c_apply_n
                0x0000000008095120                ifuncall
                0x0000000008095240                call_proc_new
                0x0000000008095780                call_vproc_new
                0x00000000080957c0                fSuse_fast_links
                0x0000000008095a00                clear_compiler_properties
                0x0000000008095a90                fSuse_fast_links_2
                0x0000000008095ab0                fSuse_fast_links_init
                0x0000000008095ae0                call_or_link_closure
                0x0000000008095c20                call_or_link
                0x0000000008095e70                call_proc0
 *fill*         0x0000000008095e92        0x2 90909090
 .text          0x0000000008095e94     0x1aae /usr/lib/gcl-2.6.7/unixport//libansi_gcl.a(new_init.o)
                0x0000000008095e94                NewInit
 *fill*         0x0000000008097942        0xe 90909090
 .text          0x0000000008097950      0x360 /usr/lib/gcl-2.6.7/unixport//libansi_gcl.a(utils.o)
                0x0000000008097950                Ivs_values
                0x00000000080979d0                Wrong_type_error
                0x00000000080979f0                Iis_fixnum
                0x0000000008097a20                IisSymbol
                0x0000000008097a50                lisp_copy_to_null_terminated
                0x0000000008097ac0                fSincorrect_type
                0x0000000008097b10                Icheck_one_type
                0x0000000008097b70                Ifuncall_n
                0x0000000008097be0                Iapply_ap_new
                0x0000000008097c80                IisArray
 .text          0x0000000008097cb0     0x7378 /usr/lib/gcl-2.6.7/unixport//libansi_gcl.a(read.o)
                0x0000000008097cd0                read_char
                0x0000000008097e90                gcl_init_read_function
                0x00000000080980f0                Lreadtablep
                0x0000000008098680                Lget_macro_character
                0x0000000008098770                Lset_macro_character
                0x00000000080989b0                Lcopy_readtable
                0x0000000008098d20                Lset_syntax_from_char
                0x0000000008098ef0                read_char1
                0x0000000008098fb0                Lunread_char
                0x0000000008099090                peek_char
                0x0000000008099100                read_byte1
                0x00000000080991c0                Lread_byte
                0x00000000080992c0                gcl_init_read
                0x0000000008099dd0                Lread_char
                0x000000000809ae20                Lread_line
                0x000000000809b740                Lparse_integer
                0x000000000809bc10                Lclear_input
                0x000000000809bcf0                Lread_char_no_hang
                0x000000000809be80                Llisten
                0x000000000809bf80                Lpeek_char
                0x000000000809c1f0                read_object
                0x000000000809cce0                read_fasl_vector1
                0x000000000809d430                Lread_delimited_list
                0x000000000809e980                read_object_non_recursive
                0x000000000809ede0                siLstring_to_object
                0x000000000809ee80                Lread
 *fill*         0x000000000809f028        0x8 90909090
 .text          0x000000000809f030     0x11be /usr/lib/gcl-2.6.7/unixport//libansi_gcl.a(prog.o)
                0x000000000809f030                gcl_init_prog
                0x000000000809f470                Fprogn
                0x000000000809fb00                Ftagbody
 *fill*         0x00000000080a01ee        0x2 90909090
 .text          0x00000000080a01f0      0x8c4 /usr/lib/gcl-2.6.7/unixport//libansi_gcl.a(catch.o)
                0x00000000080a01f0                gcl_init_catch
                0x00000000080a0910                fSerror_set
                0x00000000080a0a90                fSerror_set_init
 *fill*         0x00000000080a0ab4        0xc 90909090
 .text          0x00000000080a0ac0     0x1df5 /usr/lib/gcl-2.6.7/unixport//libansi_gcl.a(iteration.o)
                0x00000000080a0ac0                gcl_init_iteration
 *fill*         0x00000000080a28b5        0xb 90909090
 .text          0x00000000080a28c0     0x1bfd /usr/lib/gcl-2.6.7/unixport//libansi_gcl.a(error.o)
                0x00000000080a29c0                gcl_init_error
                0x00000000080a2a30                fSvs_top
                0x00000000080a2a80                fSbds_top
                0x00000000080a2ad0                fSfrs_top
                0x00000000080a2b20                fSihs_top
                0x00000000080a2b70                fSuniversal_error_handler
                0x00000000080a2bc0                fSuniversal_error_handler_init
                0x00000000080a2bf0                fSinternal_super_go_init
                0x00000000080a2c20                fSsch_frs_base_init
                0x00000000080a2c50                fSvs_init
                0x00000000080a2c80                fSvs_top_init
                0x00000000080a2cb0                fSbds_val_init
                0x00000000080a2ce0                fSbds_var_init
                0x00000000080a2d10                fSbds_top_init
                0x00000000080a2d40                fSfrs_ihs_init
                0x00000000080a2d70                fSfrs_tag_init
                0x00000000080a2da0                fSfrs_class_init
                0x00000000080a2dd0                fSfrs_bds_init
                0x00000000080a2e00                fSfrs_vs_init
                0x00000000080a2e30                fSfrs_top_init
                0x00000000080a2e60                fSihs_vs_init
                0x00000000080a2e90                fSihs_fun_init
                0x00000000080a2ec0                fSihs_top_init
                0x00000000080a2ef0                siLihs_top
                0x00000000080a2f10                Lcerror
                0x00000000080a2f30                Lerror
                0x00000000080a2fc0                FEpackage_error
                0x00000000080a3010                fLcerror
                0x00000000080a30c0                CEerror
                0x00000000080a3140                fLspecific_correctable_error
                0x00000000080a31f0                fLspecific_error
                0x00000000080a32a0                fLerror
                0x00000000080a3350                FEerror
                0x00000000080a3450                vfun_wrong_number_of_args
                0x00000000080a34b0                illegal_index
                0x00000000080a34e0                not_a_string_or_symbol
                0x00000000080a3510                fSinternal_super_go
                0x00000000080a35f0                fSihs_vs
                0x00000000080a3650                fSihs_fun
                0x00000000080a36d0                fSsch_frs_base
                0x00000000080a3780                fSfrs_ihs
                0x00000000080a37e0                fSfrs_tag
                0x00000000080a3800                fSfrs_bds
                0x00000000080a3860                fSfrs_vs
                0x00000000080a38c0                fSvs
                0x00000000080a3920                fSbds_val
                0x00000000080a3990                fSbds_var
                0x00000000080a3a00                fSfrs_class
                0x00000000080a3a70                Icall_error_handler
                0x00000000080a3ae0                check_arg_range
                0x00000000080a3bd0                invalid_macro_call
                0x00000000080a3c20                FEinvalid_function
                0x00000000080a3c60                FEundefined_function
                0x00000000080a3ca0                FEinvalid_variable
                0x00000000080a3ce0                not_a_variable
                0x00000000080a3d00                FEunbound_variable
                0x00000000080a3d40                FEinvalid_form
                0x00000000080a3d80                illegal_declare
                0x00000000080a3da0                FEunexpected_keyword
                0x00000000080a3df0                FEtoo_many_argumentsF
                0x00000000080a3e20                FEtoo_many_arguments
                0x00000000080a3ea0                too_many_arguments
                0x00000000080a3ec0                FEtoo_few_argumentsF
                0x00000000080a3f10                FEtoo_few_arguments
                0x00000000080a3f90                too_few_arguments
                0x00000000080a3fb0                check_arg_failed
                0x00000000080a3ff0                FEwrong_type_argument
                0x00000000080a4030                check_stream
                0x00000000080a4060                check_socket
                0x00000000080a40a0                not_a_symbol
                0x00000000080a40c0                wrong_type_argument
                0x00000000080a40e0                ck_larg_exactly
                0x00000000080a4230                ck_larg_at_least
                0x00000000080a42f0                fLcerror_init
                0x00000000080a4320                fLspecific_correctable_error_init
                0x00000000080a4350                fLspecific_error_init
                0x00000000080a4380                fLerror_init
                0x00000000080a43b0                terminal_interrupt
                0x00000000080a43f0                assert_error
 *fill*         0x00000000080a44bd        0x3 90909090
 .text          0x00000000080a44c0      0x526 /usr/lib/gcl-2.6.7/unixport//libansi_gcl.a(unixtime.o)
                0x00000000080a44c0                system_time_zone_helper
                0x00000000080a4500                gcl_init_unixtime
                0x00000000080a45e0                fLget_internal_real_time
                0x00000000080a4670                fLget_internal_real_time_init
                0x00000000080a46a0                fLget_universal_time_init
                0x00000000080a46d0                fSgettimeofday
                0x00000000080a4710                fSgettimeofday_init
                0x00000000080a4740                Lget_internal_run_time
                0x00000000080a4800                runtime
                0x00000000080a4820                Lsleep
                0x00000000080a4900                unix_time_to_universal_time
                0x00000000080a49c0                fLget_universal_time
 *fill*         0x00000000080a49e6        0xa 90909090
 .text          0x00000000080a49f0     0x62a4 /usr/lib/gcl-2.6.7/unixport//libansi_gcl.a(format.o)
                0x00000000080a49f0                gcl_init_format
                0x00000000080a8e10                fLformat
                0x00000000080a9200                fLformat_1
                0x00000000080aac50                Lformat
                0x00000000080aac70                fLformat_init
 *fill*         0x00000000080aac94        0xc 90909090
 .text          0x00000000080aaca0      0xaf4 /usr/lib/gcl-2.6.7/unixport//libansi_gcl.a(big.o)
                0x00000000080aaca0                fSset_gmp_allocate_relocatable
                0x00000000080aacf0                gcl_gmp_alloc
                0x00000000080aad10                big_compare
                0x00000000080aad30                big_to_double
                0x00000000080aae20                mpz_to_mpz
                0x00000000080aae60                mpz_to_mpz1
                0x00000000080aaea0                isetq_fix
                0x00000000080aaeb0                big_sign
                0x00000000080aaed0                set_big_sign
                0x00000000080aaf10                zero_big
                0x00000000080aaf30                new_bignum
                0x00000000080aaf80                coerce_big_to_string
                0x00000000080ab010                normalize_big
                0x00000000080ab090                integer_quotient_remainder_1
                0x00000000080ab150                bignum2
                0x00000000080ab1c0                big_minus
                0x00000000080ab2c0                maybe_replace_big
                0x00000000080ab340                normalize_big_to_object
                0x00000000080ab350                make_integer
                0x00000000080ab3c0                otoi
                0x00000000080ab420                obj_to_mpz1
                0x00000000080ab4a0                obj_to_mpz
                0x00000000080ab5a0                mul_int_big
                0x00000000080ab5d0                add_int_big
                0x00000000080ab630                gcl_init_big1
                0x00000000080ab660                gcl_init_big
                0x00000000080ab770                fSset_gmp_allocate_relocatable_init
 *fill*         0x00000000080ab794        0xc 90909090
 .text          0x00000000080ab7a0     0x13be /usr/lib/gcl-2.6.7/unixport//libansi_gcl.a(hash.o)
                0x00000000080ab870                gcl_init_hash
                0x00000000080ab9c0                fLhash_table_size
                0x00000000080abcc0                fLhash_table_size_init
                0x00000000080abcf0                fLhash_table_test_init
                0x00000000080abd20                fLhash_table_test
                0x00000000080abdb0                fSnext_hash_table_entry
                0x00000000080abed0                fSnext_hash_table_entry_init
                0x00000000080abf00                Lsxhash
                0x00000000080abf70                Lhash_table_count
                0x00000000080abff0                Lclrhash
                0x00000000080ac070                Lhash_table_p
                0x00000000080ac0c0                Lmaphash
                0x00000000080ac160                Lmake_hash_table
                0x00000000080ac580                gethash
                0x00000000080ac720                Lremhash
                0x00000000080ac7c0                Lgethash
                0x00000000080ac890                sethash
                0x00000000080acb00                siLhash_set
 *fill*         0x00000000080acb5e        0x2 90909090
 .text          0x00000000080acb60      0x90c /usr/lib/gcl-2.6.7/unixport//libansi_gcl.a(num_comp.o)
                0x00000000080acb60                gcl_init_num_comp
                0x00000000080acc10                number_compare
                0x00000000080acfe0                Lmin
                0x00000000080ad090                Lmax
                0x00000000080ad220                Lmonotonically_nonincreasing
                0x00000000080ad240                Lmonotonically_nondecreasing
                0x00000000080ad260                Lmonotonically_decreasing
                0x00000000080ad280                Lmonotonically_increasing
                0x00000000080ad2a0                Lall_different
                0x00000000080ad3a0                Lall_the_same
 *fill*         0x00000000080ad46c        0x4 90909090
 .text          0x00000000080ad470     0x1314 /usr/lib/gcl-2.6.7/unixport//libansi_gcl.a(gmp_wrappers.o)
                0x00000000080ad470                m__gmpz_size
                0x00000000080ad530                m__gmpz_sizeinbase
                0x00000000080ad5f0                m__gmpz_popcount
                0x00000000080ad6b0                m__gmpz_fits_sint_p
                0x00000000080ad760                m__gmpz_get_str
                0x00000000080ad800                m__gmpz_get_si
                0x00000000080ad8b0                m__gmpz_get_d
                0x00000000080ad960                m__gmpz_set_si
                0x00000000080ada10                m__gmpz_set_ui
                0x00000000080adac0                m__gmpz_set
                0x00000000080adb70                m__gmpz_neg
                0x00000000080adc30                m__gmpz_init
                0x00000000080adcc0                m__gmpz_tstbit
                0x00000000080add80                m__gmpz_com
                0x00000000080ade30                m__gmpz_ior
                0x00000000080adee0                m__gmpz_xor
                0x00000000080adfa0                m__gmpz_and
                0x00000000080ae050                m__gmpz_cmp
                0x00000000080ae110                m__gmpz_fdiv_q_2exp
                0x00000000080ae1c0                m__gmpz_tdiv_qr
                0x00000000080ae290                m__gmpz_mul_2exp
                0x00000000080ae350                m__gmpz_mul_si
                0x00000000080ae400                m__gmpz_mul
                0x00000000080ae4b0                m__gmpz_sub_ui
                0x00000000080ae570                m__gmpz_sub
                0x00000000080ae620                m__gmpz_add_ui
                0x00000000080ae6d0                m__gmpz_add
 *fill*         0x00000000080ae784        0xc 90909090
 .text          0x00000000080ae790       0xfa /usr/lib/gcl-2.6.7/unixport//libansi_gcl.a(unixfasl.o)
                0x00000000080ae790                gcl_init_unixfasl
 *fill*         0x00000000080ae88a        0x6 90909090
 .text          0x00000000080ae890      0x7ed /usr/lib/gcl-2.6.7/unixport//libansi_gcl.a(reference.o)
                0x00000000080ae890                gcl_init_reference
                0x00000000080aed10                symbol_function
                0x00000000080aed60                Lspecial_form_p
                0x00000000080aedd0                Lmacro_function
                0x00000000080aee40                Lboundp
                0x00000000080aeeb0                Lfboundp
                0x00000000080aef20                Lsymbol_value
                0x00000000080aef90                Lsymbol_function
 *fill*         0x00000000080af07d        0x3 90909090
 .text          0x00000000080af080     0x35c0 /usr/lib/gcl-2.6.7/unixport//libansi_gcl.a(fat_string.o)
                0x00000000080af0a0                gcl_init_fat_string
                0x00000000080af150                fSarray_adress
                0x00000000080af7d0                fSfunction_start
                0x00000000080b1dc0                fSarray_adress_init
                0x00000000080b1df0                fSdisplay_profile_init
                0x00000000080b1e20                fSset_up_combined_init
                0x00000000080b1e50                fSfunction_start_init
                0x00000000080b1e80                fSprofile_init
                0x00000000080b1eb0                fSdisplay_profile
                0x00000000080b2240                fSset_up_combined
                0x00000000080b2360                fSprofile
                0x00000000080b2400                read_fasl_vector
 .text          0x00000000080b2640     0x1e48 /usr/lib/gcl-2.6.7/unixport//libansi_gcl.a(character.o)
                0x00000000080b2640                digitp
                0x00000000080b26b0                char_eq
                0x00000000080b26d0                digit_weight
                0x00000000080b2710                gcl_init_character_function
                0x00000000080b29f0                gcl_init_character
                0x00000000080b2bd0                Lchar_name
                0x00000000080b2d50                Lchar_int
                0x00000000080b2df0                Lchar_font
                0x00000000080b2e50                Lchar_bits
                0x00000000080b2eb0                Lchar_code
                0x00000000080b2f30                Lstring_char_p
                0x00000000080b2fb0                Lgraphic_char_p
                0x00000000080b3040                Lstandard_char_p
                0x00000000080b30d0                Lset_char_bit
                0x00000000080b3120                Lchar_bit
                0x00000000080b3170                Lname_char
                0x00000000080b3330                Lint_char
                0x00000000080b34d0                Lchar_ge
                0x00000000080b34f0                Lchar_le
                0x00000000080b3510                Lchar_g
                0x00000000080b3530                Lchar_l
                0x00000000080b3550                Lchar_neq
                0x00000000080b3630                Lchar_eq
                0x00000000080b3700                Ldigit_char
                0x00000000080b3850                Lmake_char
                0x00000000080b3980                Lcode_char
                0x00000000080b3ac0                Ldigit_char_p
                0x00000000080b3bc0                Lchar_downcase
                0x00000000080b3c90                Lchar_upcase
                0x00000000080b3e50                Lchar_not_lessp
                0x00000000080b3e70                Lchar_not_greaterp
                0x00000000080b3e90                Lchar_greaterp
                0x00000000080b3eb0                Lchar_lessp
                0x00000000080b3ed0                char_equal
                0x00000000080b3f30                Lchar_not_equal
                0x00000000080b4010                Lchar_equal
                0x00000000080b40d0                Lalphanumericp
                0x00000000080b4160                Lboth_case_p
                0x00000000080b41f0                Llower_case_p
                0x00000000080b4280                Lupper_case_p
                0x00000000080b4310                Lalpha_char_p
                0x00000000080b43a0                coerce_to_character
                0x00000000080b4430                Lcharacter
 *fill*         0x00000000080b4488        0x8 90909090
 .text          0x00000000080b4490     0x3405 /usr/lib/gcl-2.6.7/unixport//libansi_gcl.a(alloc.o)
                0x00000000080b4490                on_stack_cons
                0x00000000080b44b0                insert_contblock
                0x00000000080b4510                insert_maybe_sgc_contblock
                0x00000000080b45a0                fSstaticp
                0x00000000080b45d0                gcl_init_alloc_function
                0x00000000080b45e0                free
                0x00000000080b4720                cfree
                0x00000000080b4730                fSset_hole_size
                0x00000000080b4860                fSget_hole_size
                0x00000000080b48a0                fSallocated_relocatable_pages
                0x00000000080b48e0                fSmaximum_contiguous_pages
                0x00000000080b4920                fSallocated_contiguous_pages
                0x00000000080b4960                fSset_hole_size_init
                0x00000000080b4990                fSget_hole_size_init
                0x00000000080b49c0                fSallocated_relocatable_pages_init
                0x00000000080b49f0                fSallocate_init
                0x00000000080b4a20                fSallocate_relocatable_pages_init
                0x00000000080b4a50                fSmaximum_contiguous_pages_init
                0x00000000080b4a80                fSallocated_contiguous_pages_init
                0x00000000080b4ab0                fSallocate_contiguous_pages_init
                0x00000000080b4ae0                fSallocate_growth_init
                0x00000000080b4b10                fSallocate_sgc_init
                0x00000000080b4b40                fSstaticp_init
                0x00000000080b4b70                fSreset_number_used_init
                0x00000000080b4ba0                fSallocated_init
                0x00000000080b4bd0                type_name
                0x00000000080b4c80                fSreset_number_used
                0x00000000080b4ce0                fSallocated
                0x00000000080b4ec0                fSallocate_growth
                0x00000000080b5030                fSallocate_sgc
                0x00000000080b5170                set_maxpage
                0x00000000080b5520                add_page_to_freelist
                0x00000000080b56a0                alloc_page
                0x00000000080b5900                fSallocate_relocatable_pages
                0x00000000080b5a90                fSallocate_contiguous_pages
                0x00000000080b5c20                fSallocate
                0x00000000080b5e50                alloc_relblock
                0x00000000080b6250                alloc_contblock
                0x00000000080b66d0                make_cons
                0x00000000080b6a20                valloc
                0x00000000080b6ac0                alloc_object
                0x00000000080b6ff0                gcl_init_alloc
                0x00000000080b7640                malloc
                0x00000000080b7720                calloc
                0x00000000080b7760                realloc
 *fill*         0x00000000080b7895        0xb 90909090
 .text          0x00000000080b78a0     0x23d8 /usr/lib/gcl-2.6.7/unixport//libansi_gcl.a(regexpr.o)
                0x00000000080b7960                fSmatch_end
                0x00000000080b79d0                fSmatch_beginning
                0x00000000080b8720                fSstring_match_init
                0x00000000080b8750                fScompile_regexp_init
                0x00000000080b8780                fSmatch_end_init
                0x00000000080b87b0                fSmatch_beginning_init
                0x00000000080b9680                fScompile_regexp
                0x00000000080b9840                fSstring_match
 *fill*         0x00000000080b9c78        0x8 90909090
 .text          0x00000000080b9c80      0x350 /usr/lib/gcl-2.6.7/unixport//libansi_gcl.a(usig.o)
                0x00000000080b9cc0                unblock_sigusr_sigio
                0x00000000080b9d20                unblock_signals
                0x00000000080b9df0                sigint
                0x00000000080b9e20                gcl_signal
                0x00000000080b9ed0                install_default_signals
 .text          0x00000000080b9fd0     0x5a54 /usr/lib/gcl-2.6.7/unixport//libansi_gcl.a(gbc.o)
                0x00000000080ba050                sgc_count_type
                0x00000000080ba0d0                sgc_count_read_only_type
                0x00000000080ba1d0                gcl_init_GBC
                0x00000000080ba840                system_error
                0x00000000080ba860                enter_mark_origin
                0x00000000080ba910                make_writable
                0x00000000080ba9a0                perm_writable
                0x00000000080baaa0                memory_protect
                0x00000000080baee0                sgc_quit
                0x00000000080bb510                sgc_start
                0x00000000080bbf00                memprotect_test_reset
                0x00000000080bbf40                fLgbc_init
                0x00000000080be2a0                GBC
                0x00000000080bf9c0                fLgbc
 *fill*         0x00000000080bfa24        0xc 90909090
 .text          0x00000000080bfa30      0xb71 /usr/lib/gcl-2.6.7/unixport//libansi_gcl.a(cfun.o)
                0x00000000080bfa30                gcl_init_cfun
                0x00000000080bfa40                fSturbo_closure_init
                0x00000000080bfa70                fScompiled_function_name_init
                0x00000000080bfaa0                fSmm_init
                0x00000000080bfad0                fSmf_init
                0x00000000080bfb00                fSmfvfun_key_init
                0x00000000080bfb30                fSmfvfun_init
                0x00000000080bfb60                fSmfsfun_init
                0x00000000080bfb90                fSmc_init
                0x00000000080bfbc0                turbo_closure
                0x00000000080bfd60                fSturbo_closure
                0x00000000080bfda0                fScompiled_function_name
                0x00000000080bfdf0                make_special_form_internal
                0x00000000080bfe10                make_cclosure_new
                0x00000000080bfe50                make_cclosure
                0x00000000080bfec0                make_sfun
                0x00000000080bff00                make_si_sfun_internal
                0x00000000080bff50                make_cfun
                0x00000000080bffd0                make_si_function_internal
                0x00000000080c0040                make_function_internal
                0x00000000080c00b0                fSmm
                0x00000000080c0170                fSmf
                0x00000000080c02e0                fSmfvfun_key
                0x00000000080c0360                fSmfvfun
                0x00000000080c03b0                fSmfsfun
                0x00000000080c0490                fSmc
 *fill*         0x00000000080c05a1        0xf 90909090
 .text          0x00000000080c05b0      0x59f /usr/lib/gcl-2.6.7/unixport//libansi_gcl.a(nfunlink.o)
                0x00000000080c05b0                Iinvoke_c_function_from_value_stack
                0x00000000080c07f0                IapplyVector
 *fill*         0x00000000080c0b4f        0x1 90909090
 .text          0x00000000080c0b50      0x856 /usr/lib/gcl-2.6.7/unixport//libansi_gcl.a(backq.o)
                0x00000000080c0b50                gcl_init_backq
                0x00000000080c11a0                backq_car
 *fill*         0x00000000080c13a6        0xa 90909090
 .text          0x00000000080c13b0       0x3d /usr/lib/gcl-2.6.7/unixport//libansi_gcl.a(bds.o)
                0x00000000080c13b0                bds_unwind
 *fill*         0x00000000080c13ed        0x3 90909090
 .text          0x00000000080c13f0      0x6ce /usr/lib/gcl-2.6.7/unixport//libansi_gcl.a(run_process.o)
                0x00000000080c13f0                gcl_init_socket_function
                0x00000000080c1440                spawn_process_with_streams
                0x00000000080c1550                make_stream
                0x00000000080c1610                make_socket_pair
                0x00000000080c1750                siLmake_socket_pair
                0x00000000080c1760                run_process
                0x00000000080c17b0                siLrun_process
                0x00000000080c18a0                make_socket_stream
                0x00000000080c1a70                siLmake_socket_stream
 *fill*         0x00000000080c1abe        0x2 90909090
 .text          0x00000000080c1ac0     0x2230 /usr/lib/gcl-2.6.7/unixport//libansi_gcl.a(assignment.o)
                0x00000000080c1ac0                fSclear_compiler_properties
                0x00000000080c1ae0                gcl_init_assignment
                0x00000000080c1bb0                fSclear_compiler_properties_init
                0x00000000080c1be0                fSfset_init
                0x00000000080c1c10                fLfmakunbound
                0x00000000080c1d10                fSfset
                0x00000000080c1e90                Lfmakunbound
                0x00000000080c1eb0                Lmakunbound
                0x00000000080c1ed0                siLfset
                0x00000000080c1ef0                Lset
                0x00000000080c1f10                fLfmakunbound_init
                0x00000000080c1f40                fLmakunbound_init
                0x00000000080c1f70                fLset_init
                0x00000000080c1fa0                fLmakunbound
                0x00000000080c1ff0                fLset
                0x00000000080c2050                setq
 .text          0x00000000080c3cf0      0xd5c /usr/lib/gcl-2.6.7/unixport//libansi_gcl.a(conditional.o)
                0x00000000080c3cf0                gcl_init_conditional
 *fill*         0x00000000080c4a4c        0x4 90909090
 .text          0x00000000080c4a50      0x907 /usr/lib/gcl-2.6.7/unixport//libansi_gcl.a(block.o)
                0x00000000080c4a50                gcl_init_block
 *fill*         0x00000000080c5357        0x9 90909090
 .text          0x00000000080c5360      0x180 /usr/lib/gcl-2.6.7/unixport//libansi_gcl.a(frame.o)
                0x00000000080c5360                frs_sch
                0x00000000080c53a0                frs_sch_catch
                0x00000000080c53f0                unwind
 .text          0x00000000080c54e0     0x20b2 /usr/lib/gcl-2.6.7/unixport//libansi_gcl.a(num_arith.o)
                0x00000000080c54e0                gcl_init_num_arith
                0x00000000080c55a0                zero_divisor
                0x00000000080c55c0                integer_divide1
                0x00000000080c5650                fixnum_sub
                0x00000000080c5770                fixnum_add
                0x00000000080c5860                number_minus
                0x00000000080c5cd0                number_times
                0x00000000080c6080                number_plus
                0x00000000080c64a0                Lplus
                0x00000000080c6550                Ltimes
                0x00000000080c6600                one_minus
                0x00000000080c67c0                Lone_minus
                0x00000000080c6810                one_plus
                0x00000000080c69b0                Lone_plus
                0x00000000080c6a00                number_negate
                0x00000000080c6b70                Lconjugate
                0x00000000080c6c10                get_gcd
                0x00000000080c6d80                Lgcd
                0x00000000080c6e60                Lminus
                0x00000000080c6f10                number_divide
                0x00000000080c7340                Ldivide
                0x00000000080c7400                Llcm
 *fill*         0x00000000080c7592        0xe 90909090
 .text          0x00000000080c75a0     0x1403 /usr/lib/gcl-2.6.7/unixport//libansi_gcl.a(sockets.o)
                0x00000000080c75a0                fSreset_string_input_stream
                0x00000000080c75c0                fSconnection_state_fd
                0x00000000080c7600                fSclear_connection_state_init
                0x00000000080c7630                fScheck_state_input_init
                0x00000000080c7660                fSreset_string_input_stream_init
                0x00000000080c7690                fSset_sigio_for_fd_init
                0x00000000080c76c0                fSprint_to_string1_init
                0x00000000080c76f0                fSour_read_with_offset_init
                0x00000000080c7720                fSour_write_init
                0x00000000080c7750                fSconnection_state_fd_init
                0x00000000080c7780                fSclear_connection_init
                0x00000000080c77b0                fScheck_fd_for_input_init
                0x00000000080c77e0                fShostid_to_hostname_init
                0x00000000080c7810                fSgethostname_init
                0x00000000080c7840                fShostname_to_hostid_init
                0x00000000080c7870                fSaccept_socket_connection_init
                0x00000000080c78a0                fSclose_sfd_init
                0x00000000080c78d0                fSclose_fd_init
                0x00000000080c7900                fSopen_named_socket_init
                0x00000000080c7930                fSset_sigio_for_fd
                0x00000000080c7960                fSprint_to_string1
                0x00000000080c7d40                setup_connection_state
                0x00000000080c7da0                fScheck_fd_for_input
                0x00000000080c7ec0                fScheck_state_input
                0x00000000080c8200                fSour_read_with_offset
                0x00000000080c8440                fSour_write
                0x00000000080c8490                fSclear_connection
                0x00000000080c84f0                fSclear_connection_state
                0x00000000080c8550                fShostid_to_hostname
                0x00000000080c85d0                fSgethostname
                0x00000000080c8610                fShostname_to_hostid
                0x00000000080c8690                fSaccept_socket_connection
                0x00000000080c8750                fSclose_sfd
                0x00000000080c87b0                fSclose_fd
                0x00000000080c87e0                fSopen_named_socket
 *fill*         0x00000000080c89a3        0xd 90909090
 .text          0x00000000080c89b0     0x2253 /usr/lib/gcl-2.6.7/unixport//libansi_gcl.a(gcl_numlib.o)
                0x00000000080c8ad0                init_gcl_numlib
 *fill*         0x00000000080cac03        0xd 90909090
 .text          0x00000000080cac10     0x27fd /usr/lib/gcl-2.6.7/unixport//libansi_gcl.a(gcl_destructuring_bind.o)
                0x00000000080cac90                init_gcl_destructuring_bind
 *fill*         0x00000000080cd40d        0x3 90909090
 .text          0x00000000080cd410     0x1bec /usr/lib/gcl-2.6.7/unixport//libansi_gcl.a(gcl_listlib.o)
                0x00000000080cd480                init_gcl_listlib
 *fill*         0x00000000080ceffc        0x4 90909090
 .text          0x00000000080cf000      0x65a /usr/lib/gcl-2.6.7/unixport//libansi_gcl.a(gcl_module.o)
                0x00000000080cf000                init_gcl_module
 *fill*         0x00000000080cf65a        0x6 90909090
 .text          0x00000000080cf660     0x803d /usr/lib/gcl-2.6.7/unixport//libansi_gcl.a(gcl_top.o)
                0x00000000080cf6b0                init_gcl_top
 *fill*         0x00000000080d769d        0x3 90909090
 .text          0x00000000080d76a0     0x6f69 /usr/lib/gcl-2.6.7/unixport//libansi_gcl.a(gcl_predlib.o)
                0x00000000080d76e0                init_gcl_predlib
 *fill*         0x00000000080de609        0x7 90909090
 .text          0x00000000080de610     0x3ca2 /usr/lib/gcl-2.6.7/unixport//libansi_gcl.a(gcl_iolib.o)
                0x00000000080de610                init_gcl_iolib
 *fill*         0x00000000080e22b2        0xe 90909090
 .text          0x00000000080e22c0     0x2583 /usr/lib/gcl-2.6.7/unixport//libansi_gcl.a(gcl_serror.o)
                0x00000000080e22c0                init_gcl_serror
 *fill*         0x00000000080e4843        0xd 90909090
 .text          0x00000000080e4850     0x5f8d /usr/lib/gcl-2.6.7/unixport//libansi_gcl.a(gcl_defstruct.o)
                0x00000000080e4850                init_gcl_defstruct
 *fill*         0x00000000080ea7dd        0x3 90909090
 .text          0x00000000080ea7e0     0x7e8b /usr/lib/gcl-2.6.7/unixport//libansi_gcl.a(gcl_debug.o)
                0x00000000080ea810                stream_name
                0x00000000080ea830                closedp
                0x00000000080ea850                init_gcl_debug
 *fill*         0x00000000080f266b        0x5 90909090
 .text          0x00000000080f2670     0x2aa8 /usr/lib/gcl-2.6.7/unixport//libansi_gcl.a(gcl_arraylib.o)
                0x00000000080f2670                init_gcl_arraylib
 *fill*         0x00000000080f5118        0x8 90909090
 .text          0x00000000080f5120     0x4635 /usr/lib/gcl-2.6.7/unixport//libansi_gcl.a(gcl_packlib.o)
                0x00000000080f5120                init_gcl_packlib
 *fill*         0x00000000080f9755        0xb 90909090
 .text          0x00000000080f9760     0x1f43 /usr/lib/gcl-2.6.7/unixport//libansi_gcl.a(gcl_seq.o)
                0x00000000080f9760                init_gcl_seq
 *fill*         0x00000000080fb6a3        0xd 90909090
 .text          0x00000000080fb6b0     0x2054 /usr/lib/gcl-2.6.7/unixport//libansi_gcl.a(gcl_defpackage.o)
                0x00000000080fb6b0                init_gcl_defpackage
 *fill*         0x00000000080fd704        0xc 90909090
 .text          0x00000000080fd710     0x4aff /usr/lib/gcl-2.6.7/unixport//libansi_gcl.a(gcl_info.o)
                0x00000000080fd710                init_gcl_info
 *fill*         0x000000000810220f        0x1 90909090
 .text          0x0000000008102210     0x3360 /usr/lib/gcl-2.6.7/unixport//libansi_gcl.a(gcl_trace.o)
                0x0000000008102210                init_gcl_trace
 .text          0x0000000008105570     0x818e /usr/lib/gcl-2.6.7/unixport//libansi_gcl.a(gcl_sloop.o)
                0x00000000081055c0                init_gcl_sloop
 *fill*         0x000000000810d6fe        0x2 90909090
 .text          0x000000000810d700     0x1ba5 /usr/lib/gcl-2.6.7/unixport//libansi_gcl.a(gcl_mislib.o)
                0x000000000810d740                init_gcl_mislib
 *fill*         0x000000000810f2a5        0xb 90909090
 .text          0x000000000810f2b0     0x21b9 /usr/lib/gcl-2.6.7/unixport//libansi_gcl.a(gcl_defmacro.o)
                0x000000000810f2b0                init_gcl_defmacro
 *fill*         0x0000000008111469        0x7 90909090
 .text          0x0000000008111470     0x5ead /usr/lib/gcl-2.6.7/unixport//libansi_gcl.a(gcl_evalmacros.o)
                0x0000000008111470                init_gcl_evalmacros
 *fill*         0x000000000811731d        0x3 90909090
 .text          0x0000000008117320     0x8218 /usr/lib/gcl-2.6.7/unixport//libansi_gcl.a(gcl_seqlib.o)
                0x0000000008117320                init_gcl_seqlib
 *fill*         0x000000000811f538        0x8 90909090
 .text          0x000000000811f540     0xc8f6 /usr/lib/gcl-2.6.7/unixport//libansi_gcl.a(gcl_loop.o)
                0x000000000811f720                init_gcl_loop
 *fill*         0x000000000812be36        0xa 90909090
 .text          0x000000000812be40     0x65d2 /usr/lib/gcl-2.6.7/unixport//libansi_gcl.a(gcl_describe.o)
                0x000000000812be40                init_gcl_describe
 *fill*         0x0000000008132412        0xe 90909090
 .text          0x0000000008132420     0x8ac7 /usr/lib/gcl-2.6.7/unixport//libansi_gcl.a(gcl_setf.o)
                0x0000000008132420                init_gcl_setf
 *fill*         0x000000000813aee7        0x9 90909090
 .text          0x000000000813aef0      0xfed /usr/lib/gcl-2.6.7/unixport//libansi_gcl.a(gcl_make_defpackage.o)
                0x000000000813aef0                init_gcl_make_defpackage
 *fill*         0x000000000813bedd        0x3 90909090
 .text          0x000000000813bee0     0x344f /usr/lib/gcl-2.6.7/unixport//libansi_gcl.a(gcl_assert.o)
                0x000000000813bee0                init_gcl_assert
 *fill*         0x000000000813f32f        0x1 90909090
 .text          0x000000000813f330     0xdda0 /usr/lib/gcl-2.6.7/unixport//libansi_gcl.a(gcl_defentry_events.o)
                0x000000000813f330                init_gcl_defentry_events
 .text          0x000000000814d0d0       0x14 /usr/lib/gcl-2.6.7/unixport//libansi_gcl.a(gcl_keysymdef.o)
                0x000000000814d0d0                init_gcl_keysymdef
 *fill*         0x000000000814d0e4        0xc 90909090
 .text          0x000000000814d0f0     0x8680 /usr/lib/gcl-2.6.7/unixport//libansi_gcl.a(gcl_XStruct_l_3.o)
                0x000000000814d0f0                init_gcl_XStruct_l_3
 .text          0x0000000008155770     0x4210 /usr/lib/gcl-2.6.7/unixport//libansi_gcl.a(gcl_tohtml.o)
                0x0000000008155770                init_gcl_tohtml
 .text          0x0000000008159980     0x1f03 /usr/lib/gcl-2.6.7/unixport//libansi_gcl.a(Events.o)
                0x0000000008159980                make_XKeyEvent
                0x000000000815999c                XKeyEvent_same_screen
                0x00000000081599a7                set_XKeyEvent_same_screen
                0x00000000081599b5                XKeyEvent_keycode
                0x00000000081599c0                set_XKeyEvent_keycode
                0x00000000081599ce                XKeyEvent_state
                0x00000000081599d9                set_XKeyEvent_state
                0x00000000081599e7                XKeyEvent_y_root
                0x00000000081599f2                set_XKeyEvent_y_root
                0x0000000008159a00                XKeyEvent_x_root
                0x0000000008159a0b                set_XKeyEvent_x_root
                0x0000000008159a19                XKeyEvent_y
                0x0000000008159a24                set_XKeyEvent_y
                0x0000000008159a32                XKeyEvent_x
                0x0000000008159a3d                set_XKeyEvent_x
                0x0000000008159a4b                XKeyEvent_time
                0x0000000008159a56                set_XKeyEvent_time
                0x0000000008159a64                XKeyEvent_subwindow
                0x0000000008159a6f                set_XKeyEvent_subwindow
                0x0000000008159a7d                XKeyEvent_root
                0x0000000008159a88                set_XKeyEvent_root
                0x0000000008159a96                XKeyEvent_window
                0x0000000008159aa1                set_XKeyEvent_window
                0x0000000008159aaf                XKeyEvent_display
                0x0000000008159aba                set_XKeyEvent_display
                0x0000000008159ac8                XKeyEvent_send_event
                0x0000000008159ad3                set_XKeyEvent_send_event
                0x0000000008159ae1                XKeyEvent_serial
                0x0000000008159aec                set_XKeyEvent_serial
                0x0000000008159afa                XKeyEvent_type
                0x0000000008159b04                set_XKeyEvent_type
                0x0000000008159b11                make_XButtonEvent
                0x0000000008159b2d                XButtonEvent_same_screen
                0x0000000008159b38                set_XButtonEvent_same_screen
                0x0000000008159b46                XButtonEvent_button
                0x0000000008159b51                set_XButtonEvent_button
                0x0000000008159b5f                XButtonEvent_state
                0x0000000008159b6a                set_XButtonEvent_state
                0x0000000008159b78                XButtonEvent_y_root
                0x0000000008159b83                set_XButtonEvent_y_root
                0x0000000008159b91                XButtonEvent_x_root
                0x0000000008159b9c                set_XButtonEvent_x_root
                0x0000000008159baa                XButtonEvent_y
                0x0000000008159bb5                set_XButtonEvent_y
                0x0000000008159bc3                XButtonEvent_x
                0x0000000008159bce                set_XButtonEvent_x
                0x0000000008159bdc                XButtonEvent_time
                0x0000000008159be7                set_XButtonEvent_time
                0x0000000008159bf5                XButtonEvent_subwindow
                0x0000000008159c00                set_XButtonEvent_subwindow
                0x0000000008159c0e                XButtonEvent_root
                0x0000000008159c19                set_XButtonEvent_root
                0x0000000008159c27                XButtonEvent_window
                0x0000000008159c32                set_XButtonEvent_window
                0x0000000008159c40                XButtonEvent_display
                0x0000000008159c4b                set_XButtonEvent_display
                0x0000000008159c59                XButtonEvent_send_event
                0x0000000008159c64                set_XButtonEvent_send_event
                0x0000000008159c72                XButtonEvent_serial
                0x0000000008159c7d                set_XButtonEvent_serial
                0x0000000008159c8b                XButtonEvent_type
                0x0000000008159c95                set_XButtonEvent_type
                0x0000000008159ca2                make_XMotionEvent
                0x0000000008159cbe                XMotionEvent_same_screen
                0x0000000008159cc9                set_XMotionEvent_same_screen
                0x0000000008159cd7                XMotionEvent_is_hint
                0x0000000008159ce3                set_XMotionEvent_is_hint
                0x0000000008159cfb                XMotionEvent_state
                0x0000000008159d06                set_XMotionEvent_state
                0x0000000008159d14                XMotionEvent_y_root
                0x0000000008159d1f                set_XMotionEvent_y_root
                0x0000000008159d2d                XMotionEvent_x_root
                0x0000000008159d38                set_XMotionEvent_x_root
                0x0000000008159d46                XMotionEvent_y
                0x0000000008159d51                set_XMotionEvent_y
                0x0000000008159d5f                XMotionEvent_x
                0x0000000008159d6a                set_XMotionEvent_x
                0x0000000008159d78                XMotionEvent_time
                0x0000000008159d83                set_XMotionEvent_time
                0x0000000008159d91                XMotionEvent_subwindow
                0x0000000008159d9c                set_XMotionEvent_subwindow
                0x0000000008159daa                XMotionEvent_root
                0x0000000008159db5                set_XMotionEvent_root
                0x0000000008159dc3                XMotionEvent_window
                0x0000000008159dce                set_XMotionEvent_window
                0x0000000008159ddc                XMotionEvent_display
                0x0000000008159de7                set_XMotionEvent_display
                0x0000000008159df5                XMotionEvent_send_event
                0x0000000008159e00                set_XMotionEvent_send_event
                0x0000000008159e0e                XMotionEvent_serial
                0x0000000008159e19                set_XMotionEvent_serial
                0x0000000008159e27                XMotionEvent_type
                0x0000000008159e31                set_XMotionEvent_type
                0x0000000008159e3e                make_XCrossingEvent
                0x0000000008159e5a                XCrossingEvent_state
                0x0000000008159e65                set_XCrossingEvent_state
                0x0000000008159e73                XCrossingEvent_focus
                0x0000000008159e7e                set_XCrossingEvent_focus
                0x0000000008159e8c                XCrossingEvent_same_screen
                0x0000000008159e97                set_XCrossingEvent_same_screen
                0x0000000008159ea5                XCrossingEvent_detail
                0x0000000008159eb0                set_XCrossingEvent_detail
                0x0000000008159ebe                XCrossingEvent_mode
                0x0000000008159ec9                set_XCrossingEvent_mode
                0x0000000008159ed7                XCrossingEvent_y_root
                0x0000000008159ee2                set_XCrossingEvent_y_root
                0x0000000008159ef0                XCrossingEvent_x_root
                0x0000000008159efb                set_XCrossingEvent_x_root
                0x0000000008159f09                XCrossingEvent_y
                0x0000000008159f14                set_XCrossingEvent_y
                0x0000000008159f22                XCrossingEvent_x
                0x0000000008159f2d                set_XCrossingEvent_x
                0x0000000008159f3b                XCrossingEvent_time
                0x0000000008159f46                set_XCrossingEvent_time
                0x0000000008159f54                XCrossingEvent_subwindow
                0x0000000008159f5f                set_XCrossingEvent_subwindow
                0x0000000008159f6d                XCrossingEvent_root
                0x0000000008159f78                set_XCrossingEvent_root
                0x0000000008159f86                XCrossingEvent_window
                0x0000000008159f91                set_XCrossingEvent_window
                0x0000000008159f9f                XCrossingEvent_display
                0x0000000008159faa                set_XCrossingEvent_display
                0x0000000008159fb8                XCrossingEvent_send_event
                0x0000000008159fc3                set_XCrossingEvent_send_event
                0x0000000008159fd1                XCrossingEvent_serial
                0x0000000008159fdc                set_XCrossingEvent_serial
                0x0000000008159fea                XCrossingEvent_type
                0x0000000008159ff4                set_XCrossingEvent_type
                0x000000000815a001                make_XFocusChangeEvent
                0x000000000815a01d                XFocusChangeEvent_detail
                0x000000000815a028                set_XFocusChangeEvent_detail
                0x000000000815a036                XFocusChangeEvent_mode
                0x000000000815a041                set_XFocusChangeEvent_mode
                0x000000000815a04f                XFocusChangeEvent_window
                0x000000000815a05a                set_XFocusChangeEvent_window
                0x000000000815a068                XFocusChangeEvent_display
                0x000000000815a073                set_XFocusChangeEvent_display
                0x000000000815a081                XFocusChangeEvent_send_event
                0x000000000815a08c                set_XFocusChangeEvent_send_event
                0x000000000815a09a                XFocusChangeEvent_serial
                0x000000000815a0a5                set_XFocusChangeEvent_serial
                0x000000000815a0b3                XFocusChangeEvent_type
                0x000000000815a0bd                set_XFocusChangeEvent_type
                0x000000000815a0ca                make_XKeymapEvent
                0x000000000815a0e6                XKeymapEvent_key_vector
                0x000000000815a0f1                XKeymapEvent_window
                0x000000000815a0fc                set_XKeymapEvent_window
                0x000000000815a10a                XKeymapEvent_display
                0x000000000815a115                set_XKeymapEvent_display
                0x000000000815a123                XKeymapEvent_send_event
                0x000000000815a12e                set_XKeymapEvent_send_event
                0x000000000815a13c                XKeymapEvent_serial
                0x000000000815a147                set_XKeymapEvent_serial
                0x000000000815a155                XKeymapEvent_type
                0x000000000815a15f                set_XKeymapEvent_type
                0x000000000815a16c                make_XExposeEvent
                0x000000000815a188                XExposeEvent_count
                0x000000000815a193                set_XExposeEvent_count
                0x000000000815a1a1                XExposeEvent_height
                0x000000000815a1ac                set_XExposeEvent_height
                0x000000000815a1ba                XExposeEvent_width
                0x000000000815a1c5                set_XExposeEvent_width
                0x000000000815a1d3                XExposeEvent_y
                0x000000000815a1de                set_XExposeEvent_y
                0x000000000815a1ec                XExposeEvent_x
                0x000000000815a1f7                set_XExposeEvent_x
                0x000000000815a205                XExposeEvent_window
                0x000000000815a210                set_XExposeEvent_window
                0x000000000815a21e                XExposeEvent_display
                0x000000000815a229                set_XExposeEvent_display
                0x000000000815a237                XExposeEvent_send_event
                0x000000000815a242                set_XExposeEvent_send_event
                0x000000000815a250                XExposeEvent_serial
                0x000000000815a25b                set_XExposeEvent_serial
                0x000000000815a269                XExposeEvent_type
                0x000000000815a273                set_XExposeEvent_type
                0x000000000815a280                make_XGraphicsExposeEvent
                0x000000000815a29c                XGraphicsExposeEvent_minor_code
                0x000000000815a2a7                set_XGraphicsExposeEvent_minor_code
                0x000000000815a2b5                XGraphicsExposeEvent_major_code
                0x000000000815a2c0                set_XGraphicsExposeEvent_major_code
                0x000000000815a2ce                XGraphicsExposeEvent_count
                0x000000000815a2d9                set_XGraphicsExposeEvent_count
                0x000000000815a2e7                XGraphicsExposeEvent_height
                0x000000000815a2f2                set_XGraphicsExposeEvent_height
                0x000000000815a300                XGraphicsExposeEvent_width
                0x000000000815a30b                set_XGraphicsExposeEvent_width
                0x000000000815a319                XGraphicsExposeEvent_y
                0x000000000815a324                set_XGraphicsExposeEvent_y
                0x000000000815a332                XGraphicsExposeEvent_x
                0x000000000815a33d                set_XGraphicsExposeEvent_x
                0x000000000815a34b                XGraphicsExposeEvent_drawable
                0x000000000815a356                set_XGraphicsExposeEvent_drawable
                0x000000000815a364                XGraphicsExposeEvent_display
                0x000000000815a36f                set_XGraphicsExposeEvent_display
                0x000000000815a37d                XGraphicsExposeEvent_send_event
                0x000000000815a388                set_XGraphicsExposeEvent_send_event
                0x000000000815a396                XGraphicsExposeEvent_serial
                0x000000000815a3a1                set_XGraphicsExposeEvent_serial
                0x000000000815a3af                XGraphicsExposeEvent_type
                0x000000000815a3b9                set_XGraphicsExposeEvent_type
                0x000000000815a3c6                make_XNoExposeEvent
                0x000000000815a3e2                XNoExposeEvent_minor_code
                0x000000000815a3ed                set_XNoExposeEvent_minor_code
                0x000000000815a3fb                XNoExposeEvent_major_code
                0x000000000815a406                set_XNoExposeEvent_major_code
                0x000000000815a414                XNoExposeEvent_drawable
                0x000000000815a41f                set_XNoExposeEvent_drawable
                0x000000000815a42d                XNoExposeEvent_display
                0x000000000815a438                set_XNoExposeEvent_display
                0x000000000815a446                XNoExposeEvent_send_event
                0x000000000815a451                set_XNoExposeEvent_send_event
                0x000000000815a45f                XNoExposeEvent_serial
                0x000000000815a46a                set_XNoExposeEvent_serial
                0x000000000815a478                XNoExposeEvent_type
                0x000000000815a482                set_XNoExposeEvent_type
                0x000000000815a48f                make_XVisibilityEvent
                0x000000000815a4ab                XVisibilityEvent_state
                0x000000000815a4b6                set_XVisibilityEvent_state
                0x000000000815a4c4                XVisibilityEvent_window
                0x000000000815a4cf                set_XVisibilityEvent_window
                0x000000000815a4dd                XVisibilityEvent_display
                0x000000000815a4e8                set_XVisibilityEvent_display
                0x000000000815a4f6                XVisibilityEvent_send_event
                0x000000000815a501                set_XVisibilityEvent_send_event
                0x000000000815a50f                XVisibilityEvent_serial
                0x000000000815a51a                set_XVisibilityEvent_serial
                0x000000000815a528                XVisibilityEvent_type
                0x000000000815a532                set_XVisibilityEvent_type
                0x000000000815a53f                make_XCreateWindowEvent
                0x000000000815a55b                XCreateWindowEvent_override_redirect
                0x000000000815a566                set_XCreateWindowEvent_override_redirect
                0x000000000815a574                XCreateWindowEvent_border_width
                0x000000000815a57f                set_XCreateWindowEvent_border_width
                0x000000000815a58d                XCreateWindowEvent_height
                0x000000000815a598                set_XCreateWindowEvent_height
                0x000000000815a5a6                XCreateWindowEvent_width
                0x000000000815a5b1                set_XCreateWindowEvent_width
                0x000000000815a5bf                XCreateWindowEvent_y
                0x000000000815a5ca                set_XCreateWindowEvent_y
                0x000000000815a5d8                XCreateWindowEvent_x
                0x000000000815a5e3                set_XCreateWindowEvent_x
                0x000000000815a5f1                XCreateWindowEvent_window
                0x000000000815a5fc                set_XCreateWindowEvent_window
                0x000000000815a60a                XCreateWindowEvent_parent
                0x000000000815a615                set_XCreateWindowEvent_parent
                0x000000000815a623                XCreateWindowEvent_display
                0x000000000815a62e                set_XCreateWindowEvent_display
                0x000000000815a63c                XCreateWindowEvent_send_event
                0x000000000815a647                set_XCreateWindowEvent_send_event
                0x000000000815a655                XCreateWindowEvent_serial
                0x000000000815a660                set_XCreateWindowEvent_serial
                0x000000000815a66e                XCreateWindowEvent_type
                0x000000000815a678                set_XCreateWindowEvent_type
                0x000000000815a685                make_XDestroyWindowEvent
                0x000000000815a6a1                XDestroyWindowEvent_window
                0x000000000815a6ac                set_XDestroyWindowEvent_window
                0x000000000815a6ba                XDestroyWindowEvent_event
                0x000000000815a6c5                set_XDestroyWindowEvent_event
                0x000000000815a6d3                XDestroyWindowEvent_display
                0x000000000815a6de                set_XDestroyWindowEvent_display
                0x000000000815a6ec                XDestroyWindowEvent_send_event
                0x000000000815a6f7                set_XDestroyWindowEvent_send_event
                0x000000000815a705                XDestroyWindowEvent_serial
                0x000000000815a710                set_XDestroyWindowEvent_serial
                0x000000000815a71e                XDestroyWindowEvent_type
                0x000000000815a728                set_XDestroyWindowEvent_type
                0x000000000815a735                make_XUnmapEvent
                0x000000000815a751                XUnmapEvent_from_configure
                0x000000000815a75c                set_XUnmapEvent_from_configure
                0x000000000815a76a                XUnmapEvent_window
                0x000000000815a775                set_XUnmapEvent_window
                0x000000000815a783                XUnmapEvent_event
                0x000000000815a78e                set_XUnmapEvent_event
                0x000000000815a79c                XUnmapEvent_display
                0x000000000815a7a7                set_XUnmapEvent_display
                0x000000000815a7b5                XUnmapEvent_send_event
                0x000000000815a7c0                set_XUnmapEvent_send_event
                0x000000000815a7ce                XUnmapEvent_serial
                0x000000000815a7d9                set_XUnmapEvent_serial
                0x000000000815a7e7                XUnmapEvent_type
                0x000000000815a7f1                set_XUnmapEvent_type
                0x000000000815a7fe                make_XMapEvent
                0x000000000815a81a                XMapEvent_override_redirect
                0x000000000815a825                set_XMapEvent_override_redirect
                0x000000000815a833                XMapEvent_window
                0x000000000815a83e                set_XMapEvent_window
                0x000000000815a84c                XMapEvent_event
                0x000000000815a857                set_XMapEvent_event
                0x000000000815a865                XMapEvent_display
                0x000000000815a870                set_XMapEvent_display
                0x000000000815a87e                XMapEvent_send_event
                0x000000000815a889                set_XMapEvent_send_event
                0x000000000815a897                XMapEvent_serial
                0x000000000815a8a2                set_XMapEvent_serial
                0x000000000815a8b0                XMapEvent_type
                0x000000000815a8ba                set_XMapEvent_type
                0x000000000815a8c7                make_XMapRequestEvent
                0x000000000815a8e3                XMapRequestEvent_window
                0x000000000815a8ee                set_XMapRequestEvent_window
                0x000000000815a8fc                XMapRequestEvent_parent
                0x000000000815a907                set_XMapRequestEvent_parent
                0x000000000815a915                XMapRequestEvent_display
                0x000000000815a920                set_XMapRequestEvent_display
                0x000000000815a92e                XMapRequestEvent_send_event
                0x000000000815a939                set_XMapRequestEvent_send_event
                0x000000000815a947                XMapRequestEvent_serial
                0x000000000815a952                set_XMapRequestEvent_serial
                0x000000000815a960                XMapRequestEvent_type
                0x000000000815a96a                set_XMapRequestEvent_type
                0x000000000815a977                make_XReparentEvent
                0x000000000815a993                XReparentEvent_override_redirect
                0x000000000815a99e                set_XReparentEvent_override_redirect
                0x000000000815a9ac                XReparentEvent_y
                0x000000000815a9b7                set_XReparentEvent_y
                0x000000000815a9c5                XReparentEvent_x
                0x000000000815a9d0                set_XReparentEvent_x
                0x000000000815a9de                XReparentEvent_parent
                0x000000000815a9e9                set_XReparentEvent_parent
                0x000000000815a9f7                XReparentEvent_window
                0x000000000815aa02                set_XReparentEvent_window
                0x000000000815aa10                XReparentEvent_event
                0x000000000815aa1b                set_XReparentEvent_event
                0x000000000815aa29                XReparentEvent_display
                0x000000000815aa34                set_XReparentEvent_display
                0x000000000815aa42                XReparentEvent_send_event
                0x000000000815aa4d                set_XReparentEvent_send_event
                0x000000000815aa5b                XReparentEvent_serial
                0x000000000815aa66                set_XReparentEvent_serial
                0x000000000815aa74                XReparentEvent_type
                0x000000000815aa7e                set_XReparentEvent_type
                0x000000000815aa8b                make_XConfigureEvent
                0x000000000815aaa7                XConfigureEvent_override_redirect
                0x000000000815aab2                set_XConfigureEvent_override_redirect
                0x000000000815aac0                XConfigureEvent_above
                0x000000000815aacb                set_XConfigureEvent_above
                0x000000000815aad9                XConfigureEvent_border_width
                0x000000000815aae4                set_XConfigureEvent_border_width
                0x000000000815aaf2                XConfigureEvent_height
                0x000000000815aafd                set_XConfigureEvent_height
                0x000000000815ab0b                XConfigureEvent_width
                0x000000000815ab16                set_XConfigureEvent_width
                0x000000000815ab24                XConfigureEvent_y
                0x000000000815ab2f                set_XConfigureEvent_y
                0x000000000815ab3d                XConfigureEvent_x
                0x000000000815ab48                set_XConfigureEvent_x
                0x000000000815ab56                XConfigureEvent_window
                0x000000000815ab61                set_XConfigureEvent_window
                0x000000000815ab6f                XConfigureEvent_event
                0x000000000815ab7a                set_XConfigureEvent_event
                0x000000000815ab88                XConfigureEvent_display
                0x000000000815ab93                set_XConfigureEvent_display
                0x000000000815aba1                XConfigureEvent_send_event
                0x000000000815abac                set_XConfigureEvent_send_event
                0x000000000815abba                XConfigureEvent_serial
                0x000000000815abc5                set_XConfigureEvent_serial
                0x000000000815abd3                XConfigureEvent_type
                0x000000000815abdd                set_XConfigureEvent_type
                0x000000000815abea                make_XGravityEvent
                0x000000000815ac06                XGravityEvent_y
                0x000000000815ac11                set_XGravityEvent_y
                0x000000000815ac1f                XGravityEvent_x
                0x000000000815ac2a                set_XGravityEvent_x
                0x000000000815ac38                XGravityEvent_window
                0x000000000815ac43                set_XGravityEvent_window
                0x000000000815ac51                XGravityEvent_event
                0x000000000815ac5c                set_XGravityEvent_event
                0x000000000815ac6a                XGravityEvent_display
                0x000000000815ac75                set_XGravityEvent_display
                0x000000000815ac83                XGravityEvent_send_event
                0x000000000815ac8e                set_XGravityEvent_send_event
                0x000000000815ac9c                XGravityEvent_serial
                0x000000000815aca7                set_XGravityEvent_serial
                0x000000000815acb5                XGravityEvent_type
                0x000000000815acbf                set_XGravityEvent_type
                0x000000000815accc                make_XResizeRequestEvent
                0x000000000815ace8                XResizeRequestEvent_height
                0x000000000815acf3                set_XResizeRequestEvent_height
                0x000000000815ad01                XResizeRequestEvent_width
                0x000000000815ad0c                set_XResizeRequestEvent_width
                0x000000000815ad1a                XResizeRequestEvent_window
                0x000000000815ad25                set_XResizeRequestEvent_window
                0x000000000815ad33                XResizeRequestEvent_display
                0x000000000815ad3e                set_XResizeRequestEvent_display
                0x000000000815ad4c                XResizeRequestEvent_send_event
                0x000000000815ad57                set_XResizeRequestEvent_send_event
                0x000000000815ad65                XResizeRequestEvent_serial
                0x000000000815ad70                set_XResizeRequestEvent_serial
                0x000000000815ad7e                XResizeRequestEvent_type
                0x000000000815ad88                set_XResizeRequestEvent_type
                0x000000000815ad95                make_XConfigureRequestEvent
                0x000000000815adb1                XConfigureRequestEvent_value_mask
                0x000000000815adbc                set_XConfigureRequestEvent_value_mask
                0x000000000815adca                XConfigureRequestEvent_detail
                0x000000000815add5                set_XConfigureRequestEvent_detail
                0x000000000815ade3                XConfigureRequestEvent_above
                0x000000000815adee                set_XConfigureRequestEvent_above
                0x000000000815adfc                XConfigureRequestEvent_border_width
                0x000000000815ae07                set_XConfigureRequestEvent_border_width
                0x000000000815ae15                XConfigureRequestEvent_height
                0x000000000815ae20                set_XConfigureRequestEvent_height
                0x000000000815ae2e                XConfigureRequestEvent_width
                0x000000000815ae39                set_XConfigureRequestEvent_width
                0x000000000815ae47                XConfigureRequestEvent_y
                0x000000000815ae52                set_XConfigureRequestEvent_y
                0x000000000815ae60                XConfigureRequestEvent_x
                0x000000000815ae6b                set_XConfigureRequestEvent_x
                0x000000000815ae79                XConfigureRequestEvent_window
                0x000000000815ae84                set_XConfigureRequestEvent_window
                0x000000000815ae92                XConfigureRequestEvent_parent
                0x000000000815ae9d                set_XConfigureRequestEvent_parent
                0x000000000815aeab                XConfigureRequestEvent_display
                0x000000000815aeb6                set_XConfigureRequestEvent_display
                0x000000000815aec4                XConfigureRequestEvent_send_event
                0x000000000815aecf                set_XConfigureRequestEvent_send_event
                0x000000000815aedd                XConfigureRequestEvent_serial
                0x000000000815aee8                set_XConfigureRequestEvent_serial
                0x000000000815aef6                XConfigureRequestEvent_type
                0x000000000815af00                set_XConfigureRequestEvent_type
                0x000000000815af0d                make_XCirculateEvent
                0x000000000815af29                XCirculateEvent_place
                0x000000000815af34                set_XCirculateEvent_place
                0x000000000815af42                XCirculateEvent_window
                0x000000000815af4d                set_XCirculateEvent_window
                0x000000000815af5b                XCirculateEvent_event
                0x000000000815af66                set_XCirculateEvent_event
                0x000000000815af74                XCirculateEvent_display
                0x000000000815af7f                set_XCirculateEvent_display
                0x000000000815af8d                XCirculateEvent_send_event
                0x000000000815af98                set_XCirculateEvent_send_event
                0x000000000815afa6                XCirculateEvent_serial
                0x000000000815afb1                set_XCirculateEvent_serial
                0x000000000815afbf                XCirculateEvent_type
                0x000000000815afc9                set_XCirculateEvent_type
                0x000000000815afd6                make_XCirculateRequestEvent
                0x000000000815aff2                XCirculateRequestEvent_place
                0x000000000815affd                set_XCirculateRequestEvent_place
                0x000000000815b00b                XCirculateRequestEvent_window
                0x000000000815b016                set_XCirculateRequestEvent_window
                0x000000000815b024                XCirculateRequestEvent_parent
                0x000000000815b02f                set_XCirculateRequestEvent_parent
                0x000000000815b03d                XCirculateRequestEvent_display
                0x000000000815b048                set_XCirculateRequestEvent_display
                0x000000000815b056                XCirculateRequestEvent_send_event
                0x000000000815b061                set_XCirculateRequestEvent_send_event
                0x000000000815b06f                XCirculateRequestEvent_serial
                0x000000000815b07a                set_XCirculateRequestEvent_serial
                0x000000000815b088                XCirculateRequestEvent_type
                0x000000000815b092                set_XCirculateRequestEvent_type
                0x000000000815b09f                make_XPropertyEvent
                0x000000000815b0bb                XPropertyEvent_state
                0x000000000815b0c6                set_XPropertyEvent_state
                0x000000000815b0d4                XPropertyEvent_time
                0x000000000815b0df                set_XPropertyEvent_time
                0x000000000815b0ed                XPropertyEvent_atom
                0x000000000815b0f8                set_XPropertyEvent_atom
                0x000000000815b106                XPropertyEvent_window
                0x000000000815b111                set_XPropertyEvent_window
                0x000000000815b11f                XPropertyEvent_display
                0x000000000815b12a                set_XPropertyEvent_display
                0x000000000815b138                XPropertyEvent_send_event
                0x000000000815b143                set_XPropertyEvent_send_event
                0x000000000815b151                XPropertyEvent_serial
                0x000000000815b15c                set_XPropertyEvent_serial
                0x000000000815b16a                XPropertyEvent_type
                0x000000000815b174                set_XPropertyEvent_type
                0x000000000815b181                make_XSelectionClearEvent
                0x000000000815b19d                XSelectionClearEvent_time
                0x000000000815b1a8                set_XSelectionClearEvent_time
                0x000000000815b1b6                XSelectionClearEvent_selection
                0x000000000815b1c1                set_XSelectionClearEvent_selection
                0x000000000815b1cf                XSelectionClearEvent_window
                0x000000000815b1da                set_XSelectionClearEvent_window
                0x000000000815b1e8                XSelectionClearEvent_display
                0x000000000815b1f3                set_XSelectionClearEvent_display
                0x000000000815b201                XSelectionClearEvent_send_event
                0x000000000815b20c                set_XSelectionClearEvent_send_event
                0x000000000815b21a                XSelectionClearEvent_serial
                0x000000000815b225                set_XSelectionClearEvent_serial
                0x000000000815b233                XSelectionClearEvent_type
                0x000000000815b23d                set_XSelectionClearEvent_type
                0x000000000815b24a                make_XSelectionRequestEvent
                0x000000000815b266                XSelectionRequestEvent_time
                0x000000000815b271                set_XSelectionRequestEvent_time
                0x000000000815b27f                XSelectionRequestEvent_property
                0x000000000815b28a                set_XSelectionRequestEvent_property
                0x000000000815b298                XSelectionRequestEvent_target
                0x000000000815b2a3                set_XSelectionRequestEvent_target
                0x000000000815b2b1                XSelectionRequestEvent_selection
                0x000000000815b2bc                set_XSelectionRequestEvent_selection
                0x000000000815b2ca                XSelectionRequestEvent_requestor
                0x000000000815b2d5                set_XSelectionRequestEvent_requestor
                0x000000000815b2e3                XSelectionRequestEvent_owner
                0x000000000815b2ee                set_XSelectionRequestEvent_owner
                0x000000000815b2fc                XSelectionRequestEvent_display
                0x000000000815b307                set_XSelectionRequestEvent_display
                0x000000000815b315                XSelectionRequestEvent_send_event
                0x000000000815b320                set_XSelectionRequestEvent_send_event
                0x000000000815b32e                XSelectionRequestEvent_serial
                0x000000000815b339                set_XSelectionRequestEvent_serial
                0x000000000815b347                XSelectionRequestEvent_type
                0x000000000815b351                set_XSelectionRequestEvent_type
                0x000000000815b35e                make_XSelectionEvent
                0x000000000815b37a                XSelectionEvent_time
                0x000000000815b385                set_XSelectionEvent_time
                0x000000000815b393                XSelectionEvent_property
                0x000000000815b39e                set_XSelectionEvent_property
                0x000000000815b3ac                XSelectionEvent_target
                0x000000000815b3b7                set_XSelectionEvent_target
                0x000000000815b3c5                XSelectionEvent_selection
                0x000000000815b3d0                set_XSelectionEvent_selection
                0x000000000815b3de                XSelectionEvent_requestor
                0x000000000815b3e9                set_XSelectionEvent_requestor
                0x000000000815b3f7                XSelectionEvent_display
                0x000000000815b402                set_XSelectionEvent_display
                0x000000000815b410                XSelectionEvent_send_event
                0x000000000815b41b                set_XSelectionEvent_send_event
                0x000000000815b429                XSelectionEvent_serial
                0x000000000815b434                set_XSelectionEvent_serial
                0x000000000815b442                XSelectionEvent_type
                0x000000000815b44c                set_XSelectionEvent_type
                0x000000000815b459                make_XColormapEvent
                0x000000000815b475                XColormapEvent_state
                0x000000000815b480                set_XColormapEvent_state
                0x000000000815b48e                XColormapEvent_new
                0x000000000815b499                set_XColormapEvent_new
                0x000000000815b4a7                XColormapEvent_colormap
                0x000000000815b4b2                set_XColormapEvent_colormap
                0x000000000815b4c0                XColormapEvent_window
                0x000000000815b4cb                set_XColormapEvent_window
                0x000000000815b4d9                XColormapEvent_display
                0x000000000815b4e4                set_XColormapEvent_display
                0x000000000815b4f2                XColormapEvent_send_event
                0x000000000815b4fd                set_XColormapEvent_send_event
                0x000000000815b50b                XColormapEvent_serial
                0x000000000815b516                set_XColormapEvent_serial
                0x000000000815b524                XColormapEvent_type
                0x000000000815b52e                set_XColormapEvent_type
                0x000000000815b53b                make_XClientMessageEvent
                0x000000000815b557                XClientMessageEvent_format
                0x000000000815b562                set_XClientMessageEvent_format
                0x000000000815b570                XClientMessageEvent_message_type
                0x000000000815b57b                set_XClientMessageEvent_message_type
                0x000000000815b589                XClientMessageEvent_window
                0x000000000815b594                set_XClientMessageEvent_window
                0x000000000815b5a2                XClientMessageEvent_display
                0x000000000815b5ad                set_XClientMessageEvent_display
                0x000000000815b5bb                XClientMessageEvent_send_event
                0x000000000815b5c6                set_XClientMessageEvent_send_event
                0x000000000815b5d4                XClientMessageEvent_serial
                0x000000000815b5df                set_XClientMessageEvent_serial
                0x000000000815b5ed                XClientMessageEvent_type
                0x000000000815b5f7                set_XClientMessageEvent_type
                0x000000000815b604                make_XMappingEvent
                0x000000000815b620                XMappingEvent_count
                0x000000000815b62b                set_XMappingEvent_count
                0x000000000815b639                XMappingEvent_first_keycode
                0x000000000815b644                set_XMappingEvent_first_keycode
                0x000000000815b652                XMappingEvent_request
                0x000000000815b65d                set_XMappingEvent_request
                0x000000000815b66b                XMappingEvent_window
                0x000000000815b676                set_XMappingEvent_window
                0x000000000815b684                XMappingEvent_display
                0x000000000815b68f                set_XMappingEvent_display
                0x000000000815b69d                XMappingEvent_send_event
                0x000000000815b6a8                set_XMappingEvent_send_event
                0x000000000815b6b6                XMappingEvent_serial
                0x000000000815b6c1                set_XMappingEvent_serial
                0x000000000815b6cf                XMappingEvent_type
                0x000000000815b6d9                set_XMappingEvent_type
                0x000000000815b6e6                make_XErrorEvent
                0x000000000815b702                XErrorEvent_minor_code
                0x000000000815b70e                set_XErrorEvent_minor_code
                0x000000000815b726                XErrorEvent_request_code
                0x000000000815b732                set_XErrorEvent_request_code
                0x000000000815b74a                XErrorEvent_error_code
                0x000000000815b756                set_XErrorEvent_error_code
                0x000000000815b76e                XErrorEvent_serial
                0x000000000815b779                set_XErrorEvent_serial
                0x000000000815b787                XErrorEvent_resourceid
                0x000000000815b792                set_XErrorEvent_resourceid
                0x000000000815b7a0                XErrorEvent_display
                0x000000000815b7ab                set_XErrorEvent_display
                0x000000000815b7b9                XErrorEvent_type
                0x000000000815b7c3                set_XErrorEvent_type
                0x000000000815b7d0                make_XAnyEvent
                0x000000000815b7ec                XAnyEvent_window
                0x000000000815b7f7                set_XAnyEvent_window
                0x000000000815b805                XAnyEvent_display
                0x000000000815b810                set_XAnyEvent_display
                0x000000000815b81e                XAnyEvent_send_event
                0x000000000815b829                set_XAnyEvent_send_event
                0x000000000815b837                XAnyEvent_serial
                0x000000000815b842                set_XAnyEvent_serial
                0x000000000815b850                XAnyEvent_type
                0x000000000815b85a                set_XAnyEvent_type
                0x000000000815b867                make_XEvent
 *fill*         0x000000000815b883        0xd 90909090
 .text          0x000000000815b890     0x2972 /usr/lib/gcl-2.6.7/unixport//libansi_gcl.a(gcl_Xutil.o)
                0x000000000815b890                init_gcl_Xutil
 *fill*         0x000000000815e202        0x2 90909090
 .text          0x000000000815e204     0x137c /usr/lib/gcl-2.6.7/unixport//libansi_gcl.a(XStruct-4.o)
                0x000000000815e204                make_XExtCodes
                0x000000000815e220                XExtCodes_first_error
                0x000000000815e22b                set_XExtCodes_first_error
                0x000000000815e239                XExtCodes_first_event
                0x000000000815e244                set_XExtCodes_first_event
                0x000000000815e252                XExtCodes_major_opcode
                0x000000000815e25d                set_XExtCodes_major_opcode
                0x000000000815e26b                XExtCodes_extension
                0x000000000815e275                set_XExtCodes_extension
                0x000000000815e282                make_XPixmapFormatValues
                0x000000000815e29e                XPixmapFormatValues_scanline_pad
                0x000000000815e2a9                set_XPixmapFormatValues_scanline_pad
                0x000000000815e2b7                XPixmapFormatValues_bits_per_pixel
                0x000000000815e2c2                set_XPixmapFormatValues_bits_per_pixel
                0x000000000815e2d0                XPixmapFormatValues_depth
                0x000000000815e2da                set_XPixmapFormatValues_depth
                0x000000000815e2e7                make_XGCValues
                0x000000000815e303                XGCValues_dashes
                0x000000000815e30f                set_XGCValues_dashes
                0x000000000815e327                XGCValues_dash_offset
                0x000000000815e332                set_XGCValues_dash_offset
                0x000000000815e340                XGCValues_clip_mask
                0x000000000815e34b                set_XGCValues_clip_mask
                0x000000000815e359                XGCValues_clip_y_origin
                0x000000000815e364                set_XGCValues_clip_y_origin
                0x000000000815e372                XGCValues_clip_x_origin
                0x000000000815e37d                set_XGCValues_clip_x_origin
                0x000000000815e38b                XGCValues_graphics_exposures
                0x000000000815e396                set_XGCValues_graphics_exposures
                0x000000000815e3a4                XGCValues_subwindow_mode
                0x000000000815e3af                set_XGCValues_subwindow_mode
                0x000000000815e3bd                XGCValues_font
                0x000000000815e3c8                set_XGCValues_font
                0x000000000815e3d6                XGCValues_ts_y_origin
                0x000000000815e3e1                set_XGCValues_ts_y_origin
                0x000000000815e3ef                XGCValues_ts_x_origin
                0x000000000815e3fa                set_XGCValues_ts_x_origin
                0x000000000815e408                XGCValues_stipple
                0x000000000815e413                set_XGCValues_stipple
                0x000000000815e421                XGCValues_tile
                0x000000000815e42c                set_XGCValues_tile
                0x000000000815e43a                XGCValues_arc_mode
                0x000000000815e445                set_XGCValues_arc_mode
                0x000000000815e453                XGCValues_fill_rule
                0x000000000815e45e                set_XGCValues_fill_rule
                0x000000000815e46c                XGCValues_fill_style
                0x000000000815e477                set_XGCValues_fill_style
                0x000000000815e485                XGCValues_join_style
                0x000000000815e490                set_XGCValues_join_style
                0x000000000815e49e                XGCValues_cap_style
                0x000000000815e4a9                set_XGCValues_cap_style
                0x000000000815e4b7                XGCValues_line_style
                0x000000000815e4c2                set_XGCValues_line_style
                0x000000000815e4d0                XGCValues_line_width
                0x000000000815e4db                set_XGCValues_line_width
                0x000000000815e4e9                XGCValues_background
                0x000000000815e4f4                set_XGCValues_background
                0x000000000815e502                XGCValues_foreground
                0x000000000815e50d                set_XGCValues_foreground
                0x000000000815e51b                XGCValues_plane_mask
                0x000000000815e526                set_XGCValues_plane_mask
                0x000000000815e534                XGCValues_function
                0x000000000815e53e                set_XGCValues_function
                0x000000000815e54b                make_Visual
                0x000000000815e567                Visual_map_entries
                0x000000000815e572                set_Visual_map_entries
                0x000000000815e580                Visual_bits_per_rgb
                0x000000000815e58b                set_Visual_bits_per_rgb
                0x000000000815e599                Visual_blue_mask
                0x000000000815e5a4                set_Visual_blue_mask
                0x000000000815e5b2                Visual_green_mask
                0x000000000815e5bd                set_Visual_green_mask
                0x000000000815e5cb                Visual_red_mask
                0x000000000815e5d6                set_Visual_red_mask
                0x000000000815e5e4                Visual_class
                0x000000000815e5ef                set_Visual_class
                0x000000000815e5fd                Visual_visualid
                0x000000000815e608                set_Visual_visualid
                0x000000000815e616                Visual_ext_data
                0x000000000815e620                set_Visual_ext_data
                0x000000000815e62d                make_Depth
                0x000000000815e649                Depth_visuals
                0x000000000815e654                set_Depth_visuals
                0x000000000815e662                Depth_nvisuals
                0x000000000815e66d                set_Depth_nvisuals
                0x000000000815e67b                Depth_depth
                0x000000000815e685                set_Depth_depth
                0x000000000815e692                make_Screen
                0x000000000815e6ae                Screen_root_input_mask
                0x000000000815e6b9                set_Screen_root_input_mask
                0x000000000815e6c7                Screen_save_unders
                0x000000000815e6d2                set_Screen_save_unders
                0x000000000815e6e0                Screen_backing_store
                0x000000000815e6eb                set_Screen_backing_store
                0x000000000815e6f9                Screen_min_maps
                0x000000000815e704                set_Screen_min_maps
                0x000000000815e712                Screen_max_maps
                0x000000000815e71d                set_Screen_max_maps
                0x000000000815e72b                Screen_black_pixel
                0x000000000815e736                set_Screen_black_pixel
                0x000000000815e744                Screen_white_pixel
                0x000000000815e74f                set_Screen_white_pixel
                0x000000000815e75d                Screen_cmap
                0x000000000815e768                set_Screen_cmap
                0x000000000815e776                Screen_default_gc
                0x000000000815e781                set_Screen_default_gc
                0x000000000815e78f                Screen_root_visual
                0x000000000815e79a                set_Screen_root_visual
                0x000000000815e7a8                Screen_root_depth
                0x000000000815e7b3                set_Screen_root_depth
                0x000000000815e7c1                Screen_depths
                0x000000000815e7cc                set_Screen_depths
                0x000000000815e7da                Screen_ndepths
                0x000000000815e7e5                set_Screen_ndepths
                0x000000000815e7f3                Screen_mheight
                0x000000000815e7fe                set_Screen_mheight
                0x000000000815e80c                Screen_mwidth
                0x000000000815e817                set_Screen_mwidth
                0x000000000815e825                Screen_height
                0x000000000815e830                set_Screen_height
                0x000000000815e83e                Screen_width
                0x000000000815e849                set_Screen_width
                0x000000000815e857                Screen_root
                0x000000000815e862                set_Screen_root
                0x000000000815e870                Screen_display
                0x000000000815e87b                set_Screen_display
                0x000000000815e889                Screen_ext_data
                0x000000000815e893                set_Screen_ext_data
                0x000000000815e8a0                make_ScreenFormat
                0x000000000815e8bc                ScreenFormat_scanline_pad
                0x000000000815e8c7                set_ScreenFormat_scanline_pad
                0x000000000815e8d5                ScreenFormat_bits_per_pixel
                0x000000000815e8e0                set_ScreenFormat_bits_per_pixel
                0x000000000815e8ee                ScreenFormat_depth
                0x000000000815e8f9                set_ScreenFormat_depth
                0x000000000815e907                ScreenFormat_ext_data
                0x000000000815e911                set_ScreenFormat_ext_data
                0x000000000815e91e                make_XSetWindowAttributes
                0x000000000815e93a                XSetWindowAttributes_cursor
                0x000000000815e945                set_XSetWindowAttributes_cursor
                0x000000000815e953                XSetWindowAttributes_colormap
                0x000000000815e95e                set_XSetWindowAttributes_colormap
                0x000000000815e96c                XSetWindowAttributes_override_redirect
                0x000000000815e977                set_XSetWindowAttributes_override_redirect
                0x000000000815e985                XSetWindowAttributes_do_not_propagate_mask
                0x000000000815e990                set_XSetWindowAttributes_do_not_propagate_mask
                0x000000000815e99e                XSetWindowAttributes_event_mask
                0x000000000815e9a9                set_XSetWindowAttributes_event_mask
                0x000000000815e9b7                XSetWindowAttributes_save_under
                0x000000000815e9c2                set_XSetWindowAttributes_save_under
                0x000000000815e9d0                XSetWindowAttributes_backing_pixel
                0x000000000815e9db                set_XSetWindowAttributes_backing_pixel
                0x000000000815e9e9                XSetWindowAttributes_backing_planes
                0x000000000815e9f4                set_XSetWindowAttributes_backing_planes
                0x000000000815ea02                XSetWindowAttributes_backing_store
                0x000000000815ea0d                set_XSetWindowAttributes_backing_store
                0x000000000815ea1b                XSetWindowAttributes_win_gravity
                0x000000000815ea26                set_XSetWindowAttributes_win_gravity
                0x000000000815ea34                XSetWindowAttributes_bit_gravity
                0x000000000815ea3f                set_XSetWindowAttributes_bit_gravity
                0x000000000815ea4d                XSetWindowAttributes_border_pixel
                0x000000000815ea58                set_XSetWindowAttributes_border_pixel
                0x000000000815ea66                XSetWindowAttributes_border_pixmap
                0x000000000815ea71                set_XSetWindowAttributes_border_pixmap
                0x000000000815ea7f                XSetWindowAttributes_background_pixel
                0x000000000815ea8a                set_XSetWindowAttributes_background_pixel
                0x000000000815ea98                XSetWindowAttributes_background_pixmap
                0x000000000815eaa2                set_XSetWindowAttributes_background_pixmap
                0x000000000815eaaf                make_XWindowAttributes
                0x000000000815eacb                XWindowAttributes_screen
                0x000000000815ead6                set_XWindowAttributes_screen
                0x000000000815eae4                XWindowAttributes_override_redirect
                0x000000000815eaef                set_XWindowAttributes_override_redirect
                0x000000000815eafd                XWindowAttributes_do_not_propagate_mask
                0x000000000815eb08                set_XWindowAttributes_do_not_propagate_mask
                0x000000000815eb16                XWindowAttributes_your_event_mask
                0x000000000815eb21                set_XWindowAttributes_your_event_mask
                0x000000000815eb2f                XWindowAttributes_all_event_masks
                0x000000000815eb3a                set_XWindowAttributes_all_event_masks
                0x000000000815eb48                XWindowAttributes_map_state
                0x000000000815eb53                set_XWindowAttributes_map_state
                0x000000000815eb61                XWindowAttributes_map_installed
                0x000000000815eb6c                set_XWindowAttributes_map_installed
                0x000000000815eb7a                XWindowAttributes_colormap
                0x000000000815eb85                set_XWindowAttributes_colormap
                0x000000000815eb93                XWindowAttributes_save_under
                0x000000000815eb9e                set_XWindowAttributes_save_under
                0x000000000815ebac                XWindowAttributes_backing_pixel
                0x000000000815ebb7                set_XWindowAttributes_backing_pixel
                0x000000000815ebc5                XWindowAttributes_backing_planes
                0x000000000815ebd0                set_XWindowAttributes_backing_planes
                0x000000000815ebde                XWindowAttributes_backing_store
                0x000000000815ebe9                set_XWindowAttributes_backing_store
                0x000000000815ebf7                XWindowAttributes_win_gravity
                0x000000000815ec02                set_XWindowAttributes_win_gravity
                0x000000000815ec10                XWindowAttributes_bit_gravity
                0x000000000815ec1b                set_XWindowAttributes_bit_gravity
                0x000000000815ec29                XWindowAttributes_class
                0x000000000815ec34                set_XWindowAttributes_class
                0x000000000815ec42                XWindowAttributes_root
                0x000000000815ec4d                set_XWindowAttributes_root
                0x000000000815ec5b                XWindowAttributes_visual
                0x000000000815ec66                set_XWindowAttributes_visual
                0x000000000815ec74                XWindowAttributes_depth
                0x000000000815ec7f                set_XWindowAttributes_depth
                0x000000000815ec8d                XWindowAttributes_border_width
                0x000000000815ec98                set_XWindowAttributes_border_width
                0x000000000815eca6                XWindowAttributes_height
                0x000000000815ecb1                set_XWindowAttributes_height
                0x000000000815ecbf                XWindowAttributes_width
                0x000000000815ecca                set_XWindowAttributes_width
                0x000000000815ecd8                XWindowAttributes_y
                0x000000000815ece3                set_XWindowAttributes_y
                0x000000000815ecf1                XWindowAttributes_x
                0x000000000815ecfb                set_XWindowAttributes_x
                0x000000000815ed08                make_XHostAddress
                0x000000000815ed24                XHostAddress_address
                0x000000000815ed2f                set_XHostAddress_address
                0x000000000815ed3d                XHostAddress_length
                0x000000000815ed48                set_XHostAddress_length
                0x000000000815ed56                XHostAddress_family
                0x000000000815ed60                set_XHostAddress_family
                0x000000000815ed6d                make_XImage
                0x000000000815ed89                XImage_obdata
                0x000000000815ed94                set_XImage_obdata
                0x000000000815eda2                XImage_blue_mask
                0x000000000815edad                set_XImage_blue_mask
                0x000000000815edbb                XImage_green_mask
                0x000000000815edc6                set_XImage_green_mask
                0x000000000815edd4                XImage_red_mask
                0x000000000815eddf                set_XImage_red_mask
                0x000000000815eded                XImage_bits_per_pixel
                0x000000000815edf8                set_XImage_bits_per_pixel
                0x000000000815ee06                XImage_bytes_per_line
                0x000000000815ee11                set_XImage_bytes_per_line
                0x000000000815ee1f                XImage_depth
                0x000000000815ee2a                set_XImage_depth
                0x000000000815ee38                XImage_bitmap_pad
                0x000000000815ee43                set_XImage_bitmap_pad
                0x000000000815ee51                XImage_bitmap_bit_order
                0x000000000815ee5c                set_XImage_bitmap_bit_order
                0x000000000815ee6a                XImage_bitmap_unit
                0x000000000815ee75                set_XImage_bitmap_unit
                0x000000000815ee83                XImage_byte_order
                0x000000000815ee8e                set_XImage_byte_order
                0x000000000815ee9c                XImage_data
                0x000000000815eea7                set_XImage_data
                0x000000000815eeb5                XImage_format
                0x000000000815eec0                set_XImage_format
                0x000000000815eece                XImage_xoffset
                0x000000000815eed9                set_XImage_xoffset
                0x000000000815eee7                XImage_height
                0x000000000815eef2                set_XImage_height
                0x000000000815ef00                XImage_width
                0x000000000815ef0a                set_XImage_width
                0x000000000815ef17                make_XWindowChanges
                0x000000000815ef33                XWindowChanges_stack_mode
                0x000000000815ef3e                set_XWindowChanges_stack_mode
                0x000000000815ef4c                XWindowChanges_sibling
                0x000000000815ef57                set_XWindowChanges_sibling
                0x000000000815ef65                XWindowChanges_border_width
                0x000000000815ef70                set_XWindowChanges_border_width
                0x000000000815ef7e                XWindowChanges_height
                0x000000000815ef89                set_XWindowChanges_height
                0x000000000815ef97                XWindowChanges_width
                0x000000000815efa2                set_XWindowChanges_width
                0x000000000815efb0                XWindowChanges_y
                0x000000000815efbb                set_XWindowChanges_y
                0x000000000815efc9                XWindowChanges_x
                0x000000000815efd3                set_XWindowChanges_x
                0x000000000815efe0                make_XColor
                0x000000000815effc                XColor_pad
                0x000000000815f008                set_XColor_pad
                0x000000000815f020                XColor_flags
                0x000000000815f02c                set_XColor_flags
                0x000000000815f044                XColor_blue
                0x000000000815f053                set_XColor_blue
                0x000000000815f064                XColor_green
                0x000000000815f073                set_XColor_green
                0x000000000815f084                XColor_red
                0x000000000815f093                set_XColor_red
                0x000000000815f0a4                XColor_pixel
                0x000000000815f0ae                set_XColor_pixel
                0x000000000815f0bb                make_XSegment
                0x000000000815f0d7                XSegment_y2
                0x000000000815f0e4                set_XSegment_y2
                0x000000000815f0f5                XSegment_x2
                0x000000000815f102                set_XSegment_x2
                0x000000000815f113                XSegment_y1
                0x000000000815f120                set_XSegment_y1
                0x000000000815f131                XSegment_x1
                0x000000000815f13d                set_XSegment_x1
                0x000000000815f14d                make_XPoint
                0x000000000815f169                XPoint_y
                0x000000000815f176                set_XPoint_y
                0x000000000815f187                XPoint_x
                0x000000000815f193                set_XPoint_x
                0x000000000815f1a3                make_XRectangle
                0x000000000815f1bf                XRectangle_height
                0x000000000815f1ce                set_XRectangle_height
                0x000000000815f1df                XRectangle_width
                0x000000000815f1ee                set_XRectangle_width
                0x000000000815f1ff                XRectangle_y
                0x000000000815f20c                set_XRectangle_y
                0x000000000815f21d                XRectangle_x
                0x000000000815f229                set_XRectangle_x
                0x000000000815f239                make_XArc
                0x000000000815f255                XArc_angle2
                0x000000000815f262                set_XArc_angle2
                0x000000000815f273                XArc_angle1
                0x000000000815f280                set_XArc_angle1
                0x000000000815f291                XArc_height
                0x000000000815f2a0                set_XArc_height
                0x000000000815f2b1                XArc_width
                0x000000000815f2c0                set_XArc_width
                0x000000000815f2d1                XArc_y
                0x000000000815f2de                set_XArc_y
                0x000000000815f2ef                XArc_x
                0x000000000815f2fb                set_XArc_x
                0x000000000815f30b                make_XKeyboardControl
                0x000000000815f327                XKeyboardControl_auto_repeat_mode
                0x000000000815f332                set_XKeyboardControl_auto_repeat_mode
                0x000000000815f340                XKeyboardControl_key
                0x000000000815f34b                set_XKeyboardControl_key
                0x000000000815f359                XKeyboardControl_led_mode
                0x000000000815f364                set_XKeyboardControl_led_mode
                0x000000000815f372                XKeyboardControl_led
                0x000000000815f37d                set_XKeyboardControl_led
                0x000000000815f38b                XKeyboardControl_bell_duration
                0x000000000815f396                set_XKeyboardControl_bell_duration
                0x000000000815f3a4                XKeyboardControl_bell_pitch
                0x000000000815f3af                set_XKeyboardControl_bell_pitch
                0x000000000815f3bd                XKeyboardControl_bell_percent
                0x000000000815f3c8                set_XKeyboardControl_bell_percent
                0x000000000815f3d6                XKeyboardControl_key_click_percent
                0x000000000815f3e0                set_XKeyboardControl_key_click_percent
                0x000000000815f3ed                make_XKeyboardState
                0x000000000815f409                XKeyboardState_auto_repeats
                0x000000000815f414                set_XKeyboardState_auto_repeats
                0x000000000815f431                XKeyboardState_global_auto_repeat
                0x000000000815f43c                set_XKeyboardState_global_auto_repeat
                0x000000000815f44a                XKeyboardState_led_mask
                0x000000000815f455                set_XKeyboardState_led_mask
                0x000000000815f463                XKeyboardState_bell_duration
                0x000000000815f46e                set_XKeyboardState_bell_duration
                0x000000000815f47c                XKeyboardState_bell_pitch
                0x000000000815f487                set_XKeyboardState_bell_pitch
                0x000000000815f495                XKeyboardState_bell_percent
                0x000000000815f4a0                set_XKeyboardState_bell_percent
                0x000000000815f4ae                XKeyboardState_key_click_percent
                0x000000000815f4b8                set_XKeyboardState_key_click_percent
                0x000000000815f4c5                make_XTimeCoord
                0x000000000815f4e1                XTimeCoord_y
                0x000000000815f4ee                set_XTimeCoord_y
                0x000000000815f4ff                XTimeCoord_x
                0x000000000815f50c                set_XTimeCoord_x
                0x000000000815f51d                XTimeCoord_time
                0x000000000815f527                set_XTimeCoord_time
                0x000000000815f534                make_XModifierKeymap
                0x000000000815f550                XModifierKeymap_modifiermap
                0x000000000815f55b                set_XModifierKeymap_modifiermap
                0x000000000815f569                XModifierKeymap_max_keypermod
                0x000000000815f573                set_XModifierKeymap_max_keypermod
 .text          0x000000000815f580     0xbc32 /usr/lib/gcl-2.6.7/unixport//libansi_gcl.a(gcl_Xlib.o)
                0x000000000815f580                init_gcl_Xlib
 *fill*         0x000000000816b1b2        0xe 90909090
 .text          0x000000000816b1c0     0x51a0 /usr/lib/gcl-2.6.7/unixport//libansi_gcl.a(gcl_Xstruct.o)
                0x000000000816b1c0                init_gcl_Xstruct
 .text          0x0000000008170360      0xc0a /usr/lib/gcl-2.6.7/unixport//libansi_gcl.a(XStruct-2.o)
                0x0000000008170360                make__XQEvent
                0x000000000817037c                _XQEvent_event
                0x00000000081703a2                set__XQEvent_event
                0x00000000081703c3                _XQEvent_next
                0x00000000081703cd                set__XQEvent_next
                0x00000000081703da                make_XCharStruct
                0x00000000081703f6                XCharStruct_attributes
                0x0000000008170405                set_XCharStruct_attributes
                0x0000000008170416                XCharStruct_descent
                0x0000000008170423                set_XCharStruct_descent
                0x0000000008170434                XCharStruct_ascent
                0x0000000008170441                set_XCharStruct_ascent
                0x0000000008170452                XCharStruct_width
                0x000000000817045f                set_XCharStruct_width
                0x0000000008170470                XCharStruct_rbearing
                0x000000000817047d                set_XCharStruct_rbearing
                0x000000000817048e                XCharStruct_lbearing
                0x000000000817049a                set_XCharStruct_lbearing
                0x00000000081704aa                make_XFontProp
                0x00000000081704c6                XFontProp_card32
                0x00000000081704d1                set_XFontProp_card32
                0x00000000081704df                XFontProp_name
                0x00000000081704e9                set_XFontProp_name
                0x00000000081704f6                make_XFontStruct
                0x0000000008170512                XFontStruct_descent
                0x000000000817051d                set_XFontStruct_descent
                0x000000000817052b                XFontStruct_ascent
                0x0000000008170536                set_XFontStruct_ascent
                0x0000000008170544                XFontStruct_per_char
                0x000000000817054f                set_XFontStruct_per_char
                0x000000000817055d                XFontStruct_max_bounds
                0x0000000008170568                XFontStruct_min_bounds
                0x0000000008170573                set_XFontStruct_max_bounds
                0x000000000817058d                set_XFontStruct_min_bounds
                0x00000000081705a7                XFontStruct_properties
                0x00000000081705b2                set_XFontStruct_properties
                0x00000000081705c0                XFontStruct_n_properties
                0x00000000081705cb                set_XFontStruct_n_properties
                0x00000000081705d9                XFontStruct_default_char
                0x00000000081705e4                set_XFontStruct_default_char
                0x00000000081705f2                XFontStruct_all_chars_exist
                0x00000000081705fd                set_XFontStruct_all_chars_exist
                0x000000000817060b                XFontStruct_max_byte1
                0x0000000008170616                set_XFontStruct_max_byte1
                0x0000000008170624                XFontStruct_min_byte1
                0x000000000817062f                set_XFontStruct_min_byte1
                0x000000000817063d                XFontStruct_max_char_or_byte2
                0x0000000008170648                set_XFontStruct_max_char_or_byte2
                0x0000000008170656                XFontStruct_min_char_or_byte2
                0x0000000008170661                set_XFontStruct_min_char_or_byte2
                0x000000000817066f                XFontStruct_direction
                0x000000000817067a                set_XFontStruct_direction
                0x0000000008170688                XFontStruct_fid
                0x0000000008170693                set_XFontStruct_fid
                0x00000000081706a1                XFontStruct_ext_data
                0x00000000081706ab                set_XFontStruct_ext_data
                0x00000000081706b8                make_XTextItem
                0x00000000081706d4                XTextItem_font
                0x00000000081706df                set_XTextItem_font
                0x00000000081706ed                XTextItem_delta
                0x00000000081706f8                set_XTextItem_delta
                0x0000000008170706                XTextItem_nchars
                0x0000000008170711                set_XTextItem_nchars
                0x000000000817071f                XTextItem_chars
                0x0000000008170729                set_XTextItem_chars
                0x0000000008170736                make_XChar2b
                0x0000000008170752                XChar2b_byte2
                0x000000000817075e                set_XChar2b_byte2
                0x0000000008170776                XChar2b_byte1
                0x0000000008170781                set_XChar2b_byte1
                0x0000000008170798                make_XTextItem16
                0x00000000081707b4                XTextItem16_font
                0x00000000081707bf                set_XTextItem16_font
                0x00000000081707cd                XTextItem16_delta
                0x00000000081707d8                set_XTextItem16_delta
                0x00000000081707e6                XTextItem16_nchars
                0x00000000081707f1                set_XTextItem16_nchars
                0x00000000081707ff                XTextItem16_chars
                0x0000000008170809                set_XTextItem16_chars
                0x0000000008170816                make_XEDataObject
                0x0000000008170832                XEDataObject_font
                0x000000000817083c                set_XEDataObject_font
                0x0000000008170849                XEDataObject_pixmap_format
                0x0000000008170853                set_XEDataObject_pixmap_format
                0x0000000008170860                XEDataObject_screen
                0x000000000817086a                set_XEDataObject_screen
                0x0000000008170877                XEDataObject_visual
                0x0000000008170881                set_XEDataObject_visual
                0x000000000817088e                XEDataObject_gc
                0x0000000008170898                set_XEDataObject_gc
                0x00000000081708a5                make_XSizeHints
                0x00000000081708c1                XSizeHints_win_gravity
                0x00000000081708cc                set_XSizeHints_win_gravity
                0x00000000081708da                XSizeHints_base_height
                0x00000000081708e5                set_XSizeHints_base_height
                0x00000000081708f3                XSizeHints_base_width
                0x00000000081708fe                set_XSizeHints_base_width
                0x000000000817090c                XSizeHints_height_inc
                0x0000000008170917                set_XSizeHints_height_inc
                0x0000000008170925                XSizeHints_width_inc
                0x0000000008170930                set_XSizeHints_width_inc
                0x000000000817093e                XSizeHints_max_height
                0x0000000008170949                set_XSizeHints_max_height
                0x0000000008170957                XSizeHints_max_width
                0x0000000008170962                set_XSizeHints_max_width
                0x0000000008170970                XSizeHints_min_height
                0x000000000817097b                set_XSizeHints_min_height
                0x0000000008170989                XSizeHints_min_width
                0x0000000008170994                set_XSizeHints_min_width
                0x00000000081709a2                XSizeHints_height
                0x00000000081709ad                set_XSizeHints_height
                0x00000000081709bb                XSizeHints_width
                0x00000000081709c6                set_XSizeHints_width
                0x00000000081709d4                XSizeHints_y
                0x00000000081709df                set_XSizeHints_y
                0x00000000081709ed                XSizeHints_x
                0x00000000081709f8                set_XSizeHints_x
                0x0000000008170a06                XSizeHints_flags
                0x0000000008170a10                set_XSizeHints_flags
                0x0000000008170a1d                XSizeHints_max_aspect_x
                0x0000000008170a28                set_XSizeHints_max_aspect_x
                0x0000000008170a36                XSizeHints_max_aspect_y
                0x0000000008170a41                set_XSizeHints_max_aspect_y
                0x0000000008170a4f                XSizeHints_min_aspect_x
                0x0000000008170a5a                set_XSizeHints_min_aspect_x
                0x0000000008170a68                XSizeHints_min_aspect_y
                0x0000000008170a73                set_XSizeHints_min_aspect_y
                0x0000000008170a81                make_XWMHints
                0x0000000008170a9d                XWMHints_window_group
                0x0000000008170aa8                set_XWMHints_window_group
                0x0000000008170ab6                XWMHints_icon_mask
                0x0000000008170ac1                set_XWMHints_icon_mask
                0x0000000008170acf                XWMHints_icon_y
                0x0000000008170ada                set_XWMHints_icon_y
                0x0000000008170ae8                XWMHints_icon_x
                0x0000000008170af3                set_XWMHints_icon_x
                0x0000000008170b01                XWMHints_icon_window
                0x0000000008170b0c                set_XWMHints_icon_window
                0x0000000008170b1a                XWMHints_icon_pixmap
                0x0000000008170b25                set_XWMHints_icon_pixmap
                0x0000000008170b33                XWMHints_initial_state
                0x0000000008170b3e                set_XWMHints_initial_state
                0x0000000008170b4c                XWMHints_input
                0x0000000008170b57                set_XWMHints_input
                0x0000000008170b65                XWMHints_flags
                0x0000000008170b6f                set_XWMHints_flags
                0x0000000008170b7c                make_XTextProperty
                0x0000000008170b98                XTextProperty_nitems
                0x0000000008170ba3                set_XTextProperty_nitems
                0x0000000008170bb1                XTextProperty_format
                0x0000000008170bbc                set_XTextProperty_format
                0x0000000008170bca                XTextProperty_encoding
                0x0000000008170bd5                set_XTextProperty_encoding
                0x0000000008170be3                XTextProperty_value
                0x0000000008170bed                set_XTextProperty_value
                0x0000000008170bfa                make_XIconSize
                0x0000000008170c16                XIconSize_height_inc
                0x0000000008170c21                set_XIconSize_height_inc
                0x0000000008170c2f                XIconSize_width_inc
                0x0000000008170c3a                set_XIconSize_width_inc
                0x0000000008170c48                XIconSize_max_height
                0x0000000008170c53                set_XIconSize_max_height
                0x0000000008170c61                XIconSize_max_width
                0x0000000008170c6c                set_XIconSize_max_width
                0x0000000008170c7a                XIconSize_min_height
                0x0000000008170c85                set_XIconSize_min_height
                0x0000000008170c93                XIconSize_min_width
                0x0000000008170c9d                set_XIconSize_min_width
                0x0000000008170caa                make_XClassHint
                0x0000000008170cc6                XClassHint_res_class
                0x0000000008170cd1                set_XClassHint_res_class
                0x0000000008170cdf                XClassHint_res_name
                0x0000000008170ce9                set_XClassHint_res_name
                0x0000000008170cf6                make_XComposeStatus
                0x0000000008170d12                XComposeStatus_chars_matched
                0x0000000008170d1d                set_XComposeStatus_chars_matched
                0x0000000008170d2b                XComposeStatus_compose_ptr
                0x0000000008170d35                set_XComposeStatus_compose_ptr
                0x0000000008170d42                make_XVisualInfo
                0x0000000008170d5e                XVisualInfo_bits_per_rgb
                0x0000000008170d69                set_XVisualInfo_bits_per_rgb
                0x0000000008170d77                XVisualInfo_colormap_size
                0x0000000008170d82                set_XVisualInfo_colormap_size
                0x0000000008170d90                XVisualInfo_blue_mask
                0x0000000008170d9b                set_XVisualInfo_blue_mask
                0x0000000008170da9                XVisualInfo_green_mask
                0x0000000008170db4                set_XVisualInfo_green_mask
                0x0000000008170dc2                XVisualInfo_red_mask
                0x0000000008170dcd                set_XVisualInfo_red_mask
                0x0000000008170ddb                XVisualInfo_class
                0x0000000008170de6                set_XVisualInfo_class
                0x0000000008170df4                XVisualInfo_depth
                0x0000000008170dff                set_XVisualInfo_depth
                0x0000000008170e0d                XVisualInfo_screen
                0x0000000008170e18                set_XVisualInfo_screen
                0x0000000008170e26                XVisualInfo_visualid
                0x0000000008170e31                set_XVisualInfo_visualid
                0x0000000008170e3f                XVisualInfo_visual
                0x0000000008170e49                set_XVisualInfo_visual
                0x0000000008170e56                make_XStandardColormap
                0x0000000008170e72                XStandardColormap_killid
                0x0000000008170e7d                set_XStandardColormap_killid
                0x0000000008170e8b                XStandardColormap_visualid
                0x0000000008170e96                set_XStandardColormap_visualid
                0x0000000008170ea4                XStandardColormap_base_pixel
                0x0000000008170eaf                set_XStandardColormap_base_pixel
                0x0000000008170ebd                XStandardColormap_blue_mult
                0x0000000008170ec8                set_XStandardColormap_blue_mult
                0x0000000008170ed6                XStandardColormap_blue_max
                0x0000000008170ee1                set_XStandardColormap_blue_max
                0x0000000008170eef                XStandardColormap_green_mult
                0x0000000008170efa                set_XStandardColormap_green_mult
                0x0000000008170f08                XStandardColormap_green_max
                0x0000000008170f13                set_XStandardColormap_green_max
                0x0000000008170f21                XStandardColormap_red_mult
                0x0000000008170f2c                set_XStandardColormap_red_mult
                0x0000000008170f3a                XStandardColormap_red_max
                0x0000000008170f45                set_XStandardColormap_red_max
                0x0000000008170f53                XStandardColormap_colormap
                0x0000000008170f5d                set_XStandardColormap_colormap
 *fill*         0x0000000008170f6a        0x6 90909090
 .text          0x0000000008170f70       0x14 /usr/lib/gcl-2.6.7/unixport//libansi_gcl.a(gcl_XAtom.o)
                0x0000000008170f70                init_gcl_XAtom
 *fill*         0x0000000008170f84        0xc 90909090
 .text          0x0000000008170f90       0x14 /usr/lib/gcl-2.6.7/unixport//libansi_gcl.a(gcl_X10.o)
                0x0000000008170f90                init_gcl_X10
 .text          0x0000000008170fa4       0xfe /usr/lib/gcl-2.6.7/unixport//libansi_gcl.a(Xutil-2.o)
                0x0000000008170fa4                IsKeypadKey
                0x0000000008170fc9                IsCursorKey
                0x0000000008170fee                IsPFKey
                0x0000000008171013                IsFunctionKey
                0x0000000008171038                IsMiscFunctionKey
                0x000000000817105d                IsModifierKey
                0x0000000008171082                XUniqueContext
                0x000000000817108f                XStringToContext
 *fill*         0x00000000081710a2        0xe 90909090
 .text          0x00000000081710b0      0x8cd /usr/lib/gcl-2.6.7/unixport//libansi_gcl.a(gcl_Xinit.o)
                0x00000000081710b0                init_gcl_Xinit
 *fill*         0x000000000817197d        0x3 90909090
 .text          0x0000000008171980      0x654 /usr/lib/gcl-2.6.7/unixport//libansi_gcl.a(gcl_index.o)
                0x0000000008171980                init_gcl_index
 *fill*         0x0000000008171fd4        0xc 90909090
 .text          0x0000000008171fe0    0x1f493 /usr/lib/gcl-2.6.7/unixport//libansi_gcl.a(gcl_dwtrans.o)
                0x0000000008171fe0                init_gcl_dwtrans
 *fill*         0x0000000008191473        0xd 90909090
 .text          0x0000000008191480      0x6f0 /usr/lib/gcl-2.6.7/unixport//libansi_gcl.a(gcl_general.o)
                0x0000000008191480                get_c_string
                0x0000000008191490                get_c_string2
                0x00000000081914c0                get_st_point
                0x00000000081914d0                lisp_string
                0x0000000008191500                get_c_string1
                0x0000000008191540                init_gcl_general
 .text          0x0000000008191b70       0x14 /usr/lib/gcl-2.6.7/unixport//libansi_gcl.a(gcl_X.o)
                0x0000000008191b70                init_gcl_X
 *fill*         0x0000000008191b84        0xc 90909090
 .text          0x0000000008191b90     0x297a /usr/lib/gcl-2.6.7/unixport//libansi_gcl.a(gcl_cmplet.o)
                0x0000000008191b90                init_gcl_cmplet
 *fill*         0x000000000819450a        0x6 90909090
 .text          0x0000000008194510     0x2f9b /usr/lib/gcl-2.6.7/unixport//libansi_gcl.a(gcl_cmpflet.o)
                0x0000000008194510                init_gcl_cmpflet
 *fill*         0x00000000081974ab        0x5 90909090
 .text          0x00000000081974b0     0x7842 /usr/lib/gcl-2.6.7/unixport//libansi_gcl.a(gcl_cmpfun.o)
                0x0000000008197500                init_gcl_cmpfun
 *fill*         0x000000000819ecf2        0xe 90909090
 .text          0x000000000819ed00     0x17bd /usr/lib/gcl-2.6.7/unixport//libansi_gcl.a(gcl_cmpspecial.o)
                0x000000000819ed00                init_gcl_cmpspecial
 *fill*         0x00000000081a04bd        0x3 90909090
 .text          0x00000000081a04c0     0x229e /usr/lib/gcl-2.6.7/unixport//libansi_gcl.a(gcl_cmputil.o)
                0x00000000081a04d0                init_gcl_cmputil
 *fill*         0x00000000081a275e        0x2 90909090
 .text          0x00000000081a2760     0x33fb /usr/lib/gcl-2.6.7/unixport//libansi_gcl.a(gcl_cmptag.o)
                0x00000000081a2800                init_gcl_cmptag
 *fill*         0x00000000081a5b5b        0x5 90909090
 .text          0x00000000081a5b60     0x1697 /usr/lib/gcl-2.6.7/unixport//libansi_gcl.a(gcl_cmpblock.o)
                0x00000000081a5b60                init_gcl_cmpblock
 *fill*         0x00000000081a71f7        0x9 90909090
 .text          0x00000000081a7200     0x18c3 /usr/lib/gcl-2.6.7/unixport//libansi_gcl.a(gcl_cmpwt.o)
                0x00000000081a7220                init_gcl_cmpwt
 *fill*         0x00000000081a8ac3        0xd 90909090
 .text          0x00000000081a8ad0     0x6c89 /usr/lib/gcl-2.6.7/unixport//libansi_gcl.a(gcl_cmplam.o)
                0x00000000081a8b50                init_gcl_cmplam
 *fill*         0x00000000081af759        0x7 90909090
 .text          0x00000000081af760      0x4f8 /usr/lib/gcl-2.6.7/unixport//libansi_gcl.a(gcl_cmpvs.o)
                0x00000000081af780                init_gcl_cmpvs
 *fill*         0x00000000081afc58        0x8 90909090
 .text          0x00000000081afc60     0x437c /usr/lib/gcl-2.6.7/unixport//libansi_gcl.a(gcl_cmpenv.o)
                0x00000000081afd50                init_gcl_cmpenv
 *fill*         0x00000000081b3fdc        0x4 90909090
 .text          0x00000000081b3fe0      0xf3d /usr/lib/gcl-2.6.7/unixport//libansi_gcl.a(gcl_cmpcatch.o)
                0x00000000081b3fe0                init_gcl_cmpcatch
 *fill*         0x00000000081b4f1d        0x3 90909090
 .text          0x00000000081b4f20     0x2614 /usr/lib/gcl-2.6.7/unixport//libansi_gcl.a(gcl_cmpmulti.o)
                0x00000000081b4f20                init_gcl_cmpmulti
 *fill*         0x00000000081b7534        0xc 90909090
 .text          0x00000000081b7540     0x8faa /usr/lib/gcl-2.6.7/unixport//libansi_gcl.a(gcl_cmpmain.o)
                0x00000000081b7540                init_gcl_cmpmain
 *fill*         0x00000000081c04ea        0x6 90909090
 .text          0x00000000081c04f0     0xd874 /usr/lib/gcl-2.6.7/unixport//libansi_gcl.a(gcl_cmptop.o)
                0x00000000081c05a0                init_gcl_cmptop
 *fill*         0x00000000081cdd64        0xc 90909090
 .text          0x00000000081cdd70     0x1219 /usr/lib/gcl-2.6.7/unixport//libansi_gcl.a(gcl_cmptype.o)
                0x00000000081cdec0                init_gcl_cmptype
 *fill*         0x00000000081cef89        0x7 90909090
 .text          0x00000000081cef90     0x3b92 /usr/lib/gcl-2.6.7/unixport//libansi_gcl.a(gcl_cmpvar.o)
                0x00000000081cf140                init_gcl_cmpvar
 *fill*         0x00000000081d2b22        0xe 90909090
 .text          0x00000000081d2b30     0x3924 /usr/lib/gcl-2.6.7/unixport//libansi_gcl.a(gcl_cmpif.o)
                0x00000000081d2b60                init_gcl_cmpif
 *fill*         0x00000000081d6454        0xc 90909090
 .text          0x00000000081d6460     0x1132 /usr/lib/gcl-2.6.7/unixport//libansi_gcl.a(gcl_cmpbind.o)
                0x00000000081d6460                init_gcl_cmpbind
 *fill*         0x00000000081d7592        0xe 90909090
 .text          0x00000000081d75a0     0x1ae3 /usr/lib/gcl-2.6.7/unixport//libansi_gcl.a(gcl_cmploc.o)
                0x00000000081d7760                init_gcl_cmploc
 *fill*         0x00000000081d9083        0xd 90909090
 .text          0x00000000081d9090     0x156a /usr/lib/gcl-2.6.7/unixport//libansi_gcl.a(gcl_cmplabel.o)
                0x00000000081d9090                init_gcl_cmplabel
 *fill*         0x00000000081da5fa        0x6 90909090
 .text          0x00000000081da600     0x2b4b /usr/lib/gcl-2.6.7/unixport//libansi_gcl.a(gcl_cmpmap.o)
                0x00000000081da720                init_gcl_cmpmap
 *fill*         0x00000000081dd14b        0x5 90909090
 .text          0x00000000081dd150     0x55ac /usr/lib/gcl-2.6.7/unixport//libansi_gcl.a(gcl_cmpinline.o)
                0x00000000081dd1f0                init_gcl_cmpinline
 *fill*         0x00000000081e26fc        0x4 90909090
 .text          0x00000000081e2700     0x5149 /usr/lib/gcl-2.6.7/unixport//libansi_gcl.a(gcl_cmpeval.o)
                0x00000000081e27a0                init_gcl_cmpeval
 *fill*         0x00000000081e7849        0x7 90909090
 .text          0x00000000081e7850     0x4f2c /usr/lib/gcl-2.6.7/unixport//libansi_gcl.a(gcl_cmpcall.o)
                0x00000000081e7850                init_gcl_cmpcall
 *fill*         0x00000000081ec77c        0x4 90909090
 .text          0x00000000081ec780      0x58d /usr/lib/gcl-2.6.7/unixport//libansi_gcl.a(gcl_pcl_gazonk5.o)
                0x00000000081ec780                init_gcl_pcl_gazonk5
 *fill*         0x00000000081ecd0d        0x3 90909090
 .text          0x00000000081ecd10    0x12525 /usr/lib/gcl-2.6.7/unixport//libansi_gcl.a(gcl_pcl_precom2.o)
                0x00000000081ecd10                init_gcl_pcl_precom2
 *fill*         0x00000000081ff235        0xb 90909090
 .text          0x00000000081ff240     0x79be /usr/lib/gcl-2.6.7/unixport//libansi_gcl.a(gcl_pcl_macros.o)
                0x00000000081ff350                init_gcl_pcl_macros
 *fill*         0x0000000008206bfe        0x2 90909090
 .text          0x0000000008206c00     0xdeda /usr/lib/gcl-2.6.7/unixport//libansi_gcl.a(gcl_pcl_fast_init.o)
                0x0000000008206c00                init_gcl_pcl_fast_init
 *fill*         0x0000000008214ada        0x6 90909090
 .text          0x0000000008214ae0     0x3ecf /usr/lib/gcl-2.6.7/unixport//libansi_gcl.a(gcl_pcl_env.o)
                0x0000000008214ae0                init_gcl_pcl_env
 *fill*         0x00000000082189af        0x1 90909090
 .text          0x00000000082189b0     0x6ec2 /usr/lib/gcl-2.6.7/unixport//libansi_gcl.a(gcl_pcl_walk.o)
                0x0000000008218e40                init_gcl_pcl_walk
 *fill*         0x000000000821f872        0xe 90909090
 .text          0x000000000821f880     0x2e94 /usr/lib/gcl-2.6.7/unixport//libansi_gcl.a(gcl_pcl_defcombin.o)
                0x000000000821f8e0                init_gcl_pcl_defcombin
 *fill*         0x0000000008222714        0xc 90909090
 .text          0x0000000008222720     0xe08c /usr/lib/gcl-2.6.7/unixport//libansi_gcl.a(gcl_pcl_std_class.o)
                0x0000000008222b00                init_gcl_pcl_std_class
 *fill*         0x00000000082307ac        0x4 90909090
 .text          0x00000000082307b0     0x3902 /usr/lib/gcl-2.6.7/unixport//libansi_gcl.a(gcl_pcl_defclass.o)
                0x0000000008230880                init_gcl_pcl_defclass
 *fill*         0x00000000082340b2        0xe 90909090
 .text          0x00000000082340c0      0x37b /usr/lib/gcl-2.6.7/unixport//libansi_gcl.a(gcl_pcl_fsc.o)
                0x0000000008234100                init_gcl_pcl_fsc
 *fill*         0x000000000823443b        0x5 90909090
 .text          0x0000000008234440     0xc581 /usr/lib/gcl-2.6.7/unixport//libansi_gcl.a(gcl_pcl_vector.o)
                0x0000000008234530                init_gcl_pcl_vector
 *fill*         0x00000000082409c1        0xf 90909090
 .text          0x00000000082409d0       0x14 /usr/lib/gcl-2.6.7/unixport//libansi_gcl.a(gcl_pcl_precom1.o)
                0x00000000082409d0                init_gcl_pcl_precom1
 *fill*         0x00000000082409e4        0xc 90909090
 .text          0x00000000082409f0       0x14 /usr/lib/gcl-2.6.7/unixport//libansi_gcl.a(gcl_pcl_compat.o)
                0x00000000082409f0                init_gcl_pcl_compat
 *fill*         0x0000000008240a04        0xc 90909090
 .text          0x0000000008240a10     0x21b1 /usr/lib/gcl-2.6.7/unixport//libansi_gcl.a(gcl_pcl_cpl.o)
                0x0000000008240a10                init_gcl_pcl_cpl
 *fill*         0x0000000008242bc1        0xf 90909090
 .text          0x0000000008242bd0     0x1a5c /usr/lib/gcl-2.6.7/unixport//libansi_gcl.a(gcl_pcl_fngen.o)
                0x0000000008242d40                init_gcl_pcl_fngen
 *fill*         0x000000000824462c        0x4 90909090
 .text          0x0000000008244630     0x6454 /usr/lib/gcl-2.6.7/unixport//libansi_gcl.a(gcl_pcl_slots_boot.o)
                0x0000000008244640                init_gcl_pcl_slots_boot
 *fill*         0x000000000824aa84        0xc 90909090
 .text          0x000000000824aa90      0x55d /usr/lib/gcl-2.6.7/unixport//libansi_gcl.a(gcl_pcl_gazonk7.o)
                0x000000000824aa90                init_gcl_pcl_gazonk7
 *fill*         0x000000000824afed        0x3 90909090
 .text          0x000000000824aff0      0x84d /usr/lib/gcl-2.6.7/unixport//libansi_gcl.a(gcl_pcl_gazonk3.o)
                0x000000000824aff0                init_gcl_pcl_gazonk3
 *fill*         0x000000000824b83d        0x3 90909090
 .text          0x000000000824b840    0x1510f /usr/lib/gcl-2.6.7/unixport//libansi_gcl.a(gcl_pcl_boot.o)
                0x000000000824ba80                init_gcl_pcl_boot
 *fill*         0x000000000826094f        0x1 90909090
 .text          0x0000000008260950     0x3203 /usr/lib/gcl-2.6.7/unixport//libansi_gcl.a(gcl_pcl_impl_low.o)
                0x0000000008260b20                init_gcl_pcl_impl_low
 *fill*         0x0000000008263b53        0xd 90909090
 .text          0x0000000008263b60     0x453a /usr/lib/gcl-2.6.7/unixport//libansi_gcl.a(gcl_pcl_dlisp.o)
                0x0000000008263b60                init_gcl_pcl_dlisp
 *fill*         0x000000000826809a        0x6 90909090
 .text          0x00000000082680a0     0x226c /usr/lib/gcl-2.6.7/unixport//libansi_gcl.a(gcl_pcl_init.o)
                0x00000000082680a0                init_gcl_pcl_init
 *fill*         0x000000000826a30c        0x4 90909090
 .text          0x000000000826a310     0x472c /usr/lib/gcl-2.6.7/unixport//libansi_gcl.a(gcl_pcl_dlisp2.o)
                0x000000000826a330                init_gcl_pcl_dlisp2
 *fill*         0x000000000826ea3c        0x4 90909090
 .text          0x000000000826ea40     0xdffd /usr/lib/gcl-2.6.7/unixport//libansi_gcl.a(gcl_pcl_cache.o)
                0x000000000826eb10                init_gcl_pcl_cache
 *fill*         0x000000000827ca3d        0x3 90909090
 .text          0x000000000827ca40      0x54d /usr/lib/gcl-2.6.7/unixport//libansi_gcl.a(gcl_pcl_gazonk6.o)
                0x000000000827ca40                init_gcl_pcl_gazonk6
 *fill*         0x000000000827cf8d        0x3 90909090
 .text          0x000000000827cf90     0x74db /usr/lib/gcl-2.6.7/unixport//libansi_gcl.a(gcl_pcl_defs.o)
                0x000000000827d020                init_gcl_pcl_defs
 *fill*         0x000000000828446b        0x5 90909090
 .text          0x0000000008284470     0x3b25 /usr/lib/gcl-2.6.7/unixport//libansi_gcl.a(gcl_pcl_low.o)
                0x0000000008284520                init_gcl_pcl_low
 *fill*         0x0000000008287f95        0xb 90909090
 .text          0x0000000008287fa0     0x69bd /usr/lib/gcl-2.6.7/unixport//libansi_gcl.a(gcl_pcl_generic_functions.o)
                0x0000000008287fa0                init_gcl_pcl_generic_functions
 *fill*         0x000000000828e95d        0x3 90909090
 .text          0x000000000828e960      0x50d /usr/lib/gcl-2.6.7/unixport//libansi_gcl.a(gcl_pcl_gazonk4.o)
                0x000000000828e960                init_gcl_pcl_gazonk4
 *fill*         0x000000000828ee6d        0x3 90909090
 .text          0x000000000828ee70     0x6f56 /usr/lib/gcl-2.6.7/unixport//libansi_gcl.a(gcl_pcl_iterate.o)
                0x000000000828ef50                init_gcl_pcl_iterate
 *fill*         0x0000000008295dc6        0xa 90909090
 .text          0x0000000008295dd0      0xbbd /usr/lib/gcl-2.6.7/unixport//libansi_gcl.a(gcl_pcl_gazonk2.o)
                0x0000000008295dd0                init_gcl_pcl_gazonk2
 *fill*         0x000000000829698d        0x3 90909090
 .text          0x0000000008296990    0x10aa8 /usr/lib/gcl-2.6.7/unixport//libansi_gcl.a(gcl_pcl_methods.o)
                0x0000000008296d00                init_gcl_pcl_methods
 *fill*         0x00000000082a7438        0x8 90909090
 .text          0x00000000082a7440     0x179b /usr/lib/gcl-2.6.7/unixport//libansi_gcl.a(gcl_pcl_fin.o)
                0x00000000082a7460                init_gcl_pcl_fin
 *fill*         0x00000000082a8bdb        0x5 90909090
 .text          0x00000000082a8be0      0x345 /usr/lib/gcl-2.6.7/unixport//libansi_gcl.a(gcl_pcl_gazonk1.o)
                0x00000000082a8be0                init_gcl_pcl_gazonk1
 *fill*         0x00000000082a8f25        0xb 90909090
 .text          0x00000000082a8f30      0x345 /usr/lib/gcl-2.6.7/unixport//libansi_gcl.a(gcl_pcl_gazonk0.o)
                0x00000000082a8f30                init_gcl_pcl_gazonk0
 *fill*         0x00000000082a9275        0xb 90909090
 .text          0x00000000082a9280    0x13714 /usr/lib/gcl-2.6.7/unixport//libansi_gcl.a(gcl_pcl_dfun.o)
                0x00000000082a9360                init_gcl_pcl_dfun
 *fill*         0x00000000082bc994        0xc 90909090
 .text          0x00000000082bc9a0       0xb5 /usr/lib/gcl-2.6.7/unixport//libansi_gcl.a(gcl_pcl_fixup.o)
                0x00000000082bc9a0                init_gcl_pcl_fixup
 *fill*         0x00000000082bca55        0xb 90909090
 .text          0x00000000082bca60     0x24f7 /usr/lib/gcl-2.6.7/unixport//libansi_gcl.a(gcl_pcl_slots.o)
                0x00000000082bcb20                init_gcl_pcl_slots
 *fill*         0x00000000082bef57        0x9 90909090
 .text          0x00000000082bef60     0x33b5 /usr/lib/gcl-2.6.7/unixport//libansi_gcl.a(gcl_pcl_combin.o)
                0x00000000082beff0                init_gcl_pcl_combin
 *fill*         0x00000000082c2315        0xb 90909090
 .text          0x00000000082c2320      0x133 /usr/lib/gcl-2.6.7/unixport//libansi_gcl.a(gcl_pcl_pkg.o)
                0x00000000082c2320                init_gcl_pcl_pkg
 *fill*         0x00000000082c2453        0xd 90909090
 .text          0x00000000082c2460     0x6370 /usr/lib/gcl-2.6.7/unixport//libansi_gcl.a(gcl_pcl_braid.o)
                0x00000000082c2480                init_gcl_pcl_braid
 .text          0x00000000082c87d0      0x54d /usr/lib/gcl-2.6.7/unixport//libansi_gcl.a(gcl_pcl_ctypes.o)
                0x00000000082c87d0                init_gcl_pcl_ctypes
 *fill*         0x00000000082c8d1d        0x3 90909090
 .text          0x00000000082c8d20     0x1e5a /usr/lib/gcl-2.6.7/unixport//libansi_gcl.a(gcl_clcs_install.o)
                0x00000000082c8d90                init_gcl_clcs_install
 *fill*         0x00000000082cab7a        0x6 90909090
 .text          0x00000000082cab80     0x25b3 /usr/lib/gcl-2.6.7/unixport//libansi_gcl.a(gcl_clcs_handler.o)
                0x00000000082cac00                init_gcl_clcs_handler
 *fill*         0x00000000082cd133        0xd 90909090
 .text          0x00000000082cd140     0x1bc2 /usr/lib/gcl-2.6.7/unixport//libansi_gcl.a(gcl_clcs_macros.o)
                0x00000000082cd140                init_gcl_clcs_macros
 *fill*         0x00000000082ced02        0xe 90909090
 .text          0x00000000082ced10     0x10fc /usr/lib/gcl-2.6.7/unixport//libansi_gcl.a(gcl_clcs_conditions.o)
                0x00000000082cee20                init_gcl_clcs_conditions
 *fill*         0x00000000082cfe0c        0x4 90909090
 .text          0x00000000082cfe10     0x2815 /usr/lib/gcl-2.6.7/unixport//libansi_gcl.a(gcl_clcs_debugger.o)
                0x00000000082d0120                init_gcl_clcs_debugger
 *fill*         0x00000000082d2625        0xb 90909090
 .text          0x00000000082d2630     0x1e19 /usr/lib/gcl-2.6.7/unixport//libansi_gcl.a(gcl_clcs_top_patches.o)
                0x00000000082d26b0                init_gcl_clcs_top_patches
 *fill*         0x00000000082d4449        0x7 90909090
 .text          0x00000000082d4450     0x819a /usr/lib/gcl-2.6.7/unixport//libansi_gcl.a(gcl_clcs_condition_definitions.o)
                0x00000000082d4fd0                init_gcl_clcs_condition_definitions
 *fill*         0x00000000082dc5ea        0x6 90909090
 .text          0x00000000082dc5f0     0x26a3 /usr/lib/gcl-2.6.7/unixport//libansi_gcl.a(gcl_clcs_restart.o)
                0x00000000082dc770                init_gcl_clcs_restart
 *fill*         0x00000000082dec93        0xd 90909090
 .text          0x00000000082deca0      0xc0d /usr/lib/gcl-2.6.7/unixport//libansi_gcl.a(gcl_clcs_precom.o)
                0x00000000082ded60                init_gcl_clcs_precom
 *fill*         0x00000000082df8ad        0x3 90909090
 .text          0x00000000082df8b0     0x1e30 /usr/lib/gcl-2.6.7/unixport//libansi_gcl.a(gcl_clcs_kcl_cond.o)
                0x00000000082dfa10                init_gcl_clcs_kcl_cond
 .text          0x00000000082e16e0     0x152c /usr/lib/gcl-2.6.7/unixport//libansi_gcl.a(num_sfun.o)
                0x00000000082e16e0                fixnum_expt
                0x00000000082e1720                gcl_init_num_sfun
                0x00000000082e1d20                Llog
                0x00000000082e2250                Lcos
                0x00000000082e22a0                Lexp
                0x00000000082e22f0                Lsin
                0x00000000082e2340                Ltan
                0x00000000082e2550                number_expt
                0x00000000082e29b0                Latan
                0x00000000082e2b50                Lsqrt
                0x00000000082e2ba0                Lexpt
 *fill*         0x00000000082e2c0c        0x4 90909090
 .text          0x00000000082e2c10      0x3ba /usr/lib/gcl-2.6.7/unixport//libansi_gcl.a(num_rand.o)
                0x00000000082e2cc0                gcl_init_num_rand
                0x00000000082e2d30                Lrandom_state_p
                0x00000000082e2da0                Lmake_random_state
                0x00000000082e2e10                Lrandom
 *fill*         0x00000000082e2fca        0x2 90909090
 .text          0x00000000082e2fcc       0xbf /usr/lib/gcl-2.6.7/unixport//libansi_gcl.a(general-c.o)
                0x00000000082e2fcc                char_array
                0x00000000082e2fe7                char_pos
                0x00000000082e2ff5                set_char_array
                0x00000000082e300f                int_array
                0x00000000082e302a                int_pos
                0x00000000082e303a                set_int_array
                0x00000000082e304d                fixnum_array
                0x00000000082e3068                fixnum_pos
                0x00000000082e3078                set_fixnum_array
 *fill*         0x00000000082e308b        0x5 90909090
 .text          0x00000000082e3090       0x6a /usr/lib/libc_nonshared.a(elf-init.oS)
                0x00000000082e3090                __libc_csu_fini
                0x00000000082e30a0                __libc_csu_init
 .text.__i686.get_pc_thunk.bx
                0x00000000082e30fa        0x4 /usr/lib/libc_nonshared.a(elf-init.oS)
                0x00000000082e30fa                __i686.get_pc_thunk.bx
 *fill*         0x00000000082e30fe        0x2 90909090
 .text          0x00000000082e3100       0x3b /usr/lib/libc_nonshared.a(atexit.oS)
                0x00000000082e3100                atexit
 *fill*         0x00000000082e313b        0x5 90909090
 .text          0x00000000082e3140      0x1cc /usr/lib/gcc/i486-linux-gnu/4.4.4/libgcc.a(_moddi3.o)
                0x00000000082e3140                __moddi3
 *fill*         0x00000000082e330c        0x4 90909090
 .text          0x00000000082e3310       0x2a /usr/lib/gcc/i486-linux-gnu/4.4.4/crtend.o
 *fill*         0x00000000082e333a        0x2 90909090
 .text          0x00000000082e333c        0x0 /usr/lib/gcc/i486-linux-gnu/4.4.4/../../../../lib/crtn.o
 *(.gnu.warning)

.fini           0x00000000082e333c       0x1c
 *(.fini)
 .fini          0x00000000082e333c       0x13 /usr/lib/gcc/i486-linux-gnu/4.4.4/../../../../lib/crti.o
                0x00000000082e333c                _fini
 .fini          0x00000000082e334f        0x5 /usr/lib/gcc/i486-linux-gnu/4.4.4/crtbegin.o
 .fini          0x00000000082e3354        0x4 /usr/lib/gcc/i486-linux-gnu/4.4.4/../../../../lib/crtn.o
                0x00000000082e3358                PROVIDE (__etext, .)
                0x00000000082e3358                PROVIDE (_etext, .)
                0x00000000082e3358                PROVIDE (etext, .)

.rodata         0x00000000082e3360     0xc558
 *(.rodata .rodata.* .gnu.linkonce.r.*)
 .rodata        0x00000000082e3360        0x4 /usr/lib/gcc/i486-linux-gnu/4.4.4/../../../../lib/crt1.o
                0x00000000082e3360                _fp_hw
 .rodata.cst4   0x00000000082e3364        0x4 /usr/lib/gcc/i486-linux-gnu/4.4.4/../../../../lib/crt1.o
                0x00000000082e3364                _IO_stdin_used
 .rodata.str1.1
                0x00000000082e3368      0x42f /usr/lib/gcl-2.6.7/unixport//libansi_gcl.a(main.o)
                                        0x449 (size before relaxing)
 *fill*         0x00000000082e3797        0x1 00
 .rodata.str1.4
                0x00000000082e3798      0x13f /usr/lib/gcl-2.6.7/unixport//libansi_gcl.a(main.o)
 *fill*         0x00000000082e38d7        0x1 00
 .rodata        0x00000000082e38d8       0x9c /usr/lib/gcl-2.6.7/unixport//libansi_gcl.a(package.o)
 .rodata.str1.1
                0x00000000082e3974      0x1b2 /usr/lib/gcl-2.6.7/unixport//libansi_gcl.a(package.o)
                                        0x1df (size before relaxing)
 *fill*         0x00000000082e3b26        0x2 00
 .rodata.str1.4
                0x00000000082e3b28      0x1cb /usr/lib/gcl-2.6.7/unixport//libansi_gcl.a(package.o)
 .rodata.str1.1
                0x00000000082e3cf3       0x23 /usr/lib/gcl-2.6.7/unixport//libansi_gcl.a(gcl_readline.o)
                                         0x27 (size before relaxing)
 *fill*         0x00000000082e3d16        0x2 00
 .rodata.str1.4
                0x00000000082e3d18       0x55 /usr/lib/gcl-2.6.7/unixport//libansi_gcl.a(gcl_readline.o)
 .rodata.str1.1
                0x00000000082e3d6d       0xd8 /usr/lib/gcl-2.6.7/unixport//libansi_gcl.a(symbol.o)
                                         0xf5 (size before relaxing)
 *fill*         0x00000000082e3e45        0x3 00
 .rodata.str1.4
                0x00000000082e3e48       0x55 /usr/lib/gcl-2.6.7/unixport//libansi_gcl.a(symbol.o)
 .rodata.str1.1
                0x00000000082e3e9d       0x36 /usr/lib/gcl-2.6.7/unixport//libansi_gcl.a(makefun.o)
 .rodata.str1.1
                0x00000000082e3ed3      0x162 /usr/lib/gcl-2.6.7/unixport//libansi_gcl.a(string.o)
                                        0x1be (size before relaxing)
 *fill*         0x00000000082e4035        0x3 00
 .rodata        0x00000000082e4038       0x3c /usr/lib/gcl-2.6.7/unixport//libansi_gcl.a(string.o)
 .rodata.str1.4
                0x00000000082e4074       0x3d /usr/lib/gcl-2.6.7/unixport//libansi_gcl.a(string.o)
 .rodata.str1.1
                0x00000000082e40b1      0x36f /usr/lib/gcl-2.6.7/unixport//libansi_gcl.a(print.o)
                                        0x384 (size before relaxing)
 .rodata.str1.4
                0x00000000082e4420       0x46 /usr/lib/gcl-2.6.7/unixport//libansi_gcl.a(print.o)
 *fill*         0x00000000082e4466        0x2 00
 .rodata        0x00000000082e4468       0xa8 /usr/lib/gcl-2.6.7/unixport//libansi_gcl.a(print.o)
 .rodata.str1.1
                0x00000000082e4510       0x47 /usr/lib/gcl-2.6.7/unixport//libansi_gcl.a(macros.o)
 *fill*         0x00000000082e4557        0x1 00
 .rodata.str1.4
                0x00000000082e4558       0x29 /usr/lib/gcl-2.6.7/unixport//libansi_gcl.a(macros.o)
 .rodata.str1.1
                0x00000000082e4581       0x66 /usr/lib/gcl-2.6.7/unixport//libansi_gcl.a(multival.o)
 *fill*         0x00000000082e45e7        0x1 00
 .rodata.str1.4
                0x00000000082e45e8      0x2d5 /usr/lib/gcl-2.6.7/unixport//libansi_gcl.a(file.o)
                                        0x315 (size before relaxing)
 .rodata.str1.1
                0x00000000082e48bd      0x500 /usr/lib/gcl-2.6.7/unixport//libansi_gcl.a(file.o)
                                        0x555 (size before relaxing)
 *fill*         0x00000000082e4dbd        0x3 00
 .rodata        0x00000000082e4dc0      0x260 /usr/lib/gcl-2.6.7/unixport//libansi_gcl.a(file.o)
 .rodata.str1.1
                0x00000000082e5020      0xd59 /usr/lib/gcl-2.6.7/unixport//libansi_gcl.a(sys_ansi_gcl.o)
                                        0xd5f (size before relaxing)
 *fill*         0x00000000082e5d79        0x3 00
 .rodata.str1.4
                0x00000000082e5d7c       0x91 /usr/lib/gcl-2.6.7/unixport//libansi_gcl.a(sys_ansi_gcl.o)
 *fill*         0x00000000082e5e0d        0x3 00
 .rodata        0x00000000082e5e10       0x20 /usr/lib/gcl-2.6.7/unixport//libansi_gcl.a(sys_ansi_gcl.o)
 .rodata.str1.1
                0x00000000082e5e30      0x13f /usr/lib/gcl-2.6.7/unixport//libansi_gcl.a(sfasl.o)
                                        0x14d (size before relaxing)
 *fill*         0x00000000082e5f6f        0x1 00
 .rodata.str1.4
                0x00000000082e5f70      0x2f9 /usr/lib/gcl-2.6.7/unixport//libansi_gcl.a(sfasl.o)
 .rodata        0x00000000082e6269       0x6a /usr/lib/gcl-2.6.7/unixport//libansi_gcl.a(sfasl.o)
 .rodata.str1.1
                0x00000000082e62d3       0xb0 /usr/lib/gcl-2.6.7/unixport//libansi_gcl.a(eval.o)
 *fill*         0x00000000082e6383        0x1 00
 .rodata.str1.4
                0x00000000082e6384       0x21 /usr/lib/gcl-2.6.7/unixport//libansi_gcl.a(eval.o)
 *fill*         0x00000000082e63a5        0x3 00
 .rodata        0x00000000082e63a8      0x15c /usr/lib/gcl-2.6.7/unixport//libansi_gcl.a(eval.o)
 .rodata.str1.1
                0x00000000082e6504      0x23a /usr/lib/gcl-2.6.7/unixport//libansi_gcl.a(array.o)
                                        0x24d (size before relaxing)
 *fill*         0x00000000082e673e        0x2 00
 .rodata.str1.4
                0x00000000082e6740      0x1df /usr/lib/gcl-2.6.7/unixport//libansi_gcl.a(array.o)
 *fill*         0x00000000082e691f        0x1 00
 .rodata        0x00000000082e6920      0x210 /usr/lib/gcl-2.6.7/unixport//libansi_gcl.a(array.o)
 .rodata.str1.1
                0x0000000000000000      0x23a /usr/lib/gcl-2.6.7/unixport//libansi_gcl.a(lex.o)
                                         0x10 (size before relaxing)
 .rodata.str1.1
                0x00000000082e6b30       0x26 /usr/lib/gcl-2.6.7/unixport//libansi_gcl.a(earith.o)
 .rodata.str1.1
                0x00000000082e6b56       0xb0 /usr/lib/gcl-2.6.7/unixport//libansi_gcl.a(toplevel.o)
                                         0xc7 (size before relaxing)
 *fill*         0x00000000082e6c06        0x2 00
 .rodata.str1.4
                0x00000000082e6c08       0x8e /usr/lib/gcl-2.6.7/unixport//libansi_gcl.a(toplevel.o)
                                         0xb9 (size before relaxing)
 .rodata.str1.1
                0x00000000082e6c96       0x8e /usr/lib/gcl-2.6.7/unixport//libansi_gcl.a(nsocket.o)
 .rodata.str1.1
                0x00000000082e6d24      0x22d /usr/lib/gcl-2.6.7/unixport//libansi_gcl.a(list.o)
                                        0x2bb (size before relaxing)
 *fill*         0x00000000082e6f51        0x3 00
 .rodata.str1.4
                0x00000000082e6f54       0x83 /usr/lib/gcl-2.6.7/unixport//libansi_gcl.a(list.o)
 .rodata.str1.1
                0x00000000082e6fd7      0x136 /usr/lib/gcl-2.6.7/unixport//libansi_gcl.a(structure.o)
 *fill*         0x00000000082e710d        0x3 00
 .rodata.str1.4
                0x00000000082e7110       0x68 /usr/lib/gcl-2.6.7/unixport//libansi_gcl.a(structure.o)
 .rodata        0x00000000082e7178       0x78 /usr/lib/gcl-2.6.7/unixport//libansi_gcl.a(structure.o)
 .rodata.str1.1
                0x00000000082e71f0       0xe9 /usr/lib/gcl-2.6.7/unixport//libansi_gcl.a(unixfsys.o)
                                        0x102 (size before relaxing)
 *fill*         0x00000000082e72d9        0x3 00
 .rodata.str1.4
                0x00000000082e72dc       0x8d /usr/lib/gcl-2.6.7/unixport//libansi_gcl.a(unixfsys.o)
 .rodata.str1.1
                0x00000000082e7369       0x7e /usr/lib/gcl-2.6.7/unixport//libansi_gcl.a(unixsys.o)
                                         0x85 (size before relaxing)
 *fill*         0x00000000082e73e7        0x1 00
 .rodata.str1.4
                0x00000000082e73e8       0x49 /usr/lib/gcl-2.6.7/unixport//libansi_gcl.a(unixsys.o)
 .rodata        0x00000000082e7431        0x9 /usr/lib/gcl-2.6.7/unixport//libansi_gcl.a(unixsys.o)
 .rodata.str1.1
                0x00000000082e743a      0x103 /usr/lib/gcl-2.6.7/unixport//libansi_gcl.a(predicate.o)
                                        0x124 (size before relaxing)
 *fill*         0x00000000082e753d        0x3 00
 .rodata        0x00000000082e7540       0xac /usr/lib/gcl-2.6.7/unixport//libansi_gcl.a(predicate.o)
 .rodata.str1.1
                0x00000000082e75ec       0x68 /usr/lib/gcl-2.6.7/unixport//libansi_gcl.a(number.o)
 .rodata        0x00000000082e7654       0x18 /usr/lib/gcl-2.6.7/unixport//libansi_gcl.a(number.o)
 .rodata.str1.4
                0x0000000000000000       0x21 /usr/lib/gcl-2.6.7/unixport//libansi_gcl.a(number.o)
 .rodata.cst4   0x00000000082e766c        0x4 /usr/lib/gcl-2.6.7/unixport//libansi_gcl.a(number.o)
 .rodata.str1.1
                0x00000000082e7670       0xc9 /usr/lib/gcl-2.6.7/unixport//libansi_gcl.a(cmpaux.o)
                                         0xdb (size before relaxing)
 *fill*         0x00000000082e7739        0x3 00
 .rodata.str1.4
                0x00000000082e773c       0xad /usr/lib/gcl-2.6.7/unixport//libansi_gcl.a(cmpaux.o)
 *fill*         0x00000000082e77e9        0x3 00
 .rodata        0x00000000082e77ec       0x80 /usr/lib/gcl-2.6.7/unixport//libansi_gcl.a(cmpaux.o)
 .rodata.str1.1
                0x00000000082e786c      0x105 /usr/lib/gcl-2.6.7/unixport//libansi_gcl.a(num_log.o)
                                        0x10d (size before relaxing)
 *fill*         0x00000000082e7971        0x3 00
 .rodata.str1.4
                0x00000000082e7974       0x4f /usr/lib/gcl-2.6.7/unixport//libansi_gcl.a(num_log.o)
 *fill*         0x00000000082e79c3        0x1 00
 .rodata        0x00000000082e79c4       0x80 /usr/lib/gcl-2.6.7/unixport//libansi_gcl.a(num_log.o)
 .rodata.str1.1
                0x00000000082e7a44       0x42 /usr/lib/gcl-2.6.7/unixport//libansi_gcl.a(sequence.o)
                                         0x51 (size before relaxing)
 *fill*         0x00000000082e7a86        0x2 00
 .rodata        0x00000000082e7a88      0x104 /usr/lib/gcl-2.6.7/unixport//libansi_gcl.a(sequence.o)
 .rodata.str1.4
                0x00000000082e7b8c       0x3f /usr/lib/gcl-2.6.7/unixport//libansi_gcl.a(sequence.o)
 .rodata.str1.1
                0x00000000082e7bcb      0x134 /usr/lib/gcl-2.6.7/unixport//libansi_gcl.a(pathname.o)
                                        0x17b (size before relaxing)
 *fill*         0x00000000082e7cff        0x1 00
 .rodata.str1.4
                0x00000000082e7d00       0xde /usr/lib/gcl-2.6.7/unixport//libansi_gcl.a(pathname.o)
 .rodata.str1.1
                0x00000000082e7dde      0x11f /usr/lib/gcl-2.6.7/unixport//libansi_gcl.a(unixsave.o)
                                        0x12e (size before relaxing)
 *fill*         0x00000000082e7efd        0x3 00
 .rodata.str1.4
                0x00000000082e7f00      0x102 /usr/lib/gcl-2.6.7/unixport//libansi_gcl.a(unixsave.o)
 *fill*         0x00000000082e8002        0x2 00
 .rodata.str1.4
                0x00000000082e8004      0x24d /usr/lib/gcl-2.6.7/unixport//libansi_gcl.a(num_co.o)
 .rodata.str1.1
                0x00000000082e8251      0x32b /usr/lib/gcl-2.6.7/unixport//libansi_gcl.a(num_co.o)
                                        0x34a (size before relaxing)
 .rodata        0x00000000082e857c       0xf4 /usr/lib/gcl-2.6.7/unixport//libansi_gcl.a(num_co.o)
 .rodata.cst4   0x00000000082e8670       0x18 /usr/lib/gcl-2.6.7/unixport//libansi_gcl.a(num_co.o)
                                         0x1c (size before relaxing)
 .rodata.cst8   0x00000000082e8688       0x30 /usr/lib/gcl-2.6.7/unixport//libansi_gcl.a(num_co.o)
 .rodata.str1.1
                0x00000000082e86b8       0x49 /usr/lib/gcl-2.6.7/unixport//libansi_gcl.a(usig2.o)
 .rodata.str1.1
                0x00000000082e8701       0x1e /usr/lib/gcl-2.6.7/unixport//libansi_gcl.a(num_pred.o)
 *fill*         0x00000000082e871f        0x1 00
 .rodata        0x00000000082e8720       0x4c /usr/lib/gcl-2.6.7/unixport//libansi_gcl.a(num_pred.o)
 .rodata.str1.1
                0x00000000082e876c       0x81 /usr/lib/gcl-2.6.7/unixport//libansi_gcl.a(let.o)
                                         0x85 (size before relaxing)
 *fill*         0x00000000082e87ed        0x3 00
 .rodata.str1.4
                0x00000000082e87f0      0x10f /usr/lib/gcl-2.6.7/unixport//libansi_gcl.a(let.o)
 .rodata.str1.1
                0x00000000082e88ff       0xd1 /usr/lib/gcl-2.6.7/unixport//libansi_gcl.a(bind.o)
                                         0xe2 (size before relaxing)
 .rodata.str1.1
                0x00000000082e89d0       0x27 /usr/lib/gcl-2.6.7/unixport//libansi_gcl.a(mapfun.o)
 .rodata.str1.1
                0x00000000082e89f7       0x2e /usr/lib/gcl-2.6.7/unixport//libansi_gcl.a(typespec.o)
 *fill*         0x00000000082e8a25        0x3 00
 .rodata        0x00000000082e8a28       0x6c /usr/lib/gcl-2.6.7/unixport//libansi_gcl.a(typespec.o)
 .rodata.str1.1
                0x00000000082e8a94       0xd8 /usr/lib/gcl-2.6.7/unixport//libansi_gcl.a(funlink.o)
                                         0xe9 (size before relaxing)
 .rodata.str1.4
                0x00000000082e8b6c       0x82 /usr/lib/gcl-2.6.7/unixport//libansi_gcl.a(funlink.o)
                                         0xa2 (size before relaxing)
 *fill*         0x00000000082e8bee        0x2 00
 .rodata        0x00000000082e8bf0      0x104 /usr/lib/gcl-2.6.7/unixport//libansi_gcl.a(funlink.o)
 *fill*         0x00000000082e8cf4        0x4 00
 .rodata.cst8   0x00000000082e8cf8        0x8 /usr/lib/gcl-2.6.7/unixport//libansi_gcl.a(funlink.o)
 .rodata        0x00000000082e8d00      0xd5c /usr/lib/gcl-2.6.7/unixport//libansi_gcl.a(new_init.o)
 .rodata.str1.1
                0x00000000082e9a5c       0xb4 /usr/lib/gcl-2.6.7/unixport//libansi_gcl.a(utils.o)
                                         0xd2 (size before relaxing)
 .rodata        0x00000000082e9b10      0x13c /usr/lib/gcl-2.6.7/unixport//libansi_gcl.a(read.o)
 .rodata.str1.1
                0x00000000082e9c4c      0x328 /usr/lib/gcl-2.6.7/unixport//libansi_gcl.a(read.o)
                                        0x354 (size before relaxing)
 .rodata.str1.4
                0x00000000082e9f74      0x599 /usr/lib/gcl-2.6.7/unixport//libansi_gcl.a(read.o)
 *fill*         0x00000000082ea50d        0x3 00
 .rodata.cst4   0x00000000082ea510        0x8 /usr/lib/gcl-2.6.7/unixport//libansi_gcl.a(read.o)
 .rodata.str1.1
                0x00000000082ea518       0x54 /usr/lib/gcl-2.6.7/unixport//libansi_gcl.a(prog.o)
                                         0x7a (size before relaxing)
 .rodata.str1.4
                0x00000000082ea56c       0x28 /usr/lib/gcl-2.6.7/unixport//libansi_gcl.a(prog.o)
 .rodata.str1.1
                0x00000000082ea594       0x25 /usr/lib/gcl-2.6.7/unixport//libansi_gcl.a(catch.o)
                                         0x5b (size before relaxing)
 .rodata.str1.1
                0x00000000082ea5b9       0x74 /usr/lib/gcl-2.6.7/unixport//libansi_gcl.a(iteration.o)
 *fill*         0x00000000082ea62d        0x3 00
 .rodata.str1.4
                0x00000000082ea630       0x65 /usr/lib/gcl-2.6.7/unixport//libansi_gcl.a(iteration.o)
 .rodata.str1.1
                0x00000000082ea695      0x245 /usr/lib/gcl-2.6.7/unixport//libansi_gcl.a(error.o)
                                        0x27c (size before relaxing)
 *fill*         0x00000000082ea8da        0x2 00
 .rodata.str1.4
                0x00000000082ea8dc      0x23c /usr/lib/gcl-2.6.7/unixport//libansi_gcl.a(error.o)
 .rodata.str1.4
                0x00000000082eab18       0x41 /usr/lib/gcl-2.6.7/unixport//libansi_gcl.a(unixtime.o)
 .rodata.str1.1
                0x00000000082eab59       0x68 /usr/lib/gcl-2.6.7/unixport//libansi_gcl.a(unixtime.o)
 *fill*         0x00000000082eabc1        0x7 00
 .rodata.cst8   0x00000000082eabc8        0x8 /usr/lib/gcl-2.6.7/unixport//libansi_gcl.a(unixtime.o)
 .rodata.str1.4
                0x00000000082eabd0       0xbd /usr/lib/gcl-2.6.7/unixport//libansi_gcl.a(format.o)
 *fill*         0x00000000082eac8d        0x3 00
 .rodata        0x00000000082eac90      0x5cc /usr/lib/gcl-2.6.7/unixport//libansi_gcl.a(format.o)
 .rodata.str1.1
                0x00000000082eb25c      0x3bf /usr/lib/gcl-2.6.7/unixport//libansi_gcl.a(format.o)
                                        0x3eb (size before relaxing)
 .rodata.str1.1
                0x00000000082eb61b       0x51 /usr/lib/gcl-2.6.7/unixport//libansi_gcl.a(big.o)
 *fill*         0x00000000082eb66c        0x4 00
 .rodata.cst8   0x00000000082eb670        0x8 /usr/lib/gcl-2.6.7/unixport//libansi_gcl.a(big.o)
 .rodata        0x00000000082eb678       0x70 /usr/lib/gcl-2.6.7/unixport//libansi_gcl.a(hash.o)
 .rodata.str1.1
                0x00000000082eb6e8       0xd5 /usr/lib/gcl-2.6.7/unixport//libansi_gcl.a(hash.o)
                                         0xec (size before relaxing)
 *fill*         0x00000000082eb7bd        0x3 00
 .rodata.str1.4
                0x00000000082eb7c0       0xd2 /usr/lib/gcl-2.6.7/unixport//libansi_gcl.a(hash.o)
 *fill*         0x00000000082eb892        0x2 00
 .rodata.cst4   0x00000000082eb894        0x8 /usr/lib/gcl-2.6.7/unixport//libansi_gcl.a(hash.o)
 .rodata.str1.1
                0x00000000082eb89c        0x8 /usr/lib/gcl-2.6.7/unixport//libansi_gcl.a(num_comp.o)
                                         0x17 (size before relaxing)
 .rodata        0x00000000082eb8a4       0x8c /usr/lib/gcl-2.6.7/unixport//libansi_gcl.a(num_comp.o)
 .rodata.str1.1
                0x00000000082eb930        0x8 /usr/lib/gcl-2.6.7/unixport//libansi_gcl.a(unixfasl.o)
 .rodata.str1.4
                0x00000000082eb938       0x2e /usr/lib/gcl-2.6.7/unixport//libansi_gcl.a(unixfasl.o)
 .rodata.str1.1
                0x00000000082eb966       0x5c /usr/lib/gcl-2.6.7/unixport//libansi_gcl.a(reference.o)
                                         0x6c (size before relaxing)
 .rodata.str1.1
                0x00000000082eb9c2      0x1e1 /usr/lib/gcl-2.6.7/unixport//libansi_gcl.a(fat_string.o)
                                        0x1f8 (size before relaxing)
 *fill*         0x00000000082ebba3        0x1 00
 .rodata.str1.4
                0x00000000082ebba4      0x136 /usr/lib/gcl-2.6.7/unixport//libansi_gcl.a(fat_string.o)
 *fill*         0x00000000082ebcda        0x2 00
 .rodata        0x00000000082ebcdc      0x164 /usr/lib/gcl-2.6.7/unixport//libansi_gcl.a(fat_string.o)
 .rodata.cst4   0x00000000082ebe40        0x4 /usr/lib/gcl-2.6.7/unixport//libansi_gcl.a(fat_string.o)
                                          0x8 (size before relaxing)
 .rodata.str1.1
                0x00000000082ebe44      0x22c /usr/lib/gcl-2.6.7/unixport//libansi_gcl.a(character.o)
                                        0x26e (size before relaxing)
 .rodata.str1.1
                0x00000000082ec070      0x2ec /usr/lib/gcl-2.6.7/unixport//libansi_gcl.a(alloc.o)
 .rodata.str1.4
                0x00000000082ec35c      0x42f /usr/lib/gcl-2.6.7/unixport//libansi_gcl.a(alloc.o)
 *fill*         0x00000000082ec78b        0x1 00
 .rodata.cst4   0x00000000082ec78c        0x4 /usr/lib/gcl-2.6.7/unixport//libansi_gcl.a(alloc.o)
                                          0xc (size before relaxing)
 .rodata.cst8   0x00000000082ec790       0x20 /usr/lib/gcl-2.6.7/unixport//libansi_gcl.a(alloc.o)
 .rodata.str1.1
                0x00000000082ec7b0      0x1a7 /usr/lib/gcl-2.6.7/unixport//libansi_gcl.a(regexpr.o)
 *fill*         0x00000000082ec957        0x1 00
 .rodata        0x00000000082ec958       0xa0 /usr/lib/gcl-2.6.7/unixport//libansi_gcl.a(regexpr.o)
 .rodata.str1.4
                0x00000000082ec9f8       0x23 /usr/lib/gcl-2.6.7/unixport//libansi_gcl.a(regexpr.o)
 .rodata.str1.1
                0x00000000082eca1b       0x26 /usr/lib/gcl-2.6.7/unixport//libansi_gcl.a(usig.o)
                                         0x27 (size before relaxing)
 .rodata.str1.1
                0x00000000082eca41      0x2ac /usr/lib/gcl-2.6.7/unixport//libansi_gcl.a(gbc.o)
                                        0x2d1 (size before relaxing)
 *fill*         0x00000000082ecced        0x3 00
 .rodata.str1.4
                0x00000000082eccf0      0x295 /usr/lib/gcl-2.6.7/unixport//libansi_gcl.a(gbc.o)
 *fill*         0x00000000082ecf85        0x3 00
 .rodata        0x00000000082ecf88      0x198 /usr/lib/gcl-2.6.7/unixport//libansi_gcl.a(gbc.o)
 .rodata.str1.1
                0x00000000082ed120       0x7e /usr/lib/gcl-2.6.7/unixport//libansi_gcl.a(cfun.o)
 *fill*         0x00000000082ed19e        0x2 00
 .rodata.str1.4
                0x00000000082ed1a0       0x1f /usr/lib/gcl-2.6.7/unixport//libansi_gcl.a(cfun.o)
 .rodata.str1.1
                0x00000000082ed1bf       0x15 /usr/lib/gcl-2.6.7/unixport//libansi_gcl.a(nfunlink.o)
 .rodata.str1.4
                0x00000000082ed1d4       0x5a /usr/lib/gcl-2.6.7/unixport//libansi_gcl.a(backq.o)
 .rodata.str1.1
                0x00000000082ed22e       0x10 /usr/lib/gcl-2.6.7/unixport//libansi_gcl.a(backq.o)
 *fill*         0x00000000082ed23e        0x2 00
 .rodata        0x00000000082ed240       0x1c /usr/lib/gcl-2.6.7/unixport//libansi_gcl.a(backq.o)
 .rodata.str1.1
                0x00000000082ed25c       0x92 /usr/lib/gcl-2.6.7/unixport//libansi_gcl.a(run_process.o)
                                         0x97 (size before relaxing)
 *fill*         0x00000000082ed2ee        0x2 00
 .rodata.str1.4
                0x00000000082ed2f0       0x9f /usr/lib/gcl-2.6.7/unixport//libansi_gcl.a(run_process.o)
 .rodata.str1.1
                0x00000000082ed38f       0xd1 /usr/lib/gcl-2.6.7/unixport//libansi_gcl.a(assignment.o)
                                        0x113 (size before relaxing)
 .rodata.str1.4
                0x00000000082ed460       0x75 /usr/lib/gcl-2.6.7/unixport//libansi_gcl.a(assignment.o)
                                         0xa1 (size before relaxing)
 .rodata.str1.1
                0x00000000082ed4d5       0x4d /usr/lib/gcl-2.6.7/unixport//libansi_gcl.a(conditional.o)
                                         0x5f (size before relaxing)
 .rodata.str1.1
                0x00000000082ed522       0x2c /usr/lib/gcl-2.6.7/unixport//libansi_gcl.a(block.o)
                                         0x32 (size before relaxing)
 *fill*         0x00000000082ed54e        0x2 00
 .rodata.str1.4
                0x00000000082ed550       0x20 /usr/lib/gcl-2.6.7/unixport//libansi_gcl.a(block.o)
 .rodata.str1.1
                0x00000000082ed570       0x14 /usr/lib/gcl-2.6.7/unixport//libansi_gcl.a(frame.o)
 .rodata.str1.1
                0x00000000082ed584       0x26 /usr/lib/gcl-2.6.7/unixport//libansi_gcl.a(num_arith.o)
                                         0x2e (size before relaxing)
 *fill*         0x00000000082ed5aa        0x2 00
 .rodata        0x00000000082ed5ac      0x1f8 /usr/lib/gcl-2.6.7/unixport//libansi_gcl.a(num_arith.o)
 .rodata.cst4   0x0000000000000000        0x4 /usr/lib/gcl-2.6.7/unixport//libansi_gcl.a(num_arith.o)
 .rodata.str1.1
                0x00000000082ed7a4      0x189 /usr/lib/gcl-2.6.7/unixport//libansi_gcl.a(sockets.o)
                                        0x18a (size before relaxing)
 *fill*         0x00000000082ed92d        0x3 00
 .rodata.str1.4
                0x00000000082ed930      0x146 /usr/lib/gcl-2.6.7/unixport//libansi_gcl.a(sockets.o)
 *fill*         0x00000000082eda76        0x2 00
 .rodata        0x00000000082eda78       0x60 /usr/lib/gcl-2.6.7/unixport//libansi_gcl.a(sockets.o)
 .rodata.cst4   0x00000000082edad8        0x4 /usr/lib/gcl-2.6.7/unixport//libansi_gcl.a(sockets.o)
                                          0x8 (size before relaxing)
 .rodata.str1.1
                0x00000000082edadc       0x29 /usr/lib/gcl-2.6.7/unixport//libansi_gcl.a(gcl_top.o)
 .rodata.str1.1
                0x0000000000000000       0x19 /usr/lib/gcl-2.6.7/unixport//libansi_gcl.a(gcl_serror.o)
 *fill*         0x00000000082edb05        0x3 00
 .rodata.str1.4
                0x00000000082edb08       0x23 /usr/lib/gcl-2.6.7/unixport//libansi_gcl.a(gcl_defstruct.o)
 .rodata.str1.1
                0x00000000082edb2b       0x3d /usr/lib/gcl-2.6.7/unixport//libansi_gcl.a(gcl_packlib.o)
 .rodata.str1.4
                0x0000000000000000       0x23 /usr/lib/gcl-2.6.7/unixport//libansi_gcl.a(gcl_sloop.o)
 .rodata.str1.1
                0x0000000000000000       0x19 /usr/lib/gcl-2.6.7/unixport//libansi_gcl.a(gcl_sloop.o)
 .rodata.str1.4
                0x0000000000000000       0x23 /usr/lib/gcl-2.6.7/unixport//libansi_gcl.a(gcl_loop.o)
 .rodata.str1.1
                0x0000000000000000       0x19 /usr/lib/gcl-2.6.7/unixport//libansi_gcl.a(gcl_loop.o)
 .rodata.str1.4
                0x00000000082edb68       0x1f /usr/lib/gcl-2.6.7/unixport//libansi_gcl.a(gcl_describe.o)
 .rodata.str1.1
                0x00000000082edb87        0xd /usr/lib/gcl-2.6.7/unixport//libansi_gcl.a(gcl_describe.o)
                                         0x26 (size before relaxing)
 .rodata.str1.1
                0x00000000082edb94        0xa /usr/lib/gcl-2.6.7/unixport//libansi_gcl.a(gcl_index.o)
 .rodata.str1.1
                0x00000000082edb9e       0x1e /usr/lib/gcl-2.6.7/unixport//libansi_gcl.a(gcl_dwtrans.o)
 *fill*         0x00000000082edbbc        0x4 00
 .rodata.cst8   0x00000000082edbc0        0x8 /usr/lib/gcl-2.6.7/unixport//libansi_gcl.a(gcl_dwtrans.o)
 .rodata.str1.1
                0x00000000082edbc8       0x25 /usr/lib/gcl-2.6.7/unixport//libansi_gcl.a(gcl_cmplet.o)
 .rodata.str1.1
                0x00000000082edbed       0x64 /usr/lib/gcl-2.6.7/unixport//libansi_gcl.a(gcl_cmpflet.o)
                                         0x72 (size before relaxing)
 .rodata.str1.1
                0x00000000082edc51      0x28f /usr/lib/gcl-2.6.7/unixport//libansi_gcl.a(gcl_cmpfun.o)
                                        0x2d5 (size before relaxing)
 .rodata.str1.4
                0x00000000082edee0       0x21 /usr/lib/gcl-2.6.7/unixport//libansi_gcl.a(gcl_cmpfun.o)
                                         0x47 (size before relaxing)
 .rodata.str1.1
                0x00000000082edf01       0x2a /usr/lib/gcl-2.6.7/unixport//libansi_gcl.a(gcl_cmpspecial.o)
                                         0x42 (size before relaxing)
 .rodata.str1.1
                0x0000000000000000       0x19 /usr/lib/gcl-2.6.7/unixport//libansi_gcl.a(gcl_cmputil.o)
 .rodata.str1.1
                0x00000000082edf2b       0xc3 /usr/lib/gcl-2.6.7/unixport//libansi_gcl.a(gcl_cmptag.o)
                                         0xec (size before relaxing)
 *fill*         0x00000000082edfee        0x2 00
 .rodata.str1.4
                0x00000000082edff0       0x72 /usr/lib/gcl-2.6.7/unixport//libansi_gcl.a(gcl_cmptag.o)
 .rodata.str1.1
                0x00000000082ee062       0x36 /usr/lib/gcl-2.6.7/unixport//libansi_gcl.a(gcl_cmpblock.o)
                                         0xa3 (size before relaxing)
 .rodata.str1.4
                0x00000000082ee098       0x57 /usr/lib/gcl-2.6.7/unixport//libansi_gcl.a(gcl_cmpblock.o)
 .rodata.str1.1
                0x00000000082ee0ef        0xa /usr/lib/gcl-2.6.7/unixport//libansi_gcl.a(gcl_cmpwt.o)
 .rodata.str1.1
                0x00000000082ee0f9      0x21c /usr/lib/gcl-2.6.7/unixport//libansi_gcl.a(gcl_cmplam.o)
                                        0x296 (size before relaxing)
 *fill*         0x00000000082ee315        0x3 00
 .rodata.str1.4
                0x00000000082ee318       0x73 /usr/lib/gcl-2.6.7/unixport//libansi_gcl.a(gcl_cmplam.o)
 .rodata.str1.1
                0x00000000082ee38b       0x19 /usr/lib/gcl-2.6.7/unixport//libansi_gcl.a(gcl_cmpvs.o)
                                         0x3a (size before relaxing)
 .rodata.str1.1
                0x0000000000000000       0x19 /usr/lib/gcl-2.6.7/unixport//libansi_gcl.a(gcl_cmpenv.o)
                                          0xc (size before relaxing)
 .rodata.str1.1
                0x00000000082ee3a4       0xbf /usr/lib/gcl-2.6.7/unixport//libansi_gcl.a(gcl_cmpcatch.o)
                                        0x120 (size before relaxing)
 *fill*         0x00000000082ee463        0x1 00
 .rodata.str1.4
                0x00000000082ee464       0xf5 /usr/lib/gcl-2.6.7/unixport//libansi_gcl.a(gcl_cmpcatch.o)
                                        0x117 (size before relaxing)
 .rodata.str1.1
                0x00000000082ee559       0xaa /usr/lib/gcl-2.6.7/unixport//libansi_gcl.a(gcl_cmpmulti.o)
                                        0x143 (size before relaxing)
 *fill*         0x00000000082ee603        0x1 00
 .rodata.str1.4
                0x00000000082ee604       0x38 /usr/lib/gcl-2.6.7/unixport//libansi_gcl.a(gcl_cmpmulti.o)
 .rodata.str1.1
                0x00000000082ee63c       0x17 /usr/lib/gcl-2.6.7/unixport//libansi_gcl.a(gcl_cmpmain.o)
 *fill*         0x00000000082ee653        0x1 00
 .rodata.str1.4
                0x00000000082ee654       0x39 /usr/lib/gcl-2.6.7/unixport//libansi_gcl.a(gcl_cmpmain.o)
                                         0x5f (size before relaxing)
 .rodata.str1.1
                0x00000000082ee68d      0x679 /usr/lib/gcl-2.6.7/unixport//libansi_gcl.a(gcl_cmptop.o)
                                        0x77b (size before relaxing)
 *fill*         0x00000000082eed06        0x2 00
 .rodata.str1.4
                0x00000000082eed08      0x172 /usr/lib/gcl-2.6.7/unixport//libansi_gcl.a(gcl_cmptop.o)
 .rodata.str1.1
                0x00000000082eee7a      0x161 /usr/lib/gcl-2.6.7/unixport//libansi_gcl.a(gcl_cmpvar.o)
                                        0x1ab (size before relaxing)
 *fill*         0x00000000082eefdb        0x1 00
 .rodata.str1.4
                0x00000000082eefdc       0xc7 /usr/lib/gcl-2.6.7/unixport//libansi_gcl.a(gcl_cmpvar.o)
 .rodata.str1.1
                0x00000000082ef0a3       0x3b /usr/lib/gcl-2.6.7/unixport//libansi_gcl.a(gcl_cmpif.o)
                                         0x9b (size before relaxing)
 *fill*         0x00000000082ef0de        0x2 00
 .rodata.str1.4
                0x00000000082ef0e0       0x33 /usr/lib/gcl-2.6.7/unixport//libansi_gcl.a(gcl_cmpif.o)
 .rodata.str1.1
                0x00000000082ef113       0x29 /usr/lib/gcl-2.6.7/unixport//libansi_gcl.a(gcl_cmpbind.o)
                                         0x58 (size before relaxing)
 .rodata.str1.1
                0x00000000082ef13c       0x95 /usr/lib/gcl-2.6.7/unixport//libansi_gcl.a(gcl_cmploc.o)
                                         0xee (size before relaxing)
 .rodata.str1.1
                0x00000000082ef1d1       0x57 /usr/lib/gcl-2.6.7/unixport//libansi_gcl.a(gcl_cmplabel.o)
                                         0x6c (size before relaxing)
 .rodata.str1.1
                0x00000000082ef228       0x95 /usr/lib/gcl-2.6.7/unixport//libansi_gcl.a(gcl_cmpmap.o)
                                        0x102 (size before relaxing)
 .rodata.str1.1
                0x00000000082ef2bd       0xc1 /usr/lib/gcl-2.6.7/unixport//libansi_gcl.a(gcl_cmpinline.o)
                                         0xf9 (size before relaxing)
 .rodata.str1.1
                0x00000000082ef37e       0x5b /usr/lib/gcl-2.6.7/unixport//libansi_gcl.a(gcl_cmpeval.o)
                                         0xac (size before relaxing)
 *fill*         0x00000000082ef3d9        0x3 00
 .rodata.str1.4
                0x00000000082ef3dc       0x22 /usr/lib/gcl-2.6.7/unixport//libansi_gcl.a(gcl_cmpeval.o)
 *fill*         0x00000000082ef3fe        0x2 00
 .rodata.cst8   0x00000000082ef400        0x8 /usr/lib/gcl-2.6.7/unixport//libansi_gcl.a(gcl_cmpeval.o)
 .rodata.str1.1
                0x00000000082ef408      0x1fd /usr/lib/gcl-2.6.7/unixport//libansi_gcl.a(gcl_cmpcall.o)
                                        0x2bf (size before relaxing)
 *fill*         0x00000000082ef605        0x3 00
 .rodata.str1.4
                0x00000000082ef608       0x96 /usr/lib/gcl-2.6.7/unixport//libansi_gcl.a(gcl_cmpcall.o)
 .rodata.str1.4
                0x0000000000000000       0x23 /usr/lib/gcl-2.6.7/unixport//libansi_gcl.a(gcl_pcl_fast_init.o)
 .rodata.str1.4
                0x0000000000000000       0x23 /usr/lib/gcl-2.6.7/unixport//libansi_gcl.a(gcl_pcl_walk.o)
 .rodata.str1.1
                0x0000000000000000       0x19 /usr/lib/gcl-2.6.7/unixport//libansi_gcl.a(gcl_pcl_walk.o)
 .rodata.str1.4
                0x0000000000000000       0x23 /usr/lib/gcl-2.6.7/unixport//libansi_gcl.a(gcl_pcl_std_class.o)
 .rodata.str1.4
                0x0000000000000000       0x23 /usr/lib/gcl-2.6.7/unixport//libansi_gcl.a(gcl_pcl_vector.o)
 .rodata.str1.4
                0x0000000000000000       0x23 /usr/lib/gcl-2.6.7/unixport//libansi_gcl.a(gcl_pcl_cpl.o)
 .rodata.str1.4
                0x0000000000000000       0x23 /usr/lib/gcl-2.6.7/unixport//libansi_gcl.a(gcl_pcl_slots_boot.o)
 .rodata.str1.4
                0x0000000000000000       0x23 /usr/lib/gcl-2.6.7/unixport//libansi_gcl.a(gcl_pcl_boot.o)
 .rodata.str1.4
                0x0000000000000000       0x23 /usr/lib/gcl-2.6.7/unixport//libansi_gcl.a(gcl_pcl_dlisp.o)
 .rodata.str1.4
                0x0000000000000000       0x23 /usr/lib/gcl-2.6.7/unixport//libansi_gcl.a(gcl_pcl_dlisp2.o)
 .rodata.str1.4
                0x0000000000000000       0x23 /usr/lib/gcl-2.6.7/unixport//libansi_gcl.a(gcl_pcl_cache.o)
 .rodata.str1.4
                0x0000000000000000       0x23 /usr/lib/gcl-2.6.7/unixport//libansi_gcl.a(gcl_pcl_defs.o)
 .rodata.str1.1
                0x00000000082ef69e       0x19 /usr/lib/gcl-2.6.7/unixport//libansi_gcl.a(gcl_pcl_iterate.o)
 .rodata.str1.4
                0x0000000000000000       0x23 /usr/lib/gcl-2.6.7/unixport//libansi_gcl.a(gcl_pcl_methods.o)
 .rodata.str1.1
                0x0000000000000000       0x19 /usr/lib/gcl-2.6.7/unixport//libansi_gcl.a(gcl_pcl_methods.o)
 .rodata.str1.4
                0x0000000000000000       0x23 /usr/lib/gcl-2.6.7/unixport//libansi_gcl.a(gcl_pcl_dfun.o)
 .rodata.str1.1
                0x0000000000000000       0x19 /usr/lib/gcl-2.6.7/unixport//libansi_gcl.a(gcl_pcl_dfun.o)
 .rodata.str1.4
                0x0000000000000000       0x23 /usr/lib/gcl-2.6.7/unixport//libansi_gcl.a(gcl_pcl_slots.o)
 .rodata.str1.4
                0x0000000000000000       0x23 /usr/lib/gcl-2.6.7/unixport//libansi_gcl.a(gcl_pcl_braid.o)
 *fill*         0x00000000082ef6b7        0x1 00
 .rodata.str1.4
                0x00000000082ef6b8       0x22 /usr/lib/gcl-2.6.7/unixport//libansi_gcl.a(gcl_clcs_install.o)
 .rodata.str1.1
                0x00000000082ef6da       0x1a /usr/lib/gcl-2.6.7/unixport//libansi_gcl.a(gcl_clcs_install.o)
 .rodata.str1.4
                0x0000000000000000       0x22 /usr/lib/gcl-2.6.7/unixport//libansi_gcl.a(gcl_clcs_handler.o)
 .rodata.str1.1
                0x0000000000000000       0x1a /usr/lib/gcl-2.6.7/unixport//libansi_gcl.a(gcl_clcs_handler.o)
 .rodata.str1.4
                0x0000000000000000       0x22 /usr/lib/gcl-2.6.7/unixport//libansi_gcl.a(gcl_clcs_debugger.o)
 .rodata.str1.1
                0x0000000000000000       0x1a /usr/lib/gcl-2.6.7/unixport//libansi_gcl.a(gcl_clcs_debugger.o)
 .rodata.str1.4
                0x0000000000000000       0x22 /usr/lib/gcl-2.6.7/unixport//libansi_gcl.a(gcl_clcs_top_patches.o)
 .rodata.str1.1
                0x0000000000000000       0x1a /usr/lib/gcl-2.6.7/unixport//libansi_gcl.a(gcl_clcs_top_patches.o)
 .rodata.str1.1
                0x0000000000000000       0x19 /usr/lib/gcl-2.6.7/unixport//libansi_gcl.a(gcl_clcs_restart.o)
 .rodata.str1.4
                0x0000000000000000       0x22 /usr/lib/gcl-2.6.7/unixport//libansi_gcl.a(gcl_clcs_kcl_cond.o)
 .rodata.str1.1
                0x0000000000000000       0x33 /usr/lib/gcl-2.6.7/unixport//libansi_gcl.a(gcl_clcs_kcl_cond.o)
 .rodata.str1.1
                0x00000000082ef6f4       0x3c /usr/lib/gcl-2.6.7/unixport//libansi_gcl.a(num_sfun.o)
                                         0x44 (size before relaxing)
 .rodata.str1.4
                0x00000000082ef730       0x6f /usr/lib/gcl-2.6.7/unixport//libansi_gcl.a(num_sfun.o)
 *fill*         0x00000000082ef79f        0x1 00
 .rodata        0x00000000082ef7a0       0x8c /usr/lib/gcl-2.6.7/unixport//libansi_gcl.a(num_sfun.o)
 .rodata.cst4   0x00000000082ef82c        0x4 /usr/lib/gcl-2.6.7/unixport//libansi_gcl.a(num_sfun.o)
 .rodata.cst8   0x00000000082ef830       0x18 /usr/lib/gcl-2.6.7/unixport//libansi_gcl.a(num_sfun.o)
 .rodata.str1.1
                0x00000000082ef848       0x37 /usr/lib/gcl-2.6.7/unixport//libansi_gcl.a(num_rand.o)
 *fill*         0x00000000082ef87f        0x1 00
 .rodata.str1.4
                0x00000000082ef880       0x34 /usr/lib/gcl-2.6.7/unixport//libansi_gcl.a(num_rand.o)
                                         0x32 (size before relaxing)
 .rodata.cst4   0x00000000082ef8b4        0x4 /usr/lib/gcl-2.6.7/unixport//libansi_gcl.a(num_rand.o)

.rodata1
 *(.rodata1)

.eh_frame_hdr   0x00000000082ef8b8       0x14
 *(.eh_frame_hdr)
 .eh_frame_hdr  0x00000000082ef8b8       0x14 /usr/lib/gcc/i486-linux-gnu/4.4.4/libgcc.a(_moddi3.o)

.eh_frame       0x00000000082ef8cc       0x3c
 *(.eh_frame)
 .eh_frame      0x00000000082ef8cc       0x38 /usr/lib/gcc/i486-linux-gnu/4.4.4/libgcc.a(_moddi3.o)
 .eh_frame      0x00000000082ef904        0x4 /usr/lib/gcc/i486-linux-gnu/4.4.4/crtend.o

.gcc_except_table
 *(.gcc_except_table .gcc_except_table.*)
                0x00000000082ef908                . = (ALIGN (0x1000) - ((0x1000 - .) & 0xfff))
                0x00000000082f0000                . = (0x1000 DATA_SEGMENT_ALIGN 0x1000)

.eh_frame
 *(.eh_frame)

.gcc_except_table
 *(.gcc_except_table .gcc_except_table.*)

.tdata
 *(.tdata .tdata.* .gnu.linkonce.td.*)

.tbss
 *(.tbss .tbss.* .gnu.linkonce.tb.*)
 *(.tcommon)

.preinit_array  0x00000000082f0000        0x0
                0x00000000082f0000                PROVIDE (__preinit_array_start, .)
 *(.preinit_array)
                0x00000000082f0000                PROVIDE (__preinit_array_end, .)

.init_array     0x00000000082f0000        0x0
                0x00000000082f0000                PROVIDE (__init_array_start, .)
 *(SORT(.init_array.*))
 *(.init_array)
                0x00000000082f0000                PROVIDE (__init_array_end, .)

.fini_array     0x00000000082f0000        0x0
                0x00000000082f0000                PROVIDE (__fini_array_start, .)
 *(.fini_array)
 *(SORT(.fini_array.*))
                0x00000000082f0000                PROVIDE (__fini_array_end, .)

.ctors          0x00000000082f0000        0x8
 *crtbegin.o(.ctors)
 .ctors         0x00000000082f0000        0x4 /usr/lib/gcc/i486-linux-gnu/4.4.4/crtbegin.o
 *crtbegin?.o(.ctors)
 *(EXCLUDE_FILE(*crtend?.o *crtend.o) .ctors)
 *(SORT(.ctors.*))
 *(.ctors)
 .ctors         0x00000000082f0004        0x4 /usr/lib/gcc/i486-linux-gnu/4.4.4/crtend.o

.dtors          0x00000000082f0008        0x8
 *crtbegin.o(.dtors)
 .dtors         0x00000000082f0008        0x4 /usr/lib/gcc/i486-linux-gnu/4.4.4/crtbegin.o
 *crtbegin?.o(.dtors)
 *(EXCLUDE_FILE(*crtend?.o *crtend.o) .dtors)
 *(SORT(.dtors.*))
 *(.dtors)
 .dtors         0x00000000082f000c        0x4 /usr/lib/gcc/i486-linux-gnu/4.4.4/crtend.o
                0x00000000082f000c                __DTOR_END__

.jcr            0x00000000082f0010        0x4
 *(.jcr)
 .jcr           0x00000000082f0010        0x0 /usr/lib/gcc/i486-linux-gnu/4.4.4/crtbegin.o
 .jcr           0x00000000082f0010        0x4 /usr/lib/gcc/i486-linux-gnu/4.4.4/crtend.o

.data.rel.ro
 *(.data.rel.ro.local* .gnu.linkonce.d.rel.ro.local.*)
 *(.data.rel.ro* .gnu.linkonce.d.rel.ro.*)

.dynamic        0x00000000082f0014       0xf0
 *(.dynamic)
 .dynamic       0x00000000082f0014       0xf0 /usr/lib/gcc/i486-linux-gnu/4.4.4/../../../../lib/crt1.o
                0x00000000082f0014                _DYNAMIC

.got            0x00000000082f0104        0x8
 *(.got)
 .got           0x00000000082f0104        0x8 /usr/lib/gcc/i486-linux-gnu/4.4.4/../../../../lib/crt1.o
 *(.igot)
                0x00000000082f010c                . = (. DATA_SEGMENT_RELRO_END 0xc)

.got.plt        0x00000000082f010c      0x8fc
 *(.got.plt)
 .got.plt       0x00000000082f010c      0x8fc /usr/lib/gcc/i486-linux-gnu/4.4.4/../../../../lib/crt1.o
                0x00000000082f010c                _GLOBAL_OFFSET_TABLE_
 *(.igot.plt)
 .igot.plt      0x0000000000000000        0x0 /usr/lib/gcc/i486-linux-gnu/4.4.4/../../../../lib/crt1.o

.data           0x00000000082f0a20    0x25d30
 *(.data .data.* .gnu.linkonce.d.*)
 .data          0x00000000082f0a20        0x4 /usr/lib/gcc/i486-linux-gnu/4.4.4/../../../../lib/crt1.o
                0x00000000082f0a20                data_start
                0x00000000082f0a20                __data_start
 .data          0x00000000082f0a24        0x0 /usr/lib/gcc/i486-linux-gnu/4.4.4/../../../../lib/crti.o
 .data          0x00000000082f0a24        0x4 /usr/lib/gcc/i486-linux-gnu/4.4.4/crtbegin.o
                0x00000000082f0a24                __dso_handle
 .data          0x00000000082f0a28        0x0 ./user-init.o
 .data          0x00000000082f0a28        0xc /usr/lib/gcl-2.6.7/unixport//libansi_gcl.a(main.o)
                0x00000000082f0a28                page_multiple
                0x00000000082f0a2c                stack_multiple
                0x00000000082f0a30                catch_fatal
 *fill*         0x00000000082f0a34        0xc 00
 .data          0x00000000082f0a40      0x3b4 /usr/lib/gcl-2.6.7/unixport//libansi_gcl.a(package.o)
 .data          0x00000000082f0df4        0x4 /usr/lib/gcl-2.6.7/unixport//libansi_gcl.a(gcl_readline.o)
 *fill*         0x00000000082f0df8        0x8 00
 .data          0x00000000082f0e00      0x134 /usr/lib/gcl-2.6.7/unixport//libansi_gcl.a(symbol.o)
 .data          0x00000000082f0f34        0x0 /usr/lib/gcl-2.6.7/unixport//libansi_gcl.a(makefun.o)
 *fill*         0x00000000082f0f34        0xc 00
 .data          0x00000000082f0f40       0x34 /usr/lib/gcl-2.6.7/unixport//libansi_gcl.a(string.o)
 .data          0x00000000082f0f74        0x4 /usr/lib/gcl-2.6.7/unixport//libansi_gcl.a(print.o)
                0x00000000082f0f74                line_length
 *fill*         0x00000000082f0f78        0x8 00
 .data          0x00000000082f0f80       0x74 /usr/lib/gcl-2.6.7/unixport//libansi_gcl.a(macros.o)
 *fill*         0x00000000082f0ff4        0xc 00
 .data          0x00000000082f1000      0x174 /usr/lib/gcl-2.6.7/unixport//libansi_gcl.a(multival.o)
 *fill*         0x00000000082f1174        0xc 00
 .data          0x00000000082f1180      0x2f4 /usr/lib/gcl-2.6.7/unixport//libansi_gcl.a(file.o)
 *fill*         0x00000000082f1474        0xc 00
 .data          0x00000000082f1480       0x74 /usr/lib/gcl-2.6.7/unixport//libansi_gcl.a(sys_ansi_gcl.o)
 .data          0x00000000082f14f4        0x0 /usr/lib/gcl-2.6.7/unixport//libansi_gcl.a(sfasl.o)
 *fill*         0x00000000082f14f4        0xc 00
 .data          0x00000000082f1500      0x3b4 /usr/lib/gcl-2.6.7/unixport//libansi_gcl.a(eval.o)
 *fill*         0x00000000082f18b4        0xc 00
 .data          0x00000000082f18c0       0x3d /usr/lib/gcl-2.6.7/unixport//libansi_gcl.a(array.o)
 *fill*         0x00000000082f18fd        0x3 00
 .data          0x00000000082f1900       0xb4 /usr/lib/gcl-2.6.7/unixport//libansi_gcl.a(lex.o)
 .data          0x00000000082f19b4        0x0 /usr/lib/gcl-2.6.7/unixport//libansi_gcl.a(earith.o)
 *fill*         0x00000000082f19b4        0xc 00
 .data          0x00000000082f19c0      0x334 /usr/lib/gcl-2.6.7/unixport//libansi_gcl.a(toplevel.o)
 .data          0x00000000082f1cf4        0x0 /usr/lib/gcl-2.6.7/unixport//libansi_gcl.a(nsocket.o)
 *fill*         0x00000000082f1cf4        0xc 00
 .data          0x00000000082f1d00      0x674 /usr/lib/gcl-2.6.7/unixport//libansi_gcl.a(list.o)
 *fill*         0x00000000082f2374        0xc 00
 .data          0x00000000082f2380       0xd4 /usr/lib/gcl-2.6.7/unixport//libansi_gcl.a(structure.o)
                0x00000000082f2380                aet_sizes
 .data          0x00000000082f2454        0x0 /usr/lib/gcl-2.6.7/unixport//libansi_gcl.a(unixfsys.o)
 .data          0x00000000082f2454        0x0 /usr/lib/gcl-2.6.7/unixport//libansi_gcl.a(unixsys.o)
 *fill*         0x00000000082f2454        0xc 00
 .data          0x00000000082f2460       0xf4 /usr/lib/gcl-2.6.7/unixport//libansi_gcl.a(predicate.o)
 .data          0x00000000082f2554        0x0 /usr/lib/gcl-2.6.7/unixport//libansi_gcl.a(number.o)
 .data          0x00000000082f2554        0x0 /usr/lib/gcl-2.6.7/unixport//libansi_gcl.a(cmpaux.o)
 .data          0x00000000082f2554        0x0 /usr/lib/gcl-2.6.7/unixport//libansi_gcl.a(num_log.o)
 .data          0x00000000082f2554        0x0 /usr/lib/gcl-2.6.7/unixport//libansi_gcl.a(sequence.o)
 *fill*         0x00000000082f2554        0xc 00
 .data          0x00000000082f2560       0xb4 /usr/lib/gcl-2.6.7/unixport//libansi_gcl.a(pathname.o)
 .data          0x00000000082f2614        0x0 /usr/lib/gcl-2.6.7/unixport//libansi_gcl.a(unixsave.o)
 .data          0x00000000082f2614        0x0 /usr/lib/gcl-2.6.7/unixport//libansi_gcl.a(num_co.o)
 *fill*         0x00000000082f2614        0xc 00
 .data          0x00000000082f2620       0x40 /usr/lib/gcl-2.6.7/unixport//libansi_gcl.a(usig2.o)
                0x00000000082f2620                signals_handled
                0x00000000082f2640                safety_required
 .data          0x00000000082f2660        0x0 /usr/lib/gcl-2.6.7/unixport//libansi_gcl.a(num_pred.o)
 .data          0x00000000082f2660      0x5b4 /usr/lib/gcl-2.6.7/unixport//libansi_gcl.a(let.o)
 *fill*         0x00000000082f2c14        0xc 00
 .data          0x00000000082f2c20      0x7f4 /usr/lib/gcl-2.6.7/unixport//libansi_gcl.a(bind.o)
                0x00000000082f2c20                Cstd_key_defaults
 *fill*         0x00000000082f3414        0xc 00
 .data          0x00000000082f3420      0x3f4 /usr/lib/gcl-2.6.7/unixport//libansi_gcl.a(mapfun.o)
 .data          0x00000000082f3814        0x0 /usr/lib/gcl-2.6.7/unixport//libansi_gcl.a(typespec.o)
 .data          0x00000000082f3814        0x0 /usr/lib/gcl-2.6.7/unixport//libansi_gcl.a(funlink.o)
 .data          0x00000000082f3814        0x0 /usr/lib/gcl-2.6.7/unixport//libansi_gcl.a(new_init.o)
 .data          0x00000000082f3814        0x0 /usr/lib/gcl-2.6.7/unixport//libansi_gcl.a(utils.o)
 *fill*         0x00000000082f3814        0xc 00
 .data          0x00000000082f3820       0x38 /usr/lib/gcl-2.6.7/unixport//libansi_gcl.a(read.o)
 *fill*         0x00000000082f3858        0x8 00
 .data          0x00000000082f3860      0x3f4 /usr/lib/gcl-2.6.7/unixport//libansi_gcl.a(prog.o)
 *fill*         0x00000000082f3c54        0xc 00
 .data          0x00000000082f3c60      0x134 /usr/lib/gcl-2.6.7/unixport//libansi_gcl.a(catch.o)
 *fill*         0x00000000082f3d94        0xc 00
 .data          0x00000000082f3da0      0x674 /usr/lib/gcl-2.6.7/unixport//libansi_gcl.a(iteration.o)
 *fill*         0x00000000082f4414        0xc 00
 .data          0x00000000082f4420       0xb4 /usr/lib/gcl-2.6.7/unixport//libansi_gcl.a(error.o)
 .data          0x00000000082f44d4        0x0 /usr/lib/gcl-2.6.7/unixport//libansi_gcl.a(unixtime.o)
 *fill*         0x00000000082f44d4        0xc 00
 .data          0x00000000082f44e0      0x274 /usr/lib/gcl-2.6.7/unixport//libansi_gcl.a(format.o)
                0x00000000082f44e0                fmt_big_numeral
                0x00000000082f4520                fmt_numeral
                0x00000000082f45a0                fmt_ordinal
 .data          0x00000000082f4754        0x8 /usr/lib/gcl-2.6.7/unixport//libansi_gcl.a(big.o)
                0x00000000082f4754                gcl_gmp_allocfun
                0x00000000082f4758                gmp_relocatable
 .data          0x00000000082f475c        0x0 /usr/lib/gcl-2.6.7/unixport//libansi_gcl.a(hash.o)
 .data          0x00000000082f475c        0x0 /usr/lib/gcl-2.6.7/unixport//libansi_gcl.a(num_comp.o)
 .data          0x00000000082f475c        0x0 /usr/lib/gcl-2.6.7/unixport//libansi_gcl.a(gmp_wrappers.o)
 .data          0x00000000082f475c        0x0 /usr/lib/gcl-2.6.7/unixport//libansi_gcl.a(unixfasl.o)
 *fill*         0x00000000082f475c        0x4 00
 .data          0x00000000082f4760       0xf4 /usr/lib/gcl-2.6.7/unixport//libansi_gcl.a(reference.o)
 .data          0x00000000082f4854        0x0 /usr/lib/gcl-2.6.7/unixport//libansi_gcl.a(fat_string.o)
 .data          0x00000000082f4854        0x0 /usr/lib/gcl-2.6.7/unixport//libansi_gcl.a(character.o)
 *fill*         0x00000000082f4854        0xc 00
 .data          0x00000000082f4860       0x94 /usr/lib/gcl-2.6.7/unixport//libansi_gcl.a(alloc.o)
                0x00000000082f4860                real_maxpage
                0x00000000082f4864                reserve_pages_for_signal_handler
 .data          0x00000000082f48f4        0x0 /usr/lib/gcl-2.6.7/unixport//libansi_gcl.a(regexpr.o)
 .data          0x00000000082f48f4        0x0 /usr/lib/gcl-2.6.7/unixport//libansi_gcl.a(usig.o)
 .data          0x00000000082f48f4        0x4 /usr/lib/gcl-2.6.7/unixport//libansi_gcl.a(gbc.o)
 *fill*         0x00000000082f48f8        0x8 00
 .data          0x00000000082f4900       0x74 /usr/lib/gcl-2.6.7/unixport//libansi_gcl.a(cfun.o)
 .data          0x00000000082f4974        0x0 /usr/lib/gcl-2.6.7/unixport//libansi_gcl.a(nfunlink.o)
 .data          0x00000000082f4974        0x0 /usr/lib/gcl-2.6.7/unixport//libansi_gcl.a(backq.o)
 .data          0x00000000082f4974        0x0 /usr/lib/gcl-2.6.7/unixport//libansi_gcl.a(bds.o)
 .data          0x00000000082f4974        0x0 /usr/lib/gcl-2.6.7/unixport//libansi_gcl.a(run_process.o)
 *fill*         0x00000000082f4974        0xc 00
 .data          0x00000000082f4980      0x6f4 /usr/lib/gcl-2.6.7/unixport//libansi_gcl.a(assignment.o)
 *fill*         0x00000000082f5074        0xc 00
 .data          0x00000000082f5080      0x4b4 /usr/lib/gcl-2.6.7/unixport//libansi_gcl.a(conditional.o)
 *fill*         0x00000000082f5534        0xc 00
 .data          0x00000000082f5540      0x274 /usr/lib/gcl-2.6.7/unixport//libansi_gcl.a(block.o)
 .data          0x00000000082f57b4        0x0 /usr/lib/gcl-2.6.7/unixport//libansi_gcl.a(frame.o)
 .data          0x00000000082f57b4        0x0 /usr/lib/gcl-2.6.7/unixport//libansi_gcl.a(num_arith.o)
 .data          0x00000000082f57b4        0x4 /usr/lib/gcl-2.6.7/unixport//libansi_gcl.a(sockets.o)
 *fill*         0x00000000082f57b8        0x8 00
 .data          0x00000000082f57c0       0xb8 /usr/lib/gcl-2.6.7/unixport//libansi_gcl.a(gcl_numlib.o)
 *fill*         0x00000000082f5878        0x8 00
 .data          0x00000000082f5880      0x1ac /usr/lib/gcl-2.6.7/unixport//libansi_gcl.a(gcl_destructuring_bind.o)
 *fill*         0x00000000082f5a2c       0x14 00
 .data          0x00000000082f5a40      0x19c /usr/lib/gcl-2.6.7/unixport//libansi_gcl.a(gcl_listlib.o)
 *fill*         0x00000000082f5bdc        0x4 00
 .data          0x00000000082f5be0       0x58 /usr/lib/gcl-2.6.7/unixport//libansi_gcl.a(gcl_module.o)
 *fill*         0x00000000082f5c38        0x8 00
 .data          0x00000000082f5c40      0x4e0 /usr/lib/gcl-2.6.7/unixport//libansi_gcl.a(gcl_top.o)
 .data          0x00000000082f6120      0xb74 /usr/lib/gcl-2.6.7/unixport//libansi_gcl.a(gcl_predlib.o)
 *fill*         0x00000000082f6c94        0xc 00
 .data          0x00000000082f6ca0      0x514 /usr/lib/gcl-2.6.7/unixport//libansi_gcl.a(gcl_iolib.o)
 *fill*         0x00000000082f71b4        0xc 00
 .data          0x00000000082f71c0      0x514 /usr/lib/gcl-2.6.7/unixport//libansi_gcl.a(gcl_serror.o)
 *fill*         0x00000000082f76d4        0xc 00
 .data          0x00000000082f76e0      0xc08 /usr/lib/gcl-2.6.7/unixport//libansi_gcl.a(gcl_defstruct.o)
 *fill*         0x00000000082f82e8       0x18 00
 .data          0x00000000082f8300      0x684 /usr/lib/gcl-2.6.7/unixport//libansi_gcl.a(gcl_debug.o)
 *fill*         0x00000000082f8984       0x1c 00
 .data          0x00000000082f89a0      0x3c0 /usr/lib/gcl-2.6.7/unixport//libansi_gcl.a(gcl_arraylib.o)
 .data          0x00000000082f8d60      0x6d4 /usr/lib/gcl-2.6.7/unixport//libansi_gcl.a(gcl_packlib.o)
 *fill*         0x00000000082f9434        0xc 00
 .data          0x00000000082f9440      0x728 /usr/lib/gcl-2.6.7/unixport//libansi_gcl.a(gcl_seq.o)
 *fill*         0x00000000082f9b68       0x18 00
 .data          0x00000000082f9b80      0x148 /usr/lib/gcl-2.6.7/unixport//libansi_gcl.a(gcl_defpackage.o)
 *fill*         0x00000000082f9cc8       0x18 00
 .data          0x00000000082f9ce0      0x334 /usr/lib/gcl-2.6.7/unixport//libansi_gcl.a(gcl_info.o)
 *fill*         0x00000000082fa014        0xc 00
 .data          0x00000000082fa020      0x204 /usr/lib/gcl-2.6.7/unixport//libansi_gcl.a(gcl_trace.o)
 *fill*         0x00000000082fa224       0x1c 00
 .data          0x00000000082fa240      0x4f0 /usr/lib/gcl-2.6.7/unixport//libansi_gcl.a(gcl_sloop.o)
 *fill*         0x00000000082fa730       0x10 00
 .data          0x00000000082fa740      0x2b4 /usr/lib/gcl-2.6.7/unixport//libansi_gcl.a(gcl_mislib.o)
 *fill*         0x00000000082fa9f4        0xc 00
 .data          0x00000000082faa00      0x11c /usr/lib/gcl-2.6.7/unixport//libansi_gcl.a(gcl_defmacro.o)
 *fill*         0x00000000082fab1c        0x4 00
 .data          0x00000000082fab20      0xdf4 /usr/lib/gcl-2.6.7/unixport//libansi_gcl.a(gcl_evalmacros.o)
 *fill*         0x00000000082fb914        0xc 00
 .data          0x00000000082fb920      0xb24 /usr/lib/gcl-2.6.7/unixport//libansi_gcl.a(gcl_seqlib.o)
 *fill*         0x00000000082fc444       0x1c 00
 .data          0x00000000082fc460      0x934 /usr/lib/gcl-2.6.7/unixport//libansi_gcl.a(gcl_loop.o)
 *fill*         0x00000000082fcd94        0xc 00
 .data          0x00000000082fcda0      0x5c0 /usr/lib/gcl-2.6.7/unixport//libansi_gcl.a(gcl_describe.o)
 .data          0x00000000082fd360     0x15b4 /usr/lib/gcl-2.6.7/unixport//libansi_gcl.a(gcl_setf.o)
 *fill*         0x00000000082fe914        0xc 00
 .data          0x00000000082fe920       0x50 /usr/lib/gcl-2.6.7/unixport//libansi_gcl.a(gcl_make_defpackage.o)
 *fill*         0x00000000082fe970       0x10 00
 .data          0x00000000082fe980      0xb74 /usr/lib/gcl-2.6.7/unixport//libansi_gcl.a(gcl_assert.o)
 *fill*         0x00000000082ff4f4        0xc 00
 .data          0x00000000082ff500      0x950 /usr/lib/gcl-2.6.7/unixport//libansi_gcl.a(gcl_defentry_events.o)
 .data          0x00000000082ffe50        0x0 /usr/lib/gcl-2.6.7/unixport//libansi_gcl.a(gcl_keysymdef.o)
 *fill*         0x00000000082ffe50       0x10 00
 .data          0x00000000082ffe60      0x5a8 /usr/lib/gcl-2.6.7/unixport//libansi_gcl.a(gcl_XStruct_l_3.o)
 *fill*         0x0000000008300408       0x18 00
 .data          0x0000000008300420      0x3d4 /usr/lib/gcl-2.6.7/unixport//libansi_gcl.a(gcl_tohtml.o)
 .data          0x00000000083007f4        0x0 /usr/lib/gcl-2.6.7/unixport//libansi_gcl.a(Events.o)
 *fill*         0x00000000083007f4        0xc 00
 .data          0x0000000008300800      0x124 /usr/lib/gcl-2.6.7/unixport//libansi_gcl.a(gcl_Xutil.o)
 .data          0x0000000008300924        0x0 /usr/lib/gcl-2.6.7/unixport//libansi_gcl.a(XStruct-4.o)
 *fill*         0x0000000008300924       0x1c 00
 .data          0x0000000008300940      0x50c /usr/lib/gcl-2.6.7/unixport//libansi_gcl.a(gcl_Xlib.o)
 *fill*         0x0000000008300e4c       0x14 00
 .data          0x0000000008300e60      0x370 /usr/lib/gcl-2.6.7/unixport//libansi_gcl.a(gcl_Xstruct.o)
 .data          0x00000000083011d0        0x0 /usr/lib/gcl-2.6.7/unixport//libansi_gcl.a(XStruct-2.o)
 .data          0x00000000083011d0        0x0 /usr/lib/gcl-2.6.7/unixport//libansi_gcl.a(gcl_XAtom.o)
 .data          0x00000000083011d0        0x0 /usr/lib/gcl-2.6.7/unixport//libansi_gcl.a(gcl_X10.o)
 .data          0x00000000083011d0        0x0 /usr/lib/gcl-2.6.7/unixport//libansi_gcl.a(Xutil-2.o)
 *fill*         0x00000000083011d0       0x10 00
 .data          0x00000000083011e0       0xec /usr/lib/gcl-2.6.7/unixport//libansi_gcl.a(gcl_Xinit.o)
 .data          0x00000000083012cc       0x28 /usr/lib/gcl-2.6.7/unixport//libansi_gcl.a(gcl_index.o)
 *fill*         0x00000000083012f4        0xc 00
 .data          0x0000000008301300      0x95c /usr/lib/gcl-2.6.7/unixport//libansi_gcl.a(gcl_dwtrans.o)
 *fill*         0x0000000008301c5c        0x4 00
 .data          0x0000000008301c60       0x48 /usr/lib/gcl-2.6.7/unixport//libansi_gcl.a(gcl_general.o)
 .data          0x0000000008301ca8        0x0 /usr/lib/gcl-2.6.7/unixport//libansi_gcl.a(gcl_X.o)
 *fill*         0x0000000008301ca8       0x18 00
 .data          0x0000000008301cc0      0x1c8 /usr/lib/gcl-2.6.7/unixport//libansi_gcl.a(gcl_cmplet.o)
 *fill*         0x0000000008301e88       0x18 00
 .data          0x0000000008301ea0      0x1d0 /usr/lib/gcl-2.6.7/unixport//libansi_gcl.a(gcl_cmpflet.o)
 *fill*         0x0000000008302070       0x10 00
 .data          0x0000000008302080      0x504 /usr/lib/gcl-2.6.7/unixport//libansi_gcl.a(gcl_cmpfun.o)
 *fill*         0x0000000008302584       0x1c 00
 .data          0x00000000083025a0      0x294 /usr/lib/gcl-2.6.7/unixport//libansi_gcl.a(gcl_cmpspecial.o)
 *fill*         0x0000000008302834        0xc 00
 .data          0x0000000008302840      0x218 /usr/lib/gcl-2.6.7/unixport//libansi_gcl.a(gcl_cmputil.o)
 *fill*         0x0000000008302a58        0x8 00
 .data          0x0000000008302a60      0x248 /usr/lib/gcl-2.6.7/unixport//libansi_gcl.a(gcl_cmptag.o)
 *fill*         0x0000000008302ca8       0x18 00
 .data          0x0000000008302cc0      0x16c /usr/lib/gcl-2.6.7/unixport//libansi_gcl.a(gcl_cmpblock.o)
 *fill*         0x0000000008302e2c       0x14 00
 .data          0x0000000008302e40      0x124 /usr/lib/gcl-2.6.7/unixport//libansi_gcl.a(gcl_cmpwt.o)
 *fill*         0x0000000008302f64       0x1c 00
 .data          0x0000000008302f80      0x2cc /usr/lib/gcl-2.6.7/unixport//libansi_gcl.a(gcl_cmplam.o)
 *fill*         0x000000000830324c       0x14 00
 .data          0x0000000008303260       0x48 /usr/lib/gcl-2.6.7/unixport//libansi_gcl.a(gcl_cmpvs.o)
 *fill*         0x00000000083032a8       0x18 00
 .data          0x00000000083032c0      0x378 /usr/lib/gcl-2.6.7/unixport//libansi_gcl.a(gcl_cmpenv.o)
 *fill*         0x0000000008303638        0x8 00
 .data          0x0000000008303640       0xc8 /usr/lib/gcl-2.6.7/unixport//libansi_gcl.a(gcl_cmpcatch.o)
 *fill*         0x0000000008303708       0x18 00
 .data          0x0000000008303720      0x1c4 /usr/lib/gcl-2.6.7/unixport//libansi_gcl.a(gcl_cmpmulti.o)
 *fill*         0x00000000083038e4       0x1c 00
 .data          0x0000000008303900      0x938 /usr/lib/gcl-2.6.7/unixport//libansi_gcl.a(gcl_cmpmain.o)
 *fill*         0x0000000008304238        0x8 00
 .data          0x0000000008304240      0x7c8 /usr/lib/gcl-2.6.7/unixport//libansi_gcl.a(gcl_cmptop.o)
 *fill*         0x0000000008304a08       0x18 00
 .data          0x0000000008304a20      0x148 /usr/lib/gcl-2.6.7/unixport//libansi_gcl.a(gcl_cmptype.o)
 *fill*         0x0000000008304b68       0x18 00
 .data          0x0000000008304b80      0x300 /usr/lib/gcl-2.6.7/unixport//libansi_gcl.a(gcl_cmpvar.o)
 .data          0x0000000008304e80      0x1bc /usr/lib/gcl-2.6.7/unixport//libansi_gcl.a(gcl_cmpif.o)
 *fill*         0x000000000830503c        0x4 00
 .data          0x0000000008305040       0xe4 /usr/lib/gcl-2.6.7/unixport//libansi_gcl.a(gcl_cmpbind.o)
 *fill*         0x0000000008305124       0x1c 00
 .data          0x0000000008305140      0x11c /usr/lib/gcl-2.6.7/unixport//libansi_gcl.a(gcl_cmploc.o)
 *fill*         0x000000000830525c        0x4 00
 .data          0x0000000008305260      0x120 /usr/lib/gcl-2.6.7/unixport//libansi_gcl.a(gcl_cmplabel.o)
 .data          0x0000000008305380       0xd0 /usr/lib/gcl-2.6.7/unixport//libansi_gcl.a(gcl_cmpmap.o)
 *fill*         0x0000000008305450       0x10 00
 .data          0x0000000008305460      0x320 /usr/lib/gcl-2.6.7/unixport//libansi_gcl.a(gcl_cmpinline.o)
 .data          0x0000000008305780      0x3c4 /usr/lib/gcl-2.6.7/unixport//libansi_gcl.a(gcl_cmpeval.o)
 *fill*         0x0000000008305b44       0x1c 00
 .data          0x0000000008305b60      0x354 /usr/lib/gcl-2.6.7/unixport//libansi_gcl.a(gcl_cmpcall.o)
 *fill*         0x0000000008305eb4        0xc 00
 .data          0x0000000008305ec0       0x44 /usr/lib/gcl-2.6.7/unixport//libansi_gcl.a(gcl_pcl_gazonk5.o)
 *fill*         0x0000000008305f04       0x1c 00
 .data          0x0000000008305f20      0x448 /usr/lib/gcl-2.6.7/unixport//libansi_gcl.a(gcl_pcl_precom2.o)
 *fill*         0x0000000008306368       0x18 00
 .data          0x0000000008306380     0x11f4 /usr/lib/gcl-2.6.7/unixport//libansi_gcl.a(gcl_pcl_macros.o)
 *fill*         0x0000000008307574        0xc 00
 .data          0x0000000008307580     0x1278 /usr/lib/gcl-2.6.7/unixport//libansi_gcl.a(gcl_pcl_fast_init.o)
 *fill*         0x00000000083087f8        0x8 00
 .data          0x0000000008308800      0x250 /usr/lib/gcl-2.6.7/unixport//libansi_gcl.a(gcl_pcl_env.o)
 *fill*         0x0000000008308a50       0x10 00
 .data          0x0000000008308a60      0x744 /usr/lib/gcl-2.6.7/unixport//libansi_gcl.a(gcl_pcl_walk.o)
 *fill*         0x00000000083091a4       0x1c 00
 .data          0x00000000083091c0      0x298 /usr/lib/gcl-2.6.7/unixport//libansi_gcl.a(gcl_pcl_defcombin.o)
 *fill*         0x0000000008309458        0x8 00
 .data          0x0000000008309460      0x8dc /usr/lib/gcl-2.6.7/unixport//libansi_gcl.a(gcl_pcl_std_class.o)
 *fill*         0x0000000008309d3c        0x4 00
 .data          0x0000000008309d40      0x458 /usr/lib/gcl-2.6.7/unixport//libansi_gcl.a(gcl_pcl_defclass.o)
 *fill*         0x000000000830a198        0x8 00
 .data          0x000000000830a1a0       0x44 /usr/lib/gcl-2.6.7/unixport//libansi_gcl.a(gcl_pcl_fsc.o)
 *fill*         0x000000000830a1e4       0x1c 00
 .data          0x000000000830a200     0x1a84 /usr/lib/gcl-2.6.7/unixport//libansi_gcl.a(gcl_pcl_vector.o)
 .data          0x000000000830bc84        0x0 /usr/lib/gcl-2.6.7/unixport//libansi_gcl.a(gcl_pcl_precom1.o)
 .data          0x000000000830bc84        0x0 /usr/lib/gcl-2.6.7/unixport//libansi_gcl.a(gcl_pcl_compat.o)
 *fill*         0x000000000830bc84       0x1c 00
 .data          0x000000000830bca0      0x108 /usr/lib/gcl-2.6.7/unixport//libansi_gcl.a(gcl_pcl_cpl.o)
 *fill*         0x000000000830bda8       0x18 00
 .data          0x000000000830bdc0      0x16c /usr/lib/gcl-2.6.7/unixport//libansi_gcl.a(gcl_pcl_fngen.o)
 *fill*         0x000000000830bf2c       0x14 00
 .data          0x000000000830bf40      0x674 /usr/lib/gcl-2.6.7/unixport//libansi_gcl.a(gcl_pcl_slots_boot.o)
 *fill*         0x000000000830c5b4        0xc 00
 .data          0x000000000830c5c0       0x38 /usr/lib/gcl-2.6.7/unixport//libansi_gcl.a(gcl_pcl_gazonk7.o)
 *fill*         0x000000000830c5f8        0x8 00
 .data          0x000000000830c600       0x2c /usr/lib/gcl-2.6.7/unixport//libansi_gcl.a(gcl_pcl_gazonk3.o)
 *fill*         0x000000000830c62c       0x14 00
 .data          0x000000000830c640     0x1a34 /usr/lib/gcl-2.6.7/unixport//libansi_gcl.a(gcl_pcl_boot.o)
 *fill*         0x000000000830e074        0xc 00
 .data          0x000000000830e080      0x5d4 /usr/lib/gcl-2.6.7/unixport//libansi_gcl.a(gcl_pcl_impl_low.o)
 *fill*         0x000000000830e654        0xc 00
 .data          0x000000000830e660      0x7f8 /usr/lib/gcl-2.6.7/unixport//libansi_gcl.a(gcl_pcl_dlisp.o)
 *fill*         0x000000000830ee58        0x8 00
 .data          0x000000000830ee60      0x144 /usr/lib/gcl-2.6.7/unixport//libansi_gcl.a(gcl_pcl_init.o)
 *fill*         0x000000000830efa4       0x1c 00
 .data          0x000000000830efc0      0x174 /usr/lib/gcl-2.6.7/unixport//libansi_gcl.a(gcl_pcl_dlisp2.o)
 *fill*         0x000000000830f134        0xc 00
 .data          0x000000000830f140     0x13b0 /usr/lib/gcl-2.6.7/unixport//libansi_gcl.a(gcl_pcl_cache.o)
 *fill*         0x00000000083104f0       0x10 00
 .data          0x0000000008310500       0x2c /usr/lib/gcl-2.6.7/unixport//libansi_gcl.a(gcl_pcl_gazonk6.o)
 *fill*         0x000000000831052c       0x14 00
 .data          0x0000000008310540      0x894 /usr/lib/gcl-2.6.7/unixport//libansi_gcl.a(gcl_pcl_defs.o)
 *fill*         0x0000000008310dd4        0xc 00
 .data          0x0000000008310de0      0xa94 /usr/lib/gcl-2.6.7/unixport//libansi_gcl.a(gcl_pcl_low.o)
 *fill*         0x0000000008311874        0xc 00
 .data          0x0000000008311880      0x6a4 /usr/lib/gcl-2.6.7/unixport//libansi_gcl.a(gcl_pcl_generic_functions.o)
 *fill*         0x0000000008311f24       0x1c 00
 .data          0x0000000008311f40       0x2c /usr/lib/gcl-2.6.7/unixport//libansi_gcl.a(gcl_pcl_gazonk4.o)
 *fill*         0x0000000008311f6c       0x14 00
 .data          0x0000000008311f80      0x734 /usr/lib/gcl-2.6.7/unixport//libansi_gcl.a(gcl_pcl_iterate.o)
 *fill*         0x00000000083126b4        0xc 00
 .data          0x00000000083126c0       0x30 /usr/lib/gcl-2.6.7/unixport//libansi_gcl.a(gcl_pcl_gazonk2.o)
 *fill*         0x00000000083126f0       0x10 00
 .data          0x0000000008312700      0xd90 /usr/lib/gcl-2.6.7/unixport//libansi_gcl.a(gcl_pcl_methods.o)
 *fill*         0x0000000008313490       0x10 00
 .data          0x00000000083134a0      0x474 /usr/lib/gcl-2.6.7/unixport//libansi_gcl.a(gcl_pcl_fin.o)
 .data          0x0000000008313914        0x8 /usr/lib/gcl-2.6.7/unixport//libansi_gcl.a(gcl_pcl_gazonk1.o)
 .data          0x000000000831391c        0x8 /usr/lib/gcl-2.6.7/unixport//libansi_gcl.a(gcl_pcl_gazonk0.o)
 *fill*         0x0000000008313924       0x1c 00
 .data          0x0000000008313940     0x10d4 /usr/lib/gcl-2.6.7/unixport//libansi_gcl.a(gcl_pcl_dfun.o)
 .data          0x0000000008314a14        0xc /usr/lib/gcl-2.6.7/unixport//libansi_gcl.a(gcl_pcl_fixup.o)
 .data          0x0000000008314a20      0x17c /usr/lib/gcl-2.6.7/unixport//libansi_gcl.a(gcl_pcl_slots.o)
 *fill*         0x0000000008314b9c        0x4 00
 .data          0x0000000008314ba0      0x1ec /usr/lib/gcl-2.6.7/unixport//libansi_gcl.a(gcl_pcl_combin.o)
 .data          0x0000000008314d8c        0xc /usr/lib/gcl-2.6.7/unixport//libansi_gcl.a(gcl_pcl_pkg.o)
 *fill*         0x0000000008314d98        0x8 00
 .data          0x0000000008314da0      0x5f8 /usr/lib/gcl-2.6.7/unixport//libansi_gcl.a(gcl_pcl_braid.o)
 *fill*         0x0000000008315398        0x8 00
 .data          0x00000000083153a0       0x34 /usr/lib/gcl-2.6.7/unixport//libansi_gcl.a(gcl_pcl_ctypes.o)
 *fill*         0x00000000083153d4        0xc 00
 .data          0x00000000083153e0       0xa4 /usr/lib/gcl-2.6.7/unixport//libansi_gcl.a(gcl_clcs_install.o)
 *fill*         0x0000000008315484       0x1c 00
 .data          0x00000000083154a0      0x17c /usr/lib/gcl-2.6.7/unixport//libansi_gcl.a(gcl_clcs_handler.o)
 *fill*         0x000000000831561c        0x4 00
 .data          0x0000000008315620      0x27c /usr/lib/gcl-2.6.7/unixport//libansi_gcl.a(gcl_clcs_macros.o)
 *fill*         0x000000000831589c        0x4 00
 .data          0x00000000083158a0      0x154 /usr/lib/gcl-2.6.7/unixport//libansi_gcl.a(gcl_clcs_conditions.o)
 *fill*         0x00000000083159f4        0xc 00
 .data          0x0000000008315a00      0x19c /usr/lib/gcl-2.6.7/unixport//libansi_gcl.a(gcl_clcs_debugger.o)
 *fill*         0x0000000008315b9c        0x4 00
 .data          0x0000000008315ba0      0x1cc /usr/lib/gcl-2.6.7/unixport//libansi_gcl.a(gcl_clcs_top_patches.o)
 *fill*         0x0000000008315d6c       0x14 00
 .data          0x0000000008315d80      0x62c /usr/lib/gcl-2.6.7/unixport//libansi_gcl.a(gcl_clcs_condition_definitions.o)
 *fill*         0x00000000083163ac       0x14 00
 .data          0x00000000083163c0      0x1d4 /usr/lib/gcl-2.6.7/unixport//libansi_gcl.a(gcl_clcs_restart.o)
 *fill*         0x0000000008316594        0xc 00
 .data          0x00000000083165a0       0x9c /usr/lib/gcl-2.6.7/unixport//libansi_gcl.a(gcl_clcs_precom.o)
 *fill*         0x000000000831663c        0x4 00
 .data          0x0000000008316640      0x110 /usr/lib/gcl-2.6.7/unixport//libansi_gcl.a(gcl_clcs_kcl_cond.o)
 .data          0x0000000008316750        0x0 /usr/lib/gcl-2.6.7/unixport//libansi_gcl.a(num_sfun.o)
 .data          0x0000000008316750        0x0 /usr/lib/gcl-2.6.7/unixport//libansi_gcl.a(num_rand.o)
 .data          0x0000000008316750        0x0 /usr/lib/gcl-2.6.7/unixport//libansi_gcl.a(general-c.o)
 .data          0x0000000008316750        0x0 /usr/lib/libc_nonshared.a(elf-init.oS)
 .data          0x0000000008316750        0x0 /usr/lib/libc_nonshared.a(atexit.oS)
 .data          0x0000000008316750        0x0 /usr/lib/gcc/i486-linux-gnu/4.4.4/libgcc.a(_moddi3.o)
 .data          0x0000000008316750        0x0 /usr/lib/gcc/i486-linux-gnu/4.4.4/crtend.o
 .data          0x0000000008316750        0x0 /usr/lib/gcc/i486-linux-gnu/4.4.4/../../../../lib/crtn.o

.data1
 *(.data1)
                0x0000000008316750                _edata = .
                0x0000000008316750                PROVIDE (edata, .)
                0x0000000008316750                __bss_start = .

.bss            0x0000000008316760   0x3b769c
 *(.dynbss)
 .dynbss        0x0000000008316760       0x34 /usr/lib/gcc/i486-linux-gnu/4.4.4/../../../../lib/crt1.o
                0x0000000008316760                rl_instream
                0x0000000008316764                stderr@@GLIBC_2.0
                0x0000000008316770                rl_attempted_completion_function
                0x0000000008316774                stdin@@GLIBC_2.0
                0x0000000008316780                stdout@@GLIBC_2.0
                0x0000000008316788                rl_readline_name
                0x0000000008316790                rl_line_buffer
 *(.bss .bss.* .gnu.linkonce.b.*)
 .bss           0x0000000008316794        0x0 /usr/lib/gcc/i486-linux-gnu/4.4.4/../../../../lib/crt1.o
 .bss           0x0000000008316794        0x0 /usr/lib/gcc/i486-linux-gnu/4.4.4/../../../../lib/crti.o
 .bss           0x0000000008316794        0x8 /usr/lib/gcc/i486-linux-gnu/4.4.4/crtbegin.o
 .bss           0x000000000831679c        0x4 ./user-init.o
 .bss           0x00000000083167a0   0x201024 /usr/lib/gcl-2.6.7/unixport//libansi_gcl.a(main.o)
                0x00000000083167a0                initflag
                0x00000000083167a4                raw_image
 .bss           0x00000000085177c4        0x0 /usr/lib/gcl-2.6.7/unixport//libansi_gcl.a(package.o)
 .bss           0x00000000085177c4       0x54 /usr/lib/gcl-2.6.7/unixport//libansi_gcl.a(gcl_readline.o)
                0x00000000085177c4                readline_on
 .bss           0x0000000008517818        0x0 /usr/lib/gcl-2.6.7/unixport//libansi_gcl.a(symbol.o)
 .bss           0x0000000008517818        0x0 /usr/lib/gcl-2.6.7/unixport//libansi_gcl.a(makefun.o)
 .bss           0x0000000008517818        0x0 /usr/lib/gcl-2.6.7/unixport//libansi_gcl.a(string.o)
 .bss           0x0000000008517818        0x0 /usr/lib/gcl-2.6.7/unixport//libansi_gcl.a(print.o)
 .bss           0x0000000008517818        0x0 /usr/lib/gcl-2.6.7/unixport//libansi_gcl.a(macros.o)
 .bss           0x0000000008517818        0x0 /usr/lib/gcl-2.6.7/unixport//libansi_gcl.a(multival.o)
 .bss           0x0000000008517818        0x0 /usr/lib/gcl-2.6.7/unixport//libansi_gcl.a(file.o)
 .bss           0x0000000008517818        0x4 /usr/lib/gcl-2.6.7/unixport//libansi_gcl.a(sys_ansi_gcl.o)
 .bss           0x000000000851781c        0x4 /usr/lib/gcl-2.6.7/unixport//libansi_gcl.a(sfasl.o)
 .bss           0x0000000008517820        0x0 /usr/lib/gcl-2.6.7/unixport//libansi_gcl.a(eval.o)
 .bss           0x0000000008517820       0x1c /usr/lib/gcl-2.6.7/unixport//libansi_gcl.a(array.o)
 .bss           0x000000000851783c        0x0 /usr/lib/gcl-2.6.7/unixport//libansi_gcl.a(lex.o)
 .bss           0x000000000851783c        0x0 /usr/lib/gcl-2.6.7/unixport//libansi_gcl.a(earith.o)
 .bss           0x000000000851783c        0x0 /usr/lib/gcl-2.6.7/unixport//libansi_gcl.a(toplevel.o)
 .bss           0x000000000851783c        0x0 /usr/lib/gcl-2.6.7/unixport//libansi_gcl.a(nsocket.o)
 .bss           0x000000000851783c        0x8 /usr/lib/gcl-2.6.7/unixport//libansi_gcl.a(list.o)
 .bss           0x0000000008517844        0x0 /usr/lib/gcl-2.6.7/unixport//libansi_gcl.a(structure.o)
 .bss           0x0000000008517844        0x0 /usr/lib/gcl-2.6.7/unixport//libansi_gcl.a(unixfsys.o)
 .bss           0x0000000008517844        0x0 /usr/lib/gcl-2.6.7/unixport//libansi_gcl.a(unixsys.o)
 .bss           0x0000000008517844        0x0 /usr/lib/gcl-2.6.7/unixport//libansi_gcl.a(predicate.o)
 .bss           0x0000000008517844        0x0 /usr/lib/gcl-2.6.7/unixport//libansi_gcl.a(number.o)
 .bss           0x0000000008517844        0x0 /usr/lib/gcl-2.6.7/unixport//libansi_gcl.a(cmpaux.o)
 .bss           0x0000000008517844        0x0 /usr/lib/gcl-2.6.7/unixport//libansi_gcl.a(num_log.o)
 .bss           0x0000000008517844        0x0 /usr/lib/gcl-2.6.7/unixport//libansi_gcl.a(sequence.o)
 .bss           0x0000000008517844        0x0 /usr/lib/gcl-2.6.7/unixport//libansi_gcl.a(pathname.o)
 .bss           0x0000000008517844        0x0 /usr/lib/gcl-2.6.7/unixport//libansi_gcl.a(unixsave.o)
 .bss           0x0000000008517844        0x0 /usr/lib/gcl-2.6.7/unixport//libansi_gcl.a(num_co.o)
 .bss           0x0000000008517844        0x0 /usr/lib/gcl-2.6.7/unixport//libansi_gcl.a(usig2.o)
 .bss           0x0000000008517844        0x0 /usr/lib/gcl-2.6.7/unixport//libansi_gcl.a(num_pred.o)
 .bss           0x0000000008517844        0x0 /usr/lib/gcl-2.6.7/unixport//libansi_gcl.a(let.o)
 .bss           0x0000000008517844        0x0 /usr/lib/gcl-2.6.7/unixport//libansi_gcl.a(bind.o)
 .bss           0x0000000008517844        0x0 /usr/lib/gcl-2.6.7/unixport//libansi_gcl.a(mapfun.o)
 .bss           0x0000000008517844        0x0 /usr/lib/gcl-2.6.7/unixport//libansi_gcl.a(typespec.o)
 .bss           0x0000000008517844        0x8 /usr/lib/gcl-2.6.7/unixport//libansi_gcl.a(funlink.o)
                0x0000000008517844                Rset
 .bss           0x000000000851784c        0x0 /usr/lib/gcl-2.6.7/unixport//libansi_gcl.a(new_init.o)
 .bss           0x000000000851784c        0x0 /usr/lib/gcl-2.6.7/unixport//libansi_gcl.a(utils.o)
 *fill*         0x000000000851784c       0x14 00
 .bss           0x0000000008517860     0x1004 /usr/lib/gcl-2.6.7/unixport//libansi_gcl.a(read.o)
 .bss           0x0000000008518864        0x0 /usr/lib/gcl-2.6.7/unixport//libansi_gcl.a(prog.o)
 .bss           0x0000000008518864        0x0 /usr/lib/gcl-2.6.7/unixport//libansi_gcl.a(catch.o)
 .bss           0x0000000008518864        0x0 /usr/lib/gcl-2.6.7/unixport//libansi_gcl.a(iteration.o)
 .bss           0x0000000008518864        0x4 /usr/lib/gcl-2.6.7/unixport//libansi_gcl.a(error.o)
 .bss           0x0000000008518868        0x8 /usr/lib/gcl-2.6.7/unixport//libansi_gcl.a(unixtime.o)
 .bss           0x0000000008518870        0x0 /usr/lib/gcl-2.6.7/unixport//libansi_gcl.a(format.o)
 .bss           0x0000000008518870        0x0 /usr/lib/gcl-2.6.7/unixport//libansi_gcl.a(big.o)
 .bss           0x0000000008518870        0xa /usr/lib/gcl-2.6.7/unixport//libansi_gcl.a(hash.o)
 *fill*         0x000000000851887a        0x2 00
 .bss           0x000000000851887c        0x0 /usr/lib/gcl-2.6.7/unixport//libansi_gcl.a(num_comp.o)
 .bss           0x000000000851887c        0x0 /usr/lib/gcl-2.6.7/unixport//libansi_gcl.a(gmp_wrappers.o)
 .bss           0x000000000851887c        0x0 /usr/lib/gcl-2.6.7/unixport//libansi_gcl.a(unixfasl.o)
 .bss           0x000000000851887c        0x0 /usr/lib/gcl-2.6.7/unixport//libansi_gcl.a(reference.o)
 .bss           0x000000000851887c        0x8 /usr/lib/gcl-2.6.7/unixport//libansi_gcl.a(fat_string.o)
 .bss           0x0000000008518884        0x0 /usr/lib/gcl-2.6.7/unixport//libansi_gcl.a(character.o)
 .bss           0x0000000008518884       0x10 /usr/lib/gcl-2.6.7/unixport//libansi_gcl.a(alloc.o)
                0x0000000008518884                hole_overrun
 *fill*         0x0000000008518894        0xc 00
 .bss           0x00000000085188a0      0x1d4 /usr/lib/gcl-2.6.7/unixport//libansi_gcl.a(regexpr.o)
                0x00000000085188a0                case_fold_search
 .bss           0x0000000008518a74        0x0 /usr/lib/gcl-2.6.7/unixport//libansi_gcl.a(usig.o)
 *fill*         0x0000000008518a74        0xc 00
 .bss           0x0000000008518a80      0x16c /usr/lib/gcl-2.6.7/unixport//libansi_gcl.a(gbc.o)
                0x0000000008518a80                sgc_enabled
                0x0000000008518a84                first_protectable_page
                0x0000000008518a88                GBC_enter_hook
                0x0000000008518a8c                GBC_exit_hook
                0x0000000008518a90                debug_fault
                0x0000000008518a94                fault_count
 .bss           0x0000000008518bec        0x0 /usr/lib/gcl-2.6.7/unixport//libansi_gcl.a(cfun.o)
 .bss           0x0000000008518bec        0x0 /usr/lib/gcl-2.6.7/unixport//libansi_gcl.a(nfunlink.o)
 .bss           0x0000000008518bec        0x0 /usr/lib/gcl-2.6.7/unixport//libansi_gcl.a(backq.o)
 .bss           0x0000000008518bec        0x0 /usr/lib/gcl-2.6.7/unixport//libansi_gcl.a(bds.o)
 .bss           0x0000000008518bec        0x0 /usr/lib/gcl-2.6.7/unixport//libansi_gcl.a(run_process.o)
 .bss           0x0000000008518bec        0x0 /usr/lib/gcl-2.6.7/unixport//libansi_gcl.a(assignment.o)
 .bss           0x0000000008518bec        0x0 /usr/lib/gcl-2.6.7/unixport//libansi_gcl.a(conditional.o)
 .bss           0x0000000008518bec        0x0 /usr/lib/gcl-2.6.7/unixport//libansi_gcl.a(block.o)
 .bss           0x0000000008518bec        0x0 /usr/lib/gcl-2.6.7/unixport//libansi_gcl.a(frame.o)
 .bss           0x0000000008518bec        0x0 /usr/lib/gcl-2.6.7/unixport//libansi_gcl.a(num_arith.o)
 *fill*         0x0000000008518bec       0x14 00
 .bss           0x0000000008518c00      0x400 /usr/lib/gcl-2.6.7/unixport//libansi_gcl.a(sockets.o)
 .bss           0x0000000008519000        0x0 /usr/lib/gcl-2.6.7/unixport//libansi_gcl.a(gcl_numlib.o)
 .bss           0x0000000008519000        0x0 /usr/lib/gcl-2.6.7/unixport//libansi_gcl.a(gcl_destructuring_bind.o)
 .bss           0x0000000008519000        0x0 /usr/lib/gcl-2.6.7/unixport//libansi_gcl.a(gcl_listlib.o)
 .bss           0x0000000008519000        0x0 /usr/lib/gcl-2.6.7/unixport//libansi_gcl.a(gcl_module.o)
 .bss           0x0000000008519000        0x0 /usr/lib/gcl-2.6.7/unixport//libansi_gcl.a(gcl_top.o)
 .bss           0x0000000008519000        0x0 /usr/lib/gcl-2.6.7/unixport//libansi_gcl.a(gcl_predlib.o)
 .bss           0x0000000008519000        0x0 /usr/lib/gcl-2.6.7/unixport//libansi_gcl.a(gcl_iolib.o)
 .bss           0x0000000008519000        0x0 /usr/lib/gcl-2.6.7/unixport//libansi_gcl.a(gcl_serror.o)
 .bss           0x0000000008519000        0x0 /usr/lib/gcl-2.6.7/unixport//libansi_gcl.a(gcl_defstruct.o)
 .bss           0x0000000008519000        0x0 /usr/lib/gcl-2.6.7/unixport//libansi_gcl.a(gcl_debug.o)
 .bss           0x0000000008519000        0x0 /usr/lib/gcl-2.6.7/unixport//libansi_gcl.a(gcl_arraylib.o)
 .bss           0x0000000008519000        0x0 /usr/lib/gcl-2.6.7/unixport//libansi_gcl.a(gcl_packlib.o)
 .bss           0x0000000008519000        0x0 /usr/lib/gcl-2.6.7/unixport//libansi_gcl.a(gcl_seq.o)
 .bss           0x0000000008519000        0x0 /usr/lib/gcl-2.6.7/unixport//libansi_gcl.a(gcl_defpackage.o)
 .bss           0x0000000008519000        0x0 /usr/lib/gcl-2.6.7/unixport//libansi_gcl.a(gcl_info.o)
 .bss           0x0000000008519000        0x0 /usr/lib/gcl-2.6.7/unixport//libansi_gcl.a(gcl_trace.o)
 .bss           0x0000000008519000        0x0 /usr/lib/gcl-2.6.7/unixport//libansi_gcl.a(gcl_sloop.o)
 .bss           0x0000000008519000        0x0 /usr/lib/gcl-2.6.7/unixport//libansi_gcl.a(gcl_mislib.o)
 .bss           0x0000000008519000        0x0 /usr/lib/gcl-2.6.7/unixport//libansi_gcl.a(gcl_defmacro.o)
 .bss           0x0000000008519000        0x0 /usr/lib/gcl-2.6.7/unixport//libansi_gcl.a(gcl_evalmacros.o)
 .bss           0x0000000008519000        0x0 /usr/lib/gcl-2.6.7/unixport//libansi_gcl.a(gcl_seqlib.o)
 .bss           0x0000000008519000        0x0 /usr/lib/gcl-2.6.7/unixport//libansi_gcl.a(gcl_loop.o)
 .bss           0x0000000008519000        0x0 /usr/lib/gcl-2.6.7/unixport//libansi_gcl.a(gcl_describe.o)
 .bss           0x0000000008519000        0x0 /usr/lib/gcl-2.6.7/unixport//libansi_gcl.a(gcl_setf.o)
 .bss           0x0000000008519000        0x0 /usr/lib/gcl-2.6.7/unixport//libansi_gcl.a(gcl_make_defpackage.o)
 .bss           0x0000000008519000        0x0 /usr/lib/gcl-2.6.7/unixport//libansi_gcl.a(gcl_assert.o)
 .bss           0x0000000008519000        0x0 /usr/lib/gcl-2.6.7/unixport//libansi_gcl.a(gcl_defentry_events.o)
 .bss           0x0000000008519000        0x4 /usr/lib/gcl-2.6.7/unixport//libansi_gcl.a(gcl_keysymdef.o)
 .bss           0x0000000008519004        0x0 /usr/lib/gcl-2.6.7/unixport//libansi_gcl.a(gcl_XStruct_l_3.o)
 .bss           0x0000000008519004        0x0 /usr/lib/gcl-2.6.7/unixport//libansi_gcl.a(gcl_tohtml.o)
 .bss           0x0000000008519004        0x0 /usr/lib/gcl-2.6.7/unixport//libansi_gcl.a(Events.o)
 .bss           0x0000000008519004        0x0 /usr/lib/gcl-2.6.7/unixport//libansi_gcl.a(gcl_Xutil.o)
 .bss           0x0000000008519004        0x0 /usr/lib/gcl-2.6.7/unixport//libansi_gcl.a(XStruct-4.o)
 .bss           0x0000000008519004        0x0 /usr/lib/gcl-2.6.7/unixport//libansi_gcl.a(gcl_Xlib.o)
 .bss           0x0000000008519004        0x0 /usr/lib/gcl-2.6.7/unixport//libansi_gcl.a(gcl_Xstruct.o)
 .bss           0x0000000008519004        0x0 /usr/lib/gcl-2.6.7/unixport//libansi_gcl.a(XStruct-2.o)
 .bss           0x0000000008519004        0x4 /usr/lib/gcl-2.6.7/unixport//libansi_gcl.a(gcl_XAtom.o)
 .bss           0x0000000008519008        0x4 /usr/lib/gcl-2.6.7/unixport//libansi_gcl.a(gcl_X10.o)
 .bss           0x000000000851900c        0x0 /usr/lib/gcl-2.6.7/unixport//libansi_gcl.a(Xutil-2.o)
 .bss           0x000000000851900c        0x0 /usr/lib/gcl-2.6.7/unixport//libansi_gcl.a(gcl_Xinit.o)
 .bss           0x000000000851900c        0x0 /usr/lib/gcl-2.6.7/unixport//libansi_gcl.a(gcl_index.o)
 .bss           0x000000000851900c        0x0 /usr/lib/gcl-2.6.7/unixport//libansi_gcl.a(gcl_dwtrans.o)
 .bss           0x000000000851900c        0x0 /usr/lib/gcl-2.6.7/unixport//libansi_gcl.a(gcl_general.o)
 .bss           0x000000000851900c        0x4 /usr/lib/gcl-2.6.7/unixport//libansi_gcl.a(gcl_X.o)
 .bss           0x0000000008519010        0x0 /usr/lib/gcl-2.6.7/unixport//libansi_gcl.a(gcl_cmplet.o)
 .bss           0x0000000008519010        0x0 /usr/lib/gcl-2.6.7/unixport//libansi_gcl.a(gcl_cmpflet.o)
 .bss           0x0000000008519010        0x0 /usr/lib/gcl-2.6.7/unixport//libansi_gcl.a(gcl_cmpfun.o)
 .bss           0x0000000008519010        0x0 /usr/lib/gcl-2.6.7/unixport//libansi_gcl.a(gcl_cmpspecial.o)
 .bss           0x0000000008519010        0x0 /usr/lib/gcl-2.6.7/unixport//libansi_gcl.a(gcl_cmputil.o)
 .bss           0x0000000008519010        0x0 /usr/lib/gcl-2.6.7/unixport//libansi_gcl.a(gcl_cmptag.o)
 .bss           0x0000000008519010        0x0 /usr/lib/gcl-2.6.7/unixport//libansi_gcl.a(gcl_cmpblock.o)
 .bss           0x0000000008519010        0x0 /usr/lib/gcl-2.6.7/unixport//libansi_gcl.a(gcl_cmpwt.o)
 .bss           0x0000000008519010        0x0 /usr/lib/gcl-2.6.7/unixport//libansi_gcl.a(gcl_cmplam.o)
 .bss           0x0000000008519010        0x0 /usr/lib/gcl-2.6.7/unixport//libansi_gcl.a(gcl_cmpvs.o)
 .bss           0x0000000008519010        0x0 /usr/lib/gcl-2.6.7/unixport//libansi_gcl.a(gcl_cmpenv.o)
 .bss           0x0000000008519010        0x0 /usr/lib/gcl-2.6.7/unixport//libansi_gcl.a(gcl_cmpcatch.o)
 .bss           0x0000000008519010        0x0 /usr/lib/gcl-2.6.7/unixport//libansi_gcl.a(gcl_cmpmulti.o)
 .bss           0x0000000008519010        0x0 /usr/lib/gcl-2.6.7/unixport//libansi_gcl.a(gcl_cmpmain.o)
 .bss           0x0000000008519010        0x0 /usr/lib/gcl-2.6.7/unixport//libansi_gcl.a(gcl_cmptop.o)
 .bss           0x0000000008519010        0x0 /usr/lib/gcl-2.6.7/unixport//libansi_gcl.a(gcl_cmptype.o)
 .bss           0x0000000008519010        0x0 /usr/lib/gcl-2.6.7/unixport//libansi_gcl.a(gcl_cmpvar.o)
 .bss           0x0000000008519010        0x0 /usr/lib/gcl-2.6.7/unixport//libansi_gcl.a(gcl_cmpif.o)
 .bss           0x0000000008519010        0x0 /usr/lib/gcl-2.6.7/unixport//libansi_gcl.a(gcl_cmpbind.o)
 .bss           0x0000000008519010        0x0 /usr/lib/gcl-2.6.7/unixport//libansi_gcl.a(gcl_cmploc.o)
 .bss           0x0000000008519010        0x0 /usr/lib/gcl-2.6.7/unixport//libansi_gcl.a(gcl_cmplabel.o)
 .bss           0x0000000008519010        0x0 /usr/lib/gcl-2.6.7/unixport//libansi_gcl.a(gcl_cmpmap.o)
 .bss           0x0000000008519010        0x0 /usr/lib/gcl-2.6.7/unixport//libansi_gcl.a(gcl_cmpinline.o)
 .bss           0x0000000008519010        0x0 /usr/lib/gcl-2.6.7/unixport//libansi_gcl.a(gcl_cmpeval.o)
 .bss           0x0000000008519010        0x0 /usr/lib/gcl-2.6.7/unixport//libansi_gcl.a(gcl_cmpcall.o)
 .bss           0x0000000008519010        0x0 /usr/lib/gcl-2.6.7/unixport//libansi_gcl.a(gcl_pcl_gazonk5.o)
 .bss           0x0000000008519010        0x0 /usr/lib/gcl-2.6.7/unixport//libansi_gcl.a(gcl_pcl_precom2.o)
 .bss           0x0000000008519010        0xc /usr/lib/gcl-2.6.7/unixport//libansi_gcl.a(gcl_pcl_macros.o)
 .bss           0x000000000851901c       0x74 /usr/lib/gcl-2.6.7/unixport//libansi_gcl.a(gcl_pcl_fast_init.o)
 .bss           0x0000000008519090       0x50 /usr/lib/gcl-2.6.7/unixport//libansi_gcl.a(gcl_pcl_env.o)
 .bss           0x00000000085190e0        0x0 /usr/lib/gcl-2.6.7/unixport//libansi_gcl.a(gcl_pcl_walk.o)
 .bss           0x00000000085190e0       0x14 /usr/lib/gcl-2.6.7/unixport//libansi_gcl.a(gcl_pcl_defcombin.o)
 .bss           0x00000000085190f4      0x198 /usr/lib/gcl-2.6.7/unixport//libansi_gcl.a(gcl_pcl_std_class.o)
 .bss           0x000000000851928c        0x4 /usr/lib/gcl-2.6.7/unixport//libansi_gcl.a(gcl_pcl_defclass.o)
 .bss           0x0000000008519290       0x10 /usr/lib/gcl-2.6.7/unixport//libansi_gcl.a(gcl_pcl_fsc.o)
 .bss           0x00000000085192a0       0x34 /usr/lib/gcl-2.6.7/unixport//libansi_gcl.a(gcl_pcl_vector.o)
 .bss           0x00000000085192d4        0x4 /usr/lib/gcl-2.6.7/unixport//libansi_gcl.a(gcl_pcl_precom1.o)
 .bss           0x00000000085192d8        0x4 /usr/lib/gcl-2.6.7/unixport//libansi_gcl.a(gcl_pcl_compat.o)
 .bss           0x00000000085192dc        0xc /usr/lib/gcl-2.6.7/unixport//libansi_gcl.a(gcl_pcl_cpl.o)
 .bss           0x00000000085192e8        0x0 /usr/lib/gcl-2.6.7/unixport//libansi_gcl.a(gcl_pcl_fngen.o)
 .bss           0x00000000085192e8       0x30 /usr/lib/gcl-2.6.7/unixport//libansi_gcl.a(gcl_pcl_slots_boot.o)
 .bss           0x0000000008519318        0x0 /usr/lib/gcl-2.6.7/unixport//libansi_gcl.a(gcl_pcl_gazonk7.o)
 .bss           0x0000000008519318        0x0 /usr/lib/gcl-2.6.7/unixport//libansi_gcl.a(gcl_pcl_gazonk3.o)
 .bss           0x0000000008519318       0x74 /usr/lib/gcl-2.6.7/unixport//libansi_gcl.a(gcl_pcl_boot.o)
 .bss           0x000000000851938c        0x0 /usr/lib/gcl-2.6.7/unixport//libansi_gcl.a(gcl_pcl_impl_low.o)
 .bss           0x000000000851938c        0x0 /usr/lib/gcl-2.6.7/unixport//libansi_gcl.a(gcl_pcl_dlisp.o)
 .bss           0x000000000851938c       0x44 /usr/lib/gcl-2.6.7/unixport//libansi_gcl.a(gcl_pcl_init.o)
 .bss           0x00000000085193d0        0x0 /usr/lib/gcl-2.6.7/unixport//libansi_gcl.a(gcl_pcl_dlisp2.o)
 .bss           0x00000000085193d0        0x4 /usr/lib/gcl-2.6.7/unixport//libansi_gcl.a(gcl_pcl_cache.o)
 .bss           0x00000000085193d4        0x0 /usr/lib/gcl-2.6.7/unixport//libansi_gcl.a(gcl_pcl_gazonk6.o)
 .bss           0x00000000085193d4       0x20 /usr/lib/gcl-2.6.7/unixport//libansi_gcl.a(gcl_pcl_defs.o)
 .bss           0x00000000085193f4        0x0 /usr/lib/gcl-2.6.7/unixport//libansi_gcl.a(gcl_pcl_low.o)
 .bss           0x00000000085193f4        0x0 /usr/lib/gcl-2.6.7/unixport//libansi_gcl.a(gcl_pcl_generic_functions.o)
 .bss           0x00000000085193f4        0x0 /usr/lib/gcl-2.6.7/unixport//libansi_gcl.a(gcl_pcl_gazonk4.o)
 .bss           0x00000000085193f4        0x0 /usr/lib/gcl-2.6.7/unixport//libansi_gcl.a(gcl_pcl_iterate.o)
 .bss           0x00000000085193f4        0x0 /usr/lib/gcl-2.6.7/unixport//libansi_gcl.a(gcl_pcl_gazonk2.o)
 .bss           0x00000000085193f4      0x110 /usr/lib/gcl-2.6.7/unixport//libansi_gcl.a(gcl_pcl_methods.o)
 .bss           0x0000000008519504        0x0 /usr/lib/gcl-2.6.7/unixport//libansi_gcl.a(gcl_pcl_fin.o)
 .bss           0x0000000008519504        0x0 /usr/lib/gcl-2.6.7/unixport//libansi_gcl.a(gcl_pcl_gazonk1.o)
 .bss           0x0000000008519504        0x0 /usr/lib/gcl-2.6.7/unixport//libansi_gcl.a(gcl_pcl_gazonk0.o)
 .bss           0x0000000008519504       0x60 /usr/lib/gcl-2.6.7/unixport//libansi_gcl.a(gcl_pcl_dfun.o)
 .bss           0x0000000008519564        0x4 /usr/lib/gcl-2.6.7/unixport//libansi_gcl.a(gcl_pcl_fixup.o)
 .bss           0x0000000008519568       0x44 /usr/lib/gcl-2.6.7/unixport//libansi_gcl.a(gcl_pcl_slots.o)
 .bss           0x00000000085195ac       0x18 /usr/lib/gcl-2.6.7/unixport//libansi_gcl.a(gcl_pcl_combin.o)
 .bss           0x00000000085195c4        0x0 /usr/lib/gcl-2.6.7/unixport//libansi_gcl.a(gcl_pcl_pkg.o)
 .bss           0x00000000085195c4       0x1c /usr/lib/gcl-2.6.7/unixport//libansi_gcl.a(gcl_pcl_braid.o)
 .bss           0x00000000085195e0        0x0 /usr/lib/gcl-2.6.7/unixport//libansi_gcl.a(gcl_pcl_ctypes.o)
 .bss           0x00000000085195e0        0x0 /usr/lib/gcl-2.6.7/unixport//libansi_gcl.a(gcl_clcs_install.o)
 .bss           0x00000000085195e0        0x0 /usr/lib/gcl-2.6.7/unixport//libansi_gcl.a(gcl_clcs_handler.o)
 .bss           0x00000000085195e0        0x0 /usr/lib/gcl-2.6.7/unixport//libansi_gcl.a(gcl_clcs_macros.o)
 .bss           0x00000000085195e0        0xc /usr/lib/gcl-2.6.7/unixport//libansi_gcl.a(gcl_clcs_conditions.o)
 .bss           0x00000000085195ec        0x0 /usr/lib/gcl-2.6.7/unixport//libansi_gcl.a(gcl_clcs_debugger.o)
 .bss           0x00000000085195ec        0x0 /usr/lib/gcl-2.6.7/unixport//libansi_gcl.a(gcl_clcs_top_patches.o)
 .bss           0x00000000085195ec       0x30 /usr/lib/gcl-2.6.7/unixport//libansi_gcl.a(gcl_clcs_condition_definitions.o)
 .bss           0x000000000851961c        0x0 /usr/lib/gcl-2.6.7/unixport//libansi_gcl.a(gcl_clcs_restart.o)
 .bss           0x000000000851961c        0x0 /usr/lib/gcl-2.6.7/unixport//libansi_gcl.a(gcl_clcs_precom.o)
 .bss           0x000000000851961c        0x0 /usr/lib/gcl-2.6.7/unixport//libansi_gcl.a(gcl_clcs_kcl_cond.o)
 .bss           0x000000000851961c        0x0 /usr/lib/gcl-2.6.7/unixport//libansi_gcl.a(num_sfun.o)
 .bss           0x000000000851961c        0x0 /usr/lib/gcl-2.6.7/unixport//libansi_gcl.a(num_rand.o)
 .bss           0x000000000851961c        0x0 /usr/lib/gcl-2.6.7/unixport//libansi_gcl.a(general-c.o)
 .bss           0x000000000851961c        0x0 /usr/lib/libc_nonshared.a(elf-init.oS)
 .bss           0x000000000851961c        0x0 /usr/lib/libc_nonshared.a(atexit.oS)
 .bss           0x000000000851961c        0x0 /usr/lib/gcc/i486-linux-gnu/4.4.4/libgcc.a(_moddi3.o)
 .bss           0x000000000851961c        0x0 /usr/lib/gcc/i486-linux-gnu/4.4.4/crtend.o
 .bss           0x000000000851961c        0x0 /usr/lib/gcc/i486-linux-gnu/4.4.4/../../../../lib/crtn.o
 *(COMMON)
 *fill*         0x000000000851961c        0x4 00
 COMMON         0x0000000008519620   0x1b24ac /usr/lib/gcl-2.6.7/unixport//libansi_gcl.a(main.o)
                0x0000000008519620                keyword_package
                0x0000000008519624                sLlong_float
                0x0000000008519628                sLAtrace_outputA
                0x000000000851962c                sLspecial
                0x0000000008519630                sLboolean
                0x0000000008519634                sSAbreak_stepA
                0x0000000008519638                TSor_integer_float
                0x000000000851963c                sSAoptimize_maximum_pagesA
                0x0000000008519640                endp_temp
                0x0000000008519644                sLunsigned_char
                0x0000000008519648                sLappend
                0x000000000851964c                sKtoo_few_arguments
                0x0000000008519650                CMPtemp
                0x0000000008519654                sSsocket
                0x0000000008519658                interrupt_enable
                0x000000000851965c                PRINTreadably
                0x0000000008519660                cs_limit
                0x0000000008519664                ihs_top
                0x0000000008519668                sKunexpected_keyword
                0x000000000851966c                sSAignore_maximum_pagesA
                0x0000000008519670                sLarray
                0x0000000008519680                tm_table
                0x0000000008519f00                eval1
                0x0000000008519f04                user_package
                0x0000000008519f08                lex_env
                0x0000000008519f0c                sKdirection
                0x0000000008519f10                sSsetf_lambda
                0x0000000008519f20                character_table1
                0x000000000851ed20                sLmethod_combination
                0x000000000851ed24                sLcompile
                0x000000000851ed28                sKoutput
                0x000000000851ed2c                TSpositive_number
                0x000000000851ed30                sLAprint_circleA
                0x000000000851ed34                sStop_level
                0x000000000851ed38                big_fixnum1_body
                0x000000000851ed60                MVloc
                0x000000000851ed88                system_directory
                0x000000000851eda0                stdin_buf
                0x0000000008520da8                cb_pointer
                0x0000000008520dac                sSAcase_fold_searchA
                0x0000000008520db0                ihs_limit
                0x0000000008520db4                sLnumber
                0x0000000008520db8                sLnull
                0x0000000008520dbc                sgc_on
                0x0000000008520dc0                sKset_default_pathname
                0x0000000008520dc4                sKio
                0x0000000008520dc8                fmt_stream
                0x0000000008520dcc                TSor_pathname_string_symbol_stream
                0x0000000008520dd0                ctl_end
                0x0000000008520dd4                sSPmemory
                0x0000000008520dd8                sKcase
                0x0000000008520ddc                fmt_jmp_bufp
                0x0000000008520de0                sSAmultiply_stacksA
                0x0000000008520de4                sLAread_baseA
                0x0000000008520de8                sLquote
                0x0000000008520dec                PRINTbase
                0x0000000008520df0                rb_start
                0x0000000008520df4                sLtwo_way_stream
                0x0000000008520df8                sLwarn
                0x0000000008520dfc                sLAprint_caseA
                0x0000000008520e00                sLfill_pointer
                0x0000000008520e04                sKoverwrite
                0x0000000008520e08                bds_top
                0x0000000008520e0c                sSstructure_access
                0x0000000008520e10                sKreadably
                0x0000000008520e14                right_trim
                0x0000000008520e18                CMPtemp1
                0x0000000008520e1c                escape_flag
                0x0000000008520e20                sKelement_type
                0x0000000008520e24                sKdevice
                0x0000000008520e28                sLpathname
                0x0000000008520e2c                sLcar
                0x0000000008520e30                gentemp_counter
                0x0000000008520e34                sLunbound_slot
                0x0000000008520e38                sLinteger
                0x0000000008520e3c                delimiting_char
                0x0000000008520e40                Vapplyhook
                0x0000000008520e44                sLserious_condition
                0x0000000008520e48                sLkeyword
                0x0000000008520e4c                sLstream
                0x0000000008520e50                sSYB
                0x0000000008520e54                sLbit_vector
                0x0000000008520e60                sgc_type_map
                0x0000000008540e60                Cnil_body
                0x0000000008540e94                sLsigned_byte
                0x0000000008540e98                sKbase
                0x0000000008540ea0                stdout_buf
                0x0000000008542ea8                backq_level
                0x0000000008542eac                sSvariable_documentation
                0x0000000008542eb0                cs_org
                0x0000000008542eb4                sSfunction_documentation
                0x0000000008542eb8                write_ch_fun
                0x0000000008542ebc                PRINTpretty
                0x0000000008542ec0                PRINTcase
                0x0000000008542ec4                sLAprint_baseA
                0x0000000008542ec8                sLvector
                0x0000000008542ecc                Vdefault_pathname_defaults
                0x0000000008542ed0                tmp_alloc
                0x0000000008542ed4                sLAstandard_outputA
                0x0000000008542ed8                READbase
                0x0000000008542edc                sLAprint_readablyA
                0x0000000008542ee0                sLplusp
                0x0000000008542ee4                signals_allowed
                0x0000000008542ee8                sKtype
                0x0000000008542eec                sKarray
                0x0000000008542ef0                sLcontrol_error
                0x0000000008542ef4                sLerror
                0x0000000008542ef8                sKrename
                0x0000000008542efc                sLsynonym_stream
                0x0000000008542f00                interrupt_flag
                0x0000000008542f04                tf
                0x0000000008542f08                sLfunction
                0x0000000008542f0c                sKpretty
                0x0000000008542f10                sLsvref
                0x0000000008542f14                sLrandom_state
                0x0000000008542f18                sLdeclare
                0x0000000008542f1c                standard_io
                0x0000000008542f20                terminal_io
                0x0000000008542f40                small_fixnum_table
                0x000000000855cf40                sLor
                0x000000000855cf44                longfloat_zero
                0x000000000855cf48                sKinvalid_variable
                0x000000000855cf4c                sLtag
                0x000000000855cf50                sLprint_not_readable
                0x000000000855cf54                sKstream
                0x000000000855cf58                TSor_string_symbol
                0x000000000855cf5c                sKinput
                0x000000000855cf60                sLsigned_short
                0x000000000855cf64                sLstructure
                0x000000000855cf68                sSYZ
                0x000000000855cf6c                sKload_toplevel
                0x000000000855cf70                Vevalhook
                0x000000000855cf74                sLtype_error
                0x000000000855cf78                PRINTstructure
                0x000000000855cf7c                sLbuilt_in_class
                0x000000000855cf80                nlj_fr
                0x000000000855cf84                STrubout
                0x000000000855cf88                sLfile_error
                0x000000000855cf8c                fmt_string
                0x000000000855cf90                sKmyaddr
                0x000000000855cf94                vs_base
                0x000000000855cf98                READdefault_float_format
                0x000000000855cf9c                sLend_of_file
                0x000000000855cfa0                shortfloat_zero
                0x000000000855cfa4                sLlambda_closure
                0x000000000855cfa8                sSAdefault_time_zoneA
                0x000000000855cfac                sSAload_with_freadA
                0x000000000855cfc0                ihs_stack
                0x0000000008565bc0                sLprogram_error
                0x0000000008565bc4                sLcondition
                0x0000000008565bc8                sKtest_not
                0x0000000008565bcc                sKdirectory
                0x0000000008565bd0                sKunbound_variable
                0x0000000008565bd4                sLlogical_pathname
                0x0000000008565bd8                sSchar_size
                0x0000000008565bdc                sSAsystem_directoryA
                0x0000000008565be0                sKnewest
                0x0000000008565be4                STbackspace
                0x0000000008565be8                sLblock
                0x0000000008565bec                sLAload_verboseA
                0x0000000008565bf0                sLreadtable
                0x0000000008565bf4                sLget
                0x0000000008565bf8                fmt_index
                0x0000000008565bfc                sKcatch
                0x0000000008565c00                sKfile
                0x0000000008565c04                sLsimple_array
                0x0000000008565c08                sKrename_and_delete
                0x0000000008565c0c                sKasync
                0x0000000008565c10                sLsequence
                0x0000000008565c14                sLstandard_class
                0x0000000008565c18                sLsimple_base_string
                0x0000000008565c1c                sLarray_total_size_limit
                0x0000000008565c20                printStructBufp
                0x0000000008565c24                sKrev
                0x0000000008565c28                sSAmatch_dataA
                0x0000000008565c40                value_stack
                0x00000000085e6440                vs_marker
                0x00000000085e6444                sharp_eq_context_max
                0x00000000085e6448                frs_limit
                0x00000000085e644c                sLmember
                0x00000000085e6450                sLcons
                0x00000000085e6454                sLAread_default_float_formatA
                0x00000000085e6458                FASL_string
                0x00000000085e645c                ARGC
                0x00000000085e6460                sLsimple_warning
                0x00000000085e6464                sSshort_size
                0x00000000085e6468                fmt_base
                0x00000000085e646c                sLstructure_class
                0x00000000085e6470                sLload
                0x00000000085e6474                PRINTstream
                0x00000000085e6478                STnewline
                0x00000000085e647c                sKprotect
                0x00000000085e6480                sSAlisp_maxpagesA
                0x00000000085e6484                sKgensym
                0x00000000085e6488                sKif_does_not_exist
                0x00000000085e648c                sLAprint_escapeA
                0x00000000085e6490                bds_limit
                0x00000000085e6494                siSsharp_comma
                0x00000000085e6498                old_cb_pointer
                0x00000000085e649c                debug
                0x00000000085e64a0                sharing_table
                0x00000000085e64a4                sLAprint_lengthA
                0x00000000085e64a8                ENVP
                0x00000000085e64ac                sLfloating_point_invalid_operation
                0x00000000085e64b0                sLcell_error
                0x00000000085e64b4                sKupcase
                0x00000000085e64b8                sSAprint_nansA
                0x00000000085e64bc                sLunbound_variable
                0x00000000085e64c0                ncb
                0x00000000085e64c4                sLchar
                0x00000000085e64c8                dot_flag
                0x00000000085e64cc                sLcdr
                0x00000000085e64d0                signals_pending
                0x00000000085e64d4                sLlambda
                0x00000000085e64d8                rb_start1
                0x00000000085e64dc                sSAcommand_argsA
                0x00000000085e64e0                sLratio
                0x00000000085e64e4                sLAprint_prettyA
                0x00000000085e64e8                sLAprint_radixA
                0x00000000085e64ec                sLincf
                0x00000000085e64f0                sLsimple_condition
                0x00000000085e6500                fcall
                0x00000000085e65dc                PRINTcircle
                0x00000000085e65e0                sKinvalid_form
                0x00000000085e65e4                detect_eos_flag
                0x00000000085e65e8                sKdefaults
                0x00000000085e65ec                sLdivision_by_zero
                0x00000000085e65f0                sLrational
                0x00000000085e65f4                kf
                0x00000000085e65f8                sLpackage_error
                0x00000000085e65fc                sSclear_compiler_properties
                0x00000000085e6600                PRINTarray
                0x00000000085e6604                sKundefined_function
                0x00000000085e6608                TSor_rational_float
                0x00000000085e660c                STpage
                0x00000000085e6610                sSsigusr1_interrupt
                0x00000000085e6614                PRINTpackage
                0x00000000085e6618                gensym_prefix
                0x00000000085e661c                sKinvalid_function
                0x00000000085e6620                big_fixnum2
                0x00000000085e6624                sSdefmacroA
                0x00000000085e6628                big_fixnum2_body
                0x00000000085e6638                sKexternal
                0x00000000085e663c                sLlambda_block
                0x00000000085e6640                sLunsigned_byte
                0x00000000085e6644                ANDrest
                0x00000000085e6648                sSAgbc_messageA
                0x00000000085e664c                sKuse
                0x00000000085e6650                sLarithmetic_error
                0x00000000085e6654                sKkey
                0x00000000085e6658                uninterned_list
                0x00000000085e665c                cssize
                0x00000000085e6660                gc_enabled
                0x00000000085e6664                saving_system
                0x00000000085e6668                GBC_enable
                0x00000000085e666c                sLparse_error
                0x00000000085e6670                token
                0x00000000085e6680                type_map
                0x0000000008606680                sLAread_suppressA
                0x0000000008606684                sLstring_stream
                0x0000000008606688                sLAprint_gensymA
                0x000000000860668c                sLreader_error
                0x0000000008606690                sKerror
                0x0000000008606694                sSAafter_gbc_hookA
                0x0000000008606698                sKdaemon
                0x000000000860669c                sLecho_stream
                0x00000000086066a0                sLstructure_object
                0x00000000086066a4                sKescape
                0x00000000086066a8                ANDkey
                0x00000000086066ac                STreturn
                0x00000000086066b0                key_function
                0x00000000086066b4                intern_flag
                0x00000000086066b8                TSor_symbol_string
                0x00000000086066bc                sLmod
                0x00000000086066c0                ARGV
                0x00000000086066c4                sSAindent_formatted_outputA
                0x00000000086066c8                lisp_package
                0x00000000086066cc                sKhost
                0x00000000086066d0                TSor_pathname_string_symbol
                0x00000000086066d4                sLfuncall
                0x00000000086066d8                preserving_whitespace_flag
                0x00000000086066dc                sScdefn
                0x00000000086066e0                sLelt
                0x00000000086066e4                rb_pointer
                0x00000000086066e8                sLeval
                0x00000000086066ec                sSAbreak_pointsA
                0x00000000086066f0                ANDallow_other_keys
                0x00000000086066f4                sKname
                0x00000000086066f8                left_trim
                0x00000000086066fc                sKlink
                0x0000000008606700                sSlambda_block_expanded
                0x0000000008606704                string_sign
                0x0000000008606708                in_list_flag
                0x000000000860670c                sStraced
                0x0000000008606710                common_lisp_package
                0x0000000008606714                sKsupersede
                0x0000000008606718                sLAdebug_ioA
                0x000000000860671c                sKparent
                0x0000000008606720                sSPinit
                0x0000000008606724                vs_top
                0x0000000008606728                bds_org
                0x000000000860672c                sKtest
                0x0000000008606730                CMPtemp3
                0x0000000008606734                sLAterminal_ioA
                0x0000000008606738                sLstream_error
                0x000000000860673c                sKend
                0x0000000008606740                fmt_indents
                0x0000000008606744                this_lisp
                0x0000000008606748                sLAmacroexpand_hookA
                0x000000000860674c                sLcomplex
                0x0000000008606750                sLAerror_outputA
                0x0000000008606754                big_register_0
                0x0000000008606758                sLdecf
                0x000000000860675c                sSAnotify_optimize_maximum_pagesA
                0x0000000008606760                sKnicknames
                0x0000000008606764                sKpersistent
                0x0000000008606780                frame_stack
                0x00000000086c6f80                sLcharacter
                0x00000000086c6f84                gentemp_prefix
                0x00000000086c6f88                sLsigned_char
                0x00000000086c6f8c                nlj_active
                0x00000000086c6f90                sKcatchall
                0x00000000086c6f94                sLpush
                0x00000000086c6f98                sLshort_float
                0x00000000086c6f9c                ihs_org
                0x00000000086c6fa0                sLundefined_function
                0x00000000086c6fa4                sLAlink_arrayA
                0x00000000086c6fa8                sLunsigned_short
                0x00000000086c6fac                sLstandard_method
                0x00000000086c6fb0                sLlist
                0x00000000086c6fb4                PRINTescape
                0x00000000086c6fb8                sLstring_char
                0x00000000086c6fbc                sKverbose
                0x00000000086c6fc0                sLstandard_generic_function
                0x00000000086c6fc4                sKcompile_toplevel
                0x00000000086c6fc8                sLcompiled_function
                0x00000000086c6fcc                casefun
                0x00000000086c6fd0                sLfloating_point_underflow
                0x00000000086c6fd4                sLmethod
                0x00000000086c6fd8                sKtoo_many_arguments
                0x00000000086c6fdc                sKradix
                0x00000000086c6fe0                sKmyport
                0x00000000086c6fe4                STtab
                0x00000000086c6fe8                sKserver
                0x00000000086c6fec                sLfloat
                0x00000000086c6ff0                heap_end
                0x00000000086c6ff4                sLAquery_ioA
                0x00000000086c6ff8                rb_limit
                0x00000000086c6ffc                sLsingle_float
                0x00000000086c7000                vs_org
                0x00000000086c7004                sLbase_char
                0x00000000086c7008                in_signal_handler
                0x00000000086c700c                sSAprofile_arrayA
                0x00000000086c7010                sLschar
                0x00000000086c7014                sLstring
                0x00000000086c7018                nlj_tag
                0x00000000086c701c                sLsymbol
                0x00000000086c7020                sKcurrent
                0x00000000086c7024                test_function
                0x00000000086c7028                sLstorage_condition
                0x00000000086c702c                sLlistA
                0x00000000086c7030                PRINTradix
                0x00000000086c7034                ANDaux
                0x00000000086c7038                sLapply
                0x00000000086c703c                frs_top
                0x00000000086c7040                bind_stack
                0x00000000086cb840                sKstart
                0x00000000086cb844                sSsigio_interrupt
                0x00000000086cb848                standard_readtable
                0x00000000086cb84c                big_fixnum1
                0x00000000086cb850                sKinternal
                0x00000000086cb854                sLfloating_point_overflow
                0x00000000086cb858                string_boundary
                0x00000000086cb85c                sKcircle
                0x00000000086cb860                sLstandard_char
                0x00000000086cb864                sLpackage
                0x00000000086cb868                sSuniversal_error_handler
                0x00000000086cb86c                sSs_data
                0x00000000086cb870                PRINTlevel
                0x00000000086cb874                sLfile_stream
                0x00000000086cb878                sLconcatenated_stream
                0x00000000086cb87c                alloca_val
                0x00000000086cb880                sSAinhibit_macro_specialA
                0x00000000086cb884                core_end
                0x00000000086cb888                sKlevel
                0x00000000086cb88c                kcl_self
                0x00000000086cb890                sSAignore_eof_on_terminal_ioA
                0x00000000086cb894                sSAcollect_binary_modulesA
                0x00000000086cb898                sLA
                0x00000000086cb89c                ctl_origin
                0x00000000086cb8a0                sKper
                0x00000000086cb8c0                Dotnil_body
                0x00000000086cb8e4                sLextended_char
                0x00000000086cb8e8                TSor_symbol_string_package
                0x00000000086cb8ec                sLAprint_arrayA
                0x00000000086cb8f0                holepage
                0x00000000086cb8f4                sSAload_pathnameA
                0x00000000086cb8f8                sSAnotify_gbcA
                0x00000000086cb8fc                sLstandard_object
                0x00000000086cb900                sKprobe
                0x00000000086cb904                sLand
                0x00000000086cb908                sLarray_dimension_limit
                0x00000000086cb90c                default_dispatch_macro
                0x00000000086cb910                sLbignum
                0x00000000086cb914                rb_end
                0x00000000086cb918                sKwild
                0x00000000086cb91c                sKallow_other_keys
                0x00000000086cb920                sLgeneric_function
                0x00000000086cb924                sLgethash
                0x00000000086cb928                sKabort
                0x00000000086cb92c                sSterminal_interrupt
                0x00000000086cb930                sSAallow_gzipped_fileA
                0x00000000086cb934                sKprint
                0x00000000086cb938                ctl_index
                0x00000000086cb93c                sLsimple_string
                0x00000000086cb940                PRINTvs_limit
                0x00000000086cb944                STlinefeed
                0x00000000086cb948                sKif_exists
                0x00000000086cb94c                sKappend
                0x00000000086cb950                sLstyle_warning
                0x00000000086cb954                sLpop
                0x00000000086cb958                pack_pointer
                0x00000000086cb95c                sKversion
                0x00000000086cb960                CMPtemp2
                0x00000000086cb964                sLcommon
                0x00000000086cb968                system_package
                0x00000000086cb96c                sSpretty_print_format
                0x00000000086cb970                sSAinterrupt_enableA
                0x00000000086cb974                sLbroadcast_stream
                0x00000000086cb978                sLApackageA
                0x00000000086cb97c                sLfixnum
                0x00000000086cb980                sLAprint_levelA
                0x00000000086cb984                sLgetf
                0x00000000086cb988                ANDoptional
                0x00000000086cb98c                sSdebug
                0x00000000086cb990                estack
                0x00000000086cb998                sLaref
                0x00000000086cb99c                sLclass
                0x00000000086cb9a0                sKexecute
                0x00000000086cb9a4                sLAstandard_inputA
                0x00000000086cb9a8                sLsimple_bit_vector
                0x00000000086cb9ac                PRINTgensym
                0x00000000086cb9b0                sKdefault
                0x00000000086cb9b4                sSAprint_packageA
                0x00000000086cb9b8                sSAprint_structureA
                0x00000000086cb9bc                sLvalues
                0x00000000086cb9c0                PRINTvs_top
                0x00000000086cb9c4                sLsimple_vector
                0x00000000086cb9c8                sKcreate
                0x00000000086cb9cc                vs_limit
                0x00000000086cb9d0                sSAbinary_modulesA
                0x00000000086cb9d4                sLdouble_float
                0x00000000086cb9d8                sKwrong_type_argument
                0x00000000086cb9dc                siClisp_pagesize
                0x00000000086cb9e0                sSY
                0x00000000086cb9e4                sLprogn
                0x00000000086cb9e8                Vreadtable
                0x00000000086cb9ec                frs_org
                0x00000000086cb9f0                sLsetf
                0x00000000086cb9f4                sLnconc
                0x00000000086cb9f8                sSAreadline_prefixA
                0x00000000086cb9fc                item_compared
                0x00000000086cba00                sLsimple_type_error
                0x00000000086cba04                sKinherited
                0x00000000086cba08                sKjunk_allowed
                0x00000000086cba0c                sLmacro
                0x00000000086cba10                sLgensym_counter
                0x00000000086cba14                TSnon_negative_integer
                0x00000000086cba18                sLlambda_block_closure
                0x00000000086cba1c                sSAno_initA
                0x00000000086cba20                fmt_end
                0x00000000086cba24                sLbase_string
                0x00000000086cba40                Ct_body
                0x00000000086cba74                sKnew_version
                0x00000000086cba78                sLfloating_point_inexact
                0x00000000086cba7c                sLbit
                0x00000000086cba80                sKdowncase
                0x00000000086cba84                sLhash_table
                0x00000000086cba88                car_or_cdr
                0x00000000086cba8c                sLsatisfies
                0x00000000086cba90                sLnot
                0x00000000086cba94                rb_pointer1
                0x00000000086cba98                sKpackage_error
                0x00000000086cba9c                READsuppress
                0x00000000086cbaa0                sLarray_rank_limit
                0x00000000086cbaa4                sKcapitalize
                0x00000000086cbaa8                sKroot
                0x00000000086cbaac                sLpositive_fixnum
                0x00000000086cbab0                READtable
                0x00000000086cbab4                STspace
                0x00000000086cbab8                string_register
                0x00000000086cbabc                sLtypep
                0x00000000086cbac0                sKlength
                0x00000000086cbac4                sLwarning
                0x00000000086cbac8                PRINTlength
 COMMON         0x00000000086cbacc        0x4 /usr/lib/gcl-2.6.7/unixport//libansi_gcl.a(symbol.o)
                0x00000000086cbacc                siSpname
 COMMON         0x00000000086cbad0       0x14 /usr/lib/gcl-2.6.7/unixport//libansi_gcl.a(string.o)
                0x00000000086cbad0                sKend1
                0x00000000086cbad4                sKstart1
                0x00000000086cbad8                sKstart2
                0x00000000086cbadc                sKinitial_element
                0x00000000086cbae0                sKend2
 *fill*         0x00000000086cbae4       0x1c 00
 COMMON         0x00000000086cbb00       0x20 /usr/lib/gcl-2.6.7/unixport//libansi_gcl.a(print.o)
                0x00000000086cbb00                travel_push_type
 COMMON         0x00000000086cbb20        0x8 /usr/lib/gcl-2.6.7/unixport//libansi_gcl.a(file.o)
                0x00000000086cbb20                Vverbose
                0x00000000086cbb24                LSP_string
 COMMON         0x00000000086cbb28       0x18 /usr/lib/gcl-2.6.7/unixport//libansi_gcl.a(sfasl.o)
                0x00000000086cbb28                combined_table
                0x00000000086cbb34                c_table
 COMMON         0x00000000086cbb40        0xc /usr/lib/gcl-2.6.7/unixport//libansi_gcl.a(eval.o)
                0x00000000086cbb40                three_nils
 COMMON         0x00000000086cbb4c        0x4 /usr/lib/gcl-2.6.7/unixport//libansi_gcl.a(earith.o)
                0x00000000086cbb4c                gclModulus
 COMMON         0x00000000086cbb50       0x10 /usr/lib/gcl-2.6.7/unixport//libansi_gcl.a(number.o)
                0x00000000086cbb50                bigger_fixnum_table
                0x00000000086cbb54                bigger_fixnums
                0x00000000086cbb5c                Vrandom_state
 COMMON         0x00000000086cbb60        0x8 /usr/lib/gcl-2.6.7/unixport//libansi_gcl.a(num_co.o)
                0x00000000086cbb60                plus_half
                0x00000000086cbb64                minus_half
 *fill*         0x00000000086cbb68       0x18 00
 COMMON         0x00000000086cbb80       0xa0 /usr/lib/gcl-2.6.7/unixport//libansi_gcl.a(usig2.o)
                0x00000000086cbb80                sfaslp
                0x00000000086cbb84                tok_leng
                0x00000000086cbba0                our_signal_handler
 COMMON         0x00000000086cbc20       0x18 /usr/lib/gcl-2.6.7/unixport//libansi_gcl.a(bind.o)
                0x00000000086cbc20                six_nils
 *fill*         0x00000000086cbc38        0x8 00
 COMMON         0x00000000086cbc40     0x1790 /usr/lib/gcl-2.6.7/unixport//libansi_gcl.a(read.o)
                0x00000000086cbc40                dispatch_reader
                0x00000000086cbc60                sharp_eq_context
 COMMON         0x00000000086cd3d0        0x4 /usr/lib/gcl-2.6.7/unixport//libansi_gcl.a(error.o)
                0x00000000086cd3d0                siSuniversal_error_handler
 *fill*         0x00000000086cd3d4        0xc 00
 COMMON         0x00000000086cd3e0      0x350 /usr/lib/gcl-2.6.7/unixport//libansi_gcl.a(format.o)
                0x00000000086cd3e0                fmt_paramp
                0x00000000086cd3e4                fmt_temporary_stream
                0x00000000086cd400                fmt_param
                0x00000000086cd720                fmt_temporary_string
                0x00000000086cd724                fmt_spare_spaces
                0x00000000086cd728                fmt_nparam
                0x00000000086cd72c                fmt_line_length
 COMMON         0x00000000086cd730        0x4 /usr/lib/gcl-2.6.7/unixport//libansi_gcl.a(big.o)
                0x00000000086cd730                big_gcprotect
 COMMON         0x00000000086cd734       0x18 /usr/lib/gcl-2.6.7/unixport//libansi_gcl.a(hash.o)
                0x00000000086cd734                sKrehash_size
                0x00000000086cd738                sLeq
                0x00000000086cd73c                sLeql
                0x00000000086cd740                sKsize
                0x00000000086cd744                sLequal
                0x00000000086cd748                sKrehash_threshold
 *fill*         0x00000000086cd74c       0x14 00
 COMMON         0x00000000086cd760       0xa0 /usr/lib/gcl-2.6.7/unixport//libansi_gcl.a(gmp_wrappers.o)
                0x00000000086cd760                gmp_jmp
                0x00000000086cd7fc                jmp_gmp
 COMMON         0x00000000086cd800       0x48 /usr/lib/gcl-2.6.7/unixport//libansi_gcl.a(fat_string.o)
                0x00000000086cd800                dump_index
                0x00000000086cd804                fas_stream
                0x00000000086cd808                what_to_collect
                0x00000000086cd80c                IfaslInStream
                0x00000000086cd820                current_fasd
                0x00000000086cd844                maxpage
 COMMON         0x00000000086cd848       0x10 /usr/lib/gcl-2.6.7/unixport//libansi_gcl.a(alloc.o)
                0x00000000086cd848                data_rlimit
                0x00000000086cd850                new_holepage
                0x00000000086cd854                malloc_list
 *fill*         0x00000000086cd858        0x8 00
 COMMON         0x00000000086cd860      0x584 /usr/lib/gcl-2.6.7/unixport//libansi_gcl.a(gbc.o)
                0x00000000086cd860                mark_table
                0x00000000086cd880                mark_origin
                0x00000000086cdd30                mark_origin_block_max
                0x00000000086cdd34                old_rb_start
                0x00000000086cdd40                mark_origin_block
                0x00000000086cdde0                mark_origin_max
 COMMON         0x00000000086cdde4        0x8 /usr/lib/gcl-2.6.7/unixport//libansi_gcl.a(nfunlink.o)
                0x00000000086cdde4                bill
 COMMON         0x00000000086cddec        0x4 /usr/lib/gcl-2.6.7/unixport//libansi_gcl.a(conditional.o)
                0x00000000086cddec                sLotherwise
 COMMON         0x00000000086cddf0        0xc /usr/lib/gcl-2.6.7/unixport//libansi_gcl.a(num_sfun.o)
                0x00000000086cddf0                imag_two
                0x00000000086cddf4                minus_imag_unit
                0x00000000086cddf8                imag_unit
                0x00000000086cddfc                . = ALIGN ((. != 0x0)?0x4:0x1)
                0x00000000086cddfc                . = ALIGN (0x4)
                0x00000000086cddfc                . = ALIGN (0x4)
                0x00000000086cddfc                _end = .
                0x00000000086cddfc                PROVIDE (end, .)
                0x00000000086cddfc                . = DATA_SEGMENT_END (.)

.stab
 *(.stab)

.stabstr
 *(.stabstr)

.stab.excl
 *(.stab.excl)

.stab.exclstr
 *(.stab.exclstr)

.stab.index
 *(.stab.index)

.stab.indexstr
 *(.stab.indexstr)

.comment        0x0000000000000000       0x38
 *(.comment)
 .comment       0x0000000000000000       0x1c /usr/lib/gcc/i486-linux-gnu/4.4.4/crtbegin.o
                                         0x1d (size before relaxing)
 .comment       0x0000000000000000       0x1d ./user-init.o
 .comment       0x0000000000000000       0x1d /usr/lib/gcl-2.6.7/unixport//libansi_gcl.a(main.o)
 .comment       0x0000000000000000       0x1d /usr/lib/gcl-2.6.7/unixport//libansi_gcl.a(package.o)
 .comment       0x0000000000000000       0x1d /usr/lib/gcl-2.6.7/unixport//libansi_gcl.a(gcl_readline.o)
 .comment       0x0000000000000000       0x1d /usr/lib/gcl-2.6.7/unixport//libansi_gcl.a(symbol.o)
 .comment       0x0000000000000000       0x1d /usr/lib/gcl-2.6.7/unixport//libansi_gcl.a(makefun.o)
 .comment       0x0000000000000000       0x1d /usr/lib/gcl-2.6.7/unixport//libansi_gcl.a(string.o)
 .comment       0x0000000000000000       0x1d /usr/lib/gcl-2.6.7/unixport//libansi_gcl.a(print.o)
 .comment       0x0000000000000000       0x1d /usr/lib/gcl-2.6.7/unixport//libansi_gcl.a(macros.o)
 .comment       0x0000000000000000       0x1d /usr/lib/gcl-2.6.7/unixport//libansi_gcl.a(multival.o)
 .comment       0x0000000000000000       0x1d /usr/lib/gcl-2.6.7/unixport//libansi_gcl.a(file.o)
 .comment       0x0000000000000000       0x1d /usr/lib/gcl-2.6.7/unixport//libansi_gcl.a(sys_ansi_gcl.o)
 .comment       0x0000000000000000       0x1d /usr/lib/gcl-2.6.7/unixport//libansi_gcl.a(sfasl.o)
 .comment       0x0000000000000000       0x1d /usr/lib/gcl-2.6.7/unixport//libansi_gcl.a(eval.o)
 .comment       0x0000000000000000       0x1d /usr/lib/gcl-2.6.7/unixport//libansi_gcl.a(array.o)
 .comment       0x0000000000000000       0x1d /usr/lib/gcl-2.6.7/unixport//libansi_gcl.a(lex.o)
 .comment       0x0000000000000000       0x1d /usr/lib/gcl-2.6.7/unixport//libansi_gcl.a(earith.o)
 .comment       0x0000000000000000       0x1d /usr/lib/gcl-2.6.7/unixport//libansi_gcl.a(toplevel.o)
 .comment       0x0000000000000000       0x1d /usr/lib/gcl-2.6.7/unixport//libansi_gcl.a(nsocket.o)
 .comment       0x0000000000000000       0x1d /usr/lib/gcl-2.6.7/unixport//libansi_gcl.a(list.o)
 .comment       0x0000000000000000       0x1d /usr/lib/gcl-2.6.7/unixport//libansi_gcl.a(structure.o)
 .comment       0x0000000000000000       0x1d /usr/lib/gcl-2.6.7/unixport//libansi_gcl.a(unixfsys.o)
 .comment       0x0000000000000000       0x1d /usr/lib/gcl-2.6.7/unixport//libansi_gcl.a(unixsys.o)
 .comment       0x0000000000000000       0x1d /usr/lib/gcl-2.6.7/unixport//libansi_gcl.a(predicate.o)
 .comment       0x0000000000000000       0x1d /usr/lib/gcl-2.6.7/unixport//libansi_gcl.a(number.o)
 .comment       0x0000000000000000       0x1d /usr/lib/gcl-2.6.7/unixport//libansi_gcl.a(cmpaux.o)
 .comment       0x0000000000000000       0x1d /usr/lib/gcl-2.6.7/unixport//libansi_gcl.a(num_log.o)
 .comment       0x0000000000000000       0x1d /usr/lib/gcl-2.6.7/unixport//libansi_gcl.a(sequence.o)
 .comment       0x0000000000000000       0x1d /usr/lib/gcl-2.6.7/unixport//libansi_gcl.a(pathname.o)
 .comment       0x0000000000000000       0x1d /usr/lib/gcl-2.6.7/unixport//libansi_gcl.a(unixsave.o)
 .comment       0x0000000000000000       0x1d /usr/lib/gcl-2.6.7/unixport//libansi_gcl.a(num_co.o)
 .comment       0x0000000000000000       0x1d /usr/lib/gcl-2.6.7/unixport//libansi_gcl.a(usig2.o)
 .comment       0x0000000000000000       0x1d /usr/lib/gcl-2.6.7/unixport//libansi_gcl.a(num_pred.o)
 .comment       0x0000000000000000       0x1d /usr/lib/gcl-2.6.7/unixport//libansi_gcl.a(let.o)
 .comment       0x0000000000000000       0x1d /usr/lib/gcl-2.6.7/unixport//libansi_gcl.a(bind.o)
 .comment       0x0000000000000000       0x1d /usr/lib/gcl-2.6.7/unixport//libansi_gcl.a(mapfun.o)
 .comment       0x0000000000000000       0x1d /usr/lib/gcl-2.6.7/unixport//libansi_gcl.a(typespec.o)
 .comment       0x0000000000000000       0x1d /usr/lib/gcl-2.6.7/unixport//libansi_gcl.a(funlink.o)
 .comment       0x0000000000000000       0x1d /usr/lib/gcl-2.6.7/unixport//libansi_gcl.a(new_init.o)
 .comment       0x0000000000000000       0x1d /usr/lib/gcl-2.6.7/unixport//libansi_gcl.a(utils.o)
 .comment       0x0000000000000000       0x1d /usr/lib/gcl-2.6.7/unixport//libansi_gcl.a(read.o)
 .comment       0x0000000000000000       0x1d /usr/lib/gcl-2.6.7/unixport//libansi_gcl.a(prog.o)
 .comment       0x0000000000000000       0x1d /usr/lib/gcl-2.6.7/unixport//libansi_gcl.a(catch.o)
 .comment       0x0000000000000000       0x1d /usr/lib/gcl-2.6.7/unixport//libansi_gcl.a(iteration.o)
 .comment       0x0000000000000000       0x1d /usr/lib/gcl-2.6.7/unixport//libansi_gcl.a(error.o)
 .comment       0x0000000000000000       0x1d /usr/lib/gcl-2.6.7/unixport//libansi_gcl.a(unixtime.o)
 .comment       0x0000000000000000       0x1d /usr/lib/gcl-2.6.7/unixport//libansi_gcl.a(format.o)
 .comment       0x0000000000000000       0x1d /usr/lib/gcl-2.6.7/unixport//libansi_gcl.a(big.o)
 .comment       0x0000000000000000       0x1d /usr/lib/gcl-2.6.7/unixport//libansi_gcl.a(hash.o)
 .comment       0x0000000000000000       0x1d /usr/lib/gcl-2.6.7/unixport//libansi_gcl.a(num_comp.o)
 .comment       0x0000000000000000       0x1d /usr/lib/gcl-2.6.7/unixport//libansi_gcl.a(gmp_wrappers.o)
 .comment       0x0000000000000000       0x1d /usr/lib/gcl-2.6.7/unixport//libansi_gcl.a(unixfasl.o)
 .comment       0x0000000000000000       0x1d /usr/lib/gcl-2.6.7/unixport//libansi_gcl.a(reference.o)
 .comment       0x0000000000000000       0x1d /usr/lib/gcl-2.6.7/unixport//libansi_gcl.a(fat_string.o)
 .comment       0x0000000000000000       0x1d /usr/lib/gcl-2.6.7/unixport//libansi_gcl.a(character.o)
 .comment       0x0000000000000000       0x1d /usr/lib/gcl-2.6.7/unixport//libansi_gcl.a(alloc.o)
 .comment       0x0000000000000000       0x1d /usr/lib/gcl-2.6.7/unixport//libansi_gcl.a(regexpr.o)
 .comment       0x0000000000000000       0x1d /usr/lib/gcl-2.6.7/unixport//libansi_gcl.a(usig.o)
 .comment       0x0000000000000000       0x1d /usr/lib/gcl-2.6.7/unixport//libansi_gcl.a(gbc.o)
 .comment       0x0000000000000000       0x1d /usr/lib/gcl-2.6.7/unixport//libansi_gcl.a(cfun.o)
 .comment       0x0000000000000000       0x1d /usr/lib/gcl-2.6.7/unixport//libansi_gcl.a(nfunlink.o)
 .comment       0x0000000000000000       0x1d /usr/lib/gcl-2.6.7/unixport//libansi_gcl.a(backq.o)
 .comment       0x0000000000000000       0x1d /usr/lib/gcl-2.6.7/unixport//libansi_gcl.a(bds.o)
 .comment       0x0000000000000000       0x1d /usr/lib/gcl-2.6.7/unixport//libansi_gcl.a(run_process.o)
 .comment       0x0000000000000000       0x1d /usr/lib/gcl-2.6.7/unixport//libansi_gcl.a(assignment.o)
 .comment       0x0000000000000000       0x1d /usr/lib/gcl-2.6.7/unixport//libansi_gcl.a(conditional.o)
 .comment       0x0000000000000000       0x1d /usr/lib/gcl-2.6.7/unixport//libansi_gcl.a(block.o)
 .comment       0x0000000000000000       0x1d /usr/lib/gcl-2.6.7/unixport//libansi_gcl.a(frame.o)
 .comment       0x0000000000000000       0x1d /usr/lib/gcl-2.6.7/unixport//libansi_gcl.a(num_arith.o)
 .comment       0x0000000000000000       0x1d /usr/lib/gcl-2.6.7/unixport//libansi_gcl.a(sockets.o)
 .comment       0x0000000000000000       0x1d /usr/lib/gcl-2.6.7/unixport//libansi_gcl.a(gcl_numlib.o)
 .comment       0x0000000000000000       0x1d /usr/lib/gcl-2.6.7/unixport//libansi_gcl.a(gcl_destructuring_bind.o)
 .comment       0x0000000000000000       0x1d /usr/lib/gcl-2.6.7/unixport//libansi_gcl.a(gcl_listlib.o)
 .comment       0x0000000000000000       0x1d /usr/lib/gcl-2.6.7/unixport//libansi_gcl.a(gcl_module.o)
 .comment       0x0000000000000000       0x1d /usr/lib/gcl-2.6.7/unixport//libansi_gcl.a(gcl_top.o)
 .comment       0x0000000000000000       0x1d /usr/lib/gcl-2.6.7/unixport//libansi_gcl.a(gcl_predlib.o)
 .comment       0x0000000000000000       0x1d /usr/lib/gcl-2.6.7/unixport//libansi_gcl.a(gcl_iolib.o)
 .comment       0x0000000000000000       0x1d /usr/lib/gcl-2.6.7/unixport//libansi_gcl.a(gcl_serror.o)
 .comment       0x0000000000000000       0x1d /usr/lib/gcl-2.6.7/unixport//libansi_gcl.a(gcl_defstruct.o)
 .comment       0x0000000000000000       0x1d /usr/lib/gcl-2.6.7/unixport//libansi_gcl.a(gcl_debug.o)
 .comment       0x0000000000000000       0x1d /usr/lib/gcl-2.6.7/unixport//libansi_gcl.a(gcl_arraylib.o)
 .comment       0x0000000000000000       0x1d /usr/lib/gcl-2.6.7/unixport//libansi_gcl.a(gcl_packlib.o)
 .comment       0x0000000000000000       0x1d /usr/lib/gcl-2.6.7/unixport//libansi_gcl.a(gcl_seq.o)
 .comment       0x0000000000000000       0x1d /usr/lib/gcl-2.6.7/unixport//libansi_gcl.a(gcl_defpackage.o)
 .comment       0x0000000000000000       0x1d /usr/lib/gcl-2.6.7/unixport//libansi_gcl.a(gcl_info.o)
 .comment       0x0000000000000000       0x1d /usr/lib/gcl-2.6.7/unixport//libansi_gcl.a(gcl_trace.o)
 .comment       0x0000000000000000       0x1d /usr/lib/gcl-2.6.7/unixport//libansi_gcl.a(gcl_sloop.o)
 .comment       0x0000000000000000       0x1d /usr/lib/gcl-2.6.7/unixport//libansi_gcl.a(gcl_mislib.o)
 .comment       0x0000000000000000       0x1d /usr/lib/gcl-2.6.7/unixport//libansi_gcl.a(gcl_defmacro.o)
 .comment       0x0000000000000000       0x1d /usr/lib/gcl-2.6.7/unixport//libansi_gcl.a(gcl_evalmacros.o)
 .comment       0x0000000000000000       0x1d /usr/lib/gcl-2.6.7/unixport//libansi_gcl.a(gcl_seqlib.o)
 .comment       0x0000000000000000       0x1d /usr/lib/gcl-2.6.7/unixport//libansi_gcl.a(gcl_loop.o)
 .comment       0x0000000000000000       0x1d /usr/lib/gcl-2.6.7/unixport//libansi_gcl.a(gcl_describe.o)
 .comment       0x0000000000000000       0x1d /usr/lib/gcl-2.6.7/unixport//libansi_gcl.a(gcl_setf.o)
 .comment       0x0000000000000000       0x1d /usr/lib/gcl-2.6.7/unixport//libansi_gcl.a(gcl_make_defpackage.o)
 .comment       0x0000000000000000       0x1d /usr/lib/gcl-2.6.7/unixport//libansi_gcl.a(gcl_assert.o)
 .comment       0x0000000000000000       0x1d /usr/lib/gcl-2.6.7/unixport//libansi_gcl.a(gcl_defentry_events.o)
 .comment       0x0000000000000000       0x1d /usr/lib/gcl-2.6.7/unixport//libansi_gcl.a(gcl_keysymdef.o)
 .comment       0x0000000000000000       0x1d /usr/lib/gcl-2.6.7/unixport//libansi_gcl.a(gcl_XStruct_l_3.o)
 .comment       0x0000000000000000       0x1d /usr/lib/gcl-2.6.7/unixport//libansi_gcl.a(gcl_tohtml.o)
 .comment       0x0000000000000000       0x1d /usr/lib/gcl-2.6.7/unixport//libansi_gcl.a(Events.o)
 .comment       0x0000000000000000       0x1d /usr/lib/gcl-2.6.7/unixport//libansi_gcl.a(gcl_Xutil.o)
 .comment       0x0000000000000000       0x1d /usr/lib/gcl-2.6.7/unixport//libansi_gcl.a(XStruct-4.o)
 .comment       0x0000000000000000       0x1d /usr/lib/gcl-2.6.7/unixport//libansi_gcl.a(gcl_Xlib.o)
 .comment       0x0000000000000000       0x1d /usr/lib/gcl-2.6.7/unixport//libansi_gcl.a(gcl_Xstruct.o)
 .comment       0x0000000000000000       0x1d /usr/lib/gcl-2.6.7/unixport//libansi_gcl.a(XStruct-2.o)
 .comment       0x0000000000000000       0x1d /usr/lib/gcl-2.6.7/unixport//libansi_gcl.a(gcl_XAtom.o)
 .comment       0x0000000000000000       0x1d /usr/lib/gcl-2.6.7/unixport//libansi_gcl.a(gcl_X10.o)
 .comment       0x0000000000000000       0x1d /usr/lib/gcl-2.6.7/unixport//libansi_gcl.a(Xutil-2.o)
 .comment       0x0000000000000000       0x1d /usr/lib/gcl-2.6.7/unixport//libansi_gcl.a(gcl_Xinit.o)
 .comment       0x0000000000000000       0x1d /usr/lib/gcl-2.6.7/unixport//libansi_gcl.a(gcl_index.o)
 .comment       0x0000000000000000       0x1d /usr/lib/gcl-2.6.7/unixport//libansi_gcl.a(gcl_dwtrans.o)
 .comment       0x0000000000000000       0x1d /usr/lib/gcl-2.6.7/unixport//libansi_gcl.a(gcl_general.o)
 .comment       0x0000000000000000       0x1d /usr/lib/gcl-2.6.7/unixport//libansi_gcl.a(gcl_X.o)
 .comment       0x0000000000000000       0x1d /usr/lib/gcl-2.6.7/unixport//libansi_gcl.a(gcl_cmplet.o)
 .comment       0x0000000000000000       0x1d /usr/lib/gcl-2.6.7/unixport//libansi_gcl.a(gcl_cmpflet.o)
 .comment       0x0000000000000000       0x1d /usr/lib/gcl-2.6.7/unixport//libansi_gcl.a(gcl_cmpfun.o)
 .comment       0x0000000000000000       0x1d /usr/lib/gcl-2.6.7/unixport//libansi_gcl.a(gcl_cmpspecial.o)
 .comment       0x0000000000000000       0x1d /usr/lib/gcl-2.6.7/unixport//libansi_gcl.a(gcl_cmputil.o)
 .comment       0x0000000000000000       0x1d /usr/lib/gcl-2.6.7/unixport//libansi_gcl.a(gcl_cmptag.o)
 .comment       0x0000000000000000       0x1d /usr/lib/gcl-2.6.7/unixport//libansi_gcl.a(gcl_cmpblock.o)
 .comment       0x0000000000000000       0x1d /usr/lib/gcl-2.6.7/unixport//libansi_gcl.a(gcl_cmpwt.o)
 .comment       0x0000000000000000       0x1d /usr/lib/gcl-2.6.7/unixport//libansi_gcl.a(gcl_cmplam.o)
 .comment       0x0000000000000000       0x1d /usr/lib/gcl-2.6.7/unixport//libansi_gcl.a(gcl_cmpvs.o)
 .comment       0x0000000000000000       0x1d /usr/lib/gcl-2.6.7/unixport//libansi_gcl.a(gcl_cmpenv.o)
 .comment       0x0000000000000000       0x1d /usr/lib/gcl-2.6.7/unixport//libansi_gcl.a(gcl_cmpcatch.o)
 .comment       0x0000000000000000       0x1d /usr/lib/gcl-2.6.7/unixport//libansi_gcl.a(gcl_cmpmulti.o)
 .comment       0x0000000000000000       0x1d /usr/lib/gcl-2.6.7/unixport//libansi_gcl.a(gcl_cmpmain.o)
 .comment       0x0000000000000000       0x1d /usr/lib/gcl-2.6.7/unixport//libansi_gcl.a(gcl_cmptop.o)
 .comment       0x0000000000000000       0x1d /usr/lib/gcl-2.6.7/unixport//libansi_gcl.a(gcl_cmptype.o)
 .comment       0x0000000000000000       0x1d /usr/lib/gcl-2.6.7/unixport//libansi_gcl.a(gcl_cmpvar.o)
 .comment       0x0000000000000000       0x1d /usr/lib/gcl-2.6.7/unixport//libansi_gcl.a(gcl_cmpif.o)
 .comment       0x0000000000000000       0x1d /usr/lib/gcl-2.6.7/unixport//libansi_gcl.a(gcl_cmpbind.o)
 .comment       0x0000000000000000       0x1d /usr/lib/gcl-2.6.7/unixport//libansi_gcl.a(gcl_cmploc.o)
 .comment       0x0000000000000000       0x1d /usr/lib/gcl-2.6.7/unixport//libansi_gcl.a(gcl_cmplabel.o)
 .comment       0x0000000000000000       0x1d /usr/lib/gcl-2.6.7/unixport//libansi_gcl.a(gcl_cmpmap.o)
 .comment       0x0000000000000000       0x1d /usr/lib/gcl-2.6.7/unixport//libansi_gcl.a(gcl_cmpinline.o)
 .comment       0x0000000000000000       0x1d /usr/lib/gcl-2.6.7/unixport//libansi_gcl.a(gcl_cmpeval.o)
 .comment       0x0000000000000000       0x1d /usr/lib/gcl-2.6.7/unixport//libansi_gcl.a(gcl_cmpcall.o)
 .comment       0x0000000000000000       0x1d /usr/lib/gcl-2.6.7/unixport//libansi_gcl.a(gcl_pcl_gazonk5.o)
 .comment       0x0000000000000000       0x1d /usr/lib/gcl-2.6.7/unixport//libansi_gcl.a(gcl_pcl_precom2.o)
 .comment       0x0000000000000000       0x1d /usr/lib/gcl-2.6.7/unixport//libansi_gcl.a(gcl_pcl_macros.o)
 .comment       0x0000000000000000       0x1d /usr/lib/gcl-2.6.7/unixport//libansi_gcl.a(gcl_pcl_fast_init.o)
 .comment       0x0000000000000000       0x1d /usr/lib/gcl-2.6.7/unixport//libansi_gcl.a(gcl_pcl_env.o)
 .comment       0x0000000000000000       0x1d /usr/lib/gcl-2.6.7/unixport//libansi_gcl.a(gcl_pcl_walk.o)
 .comment       0x0000000000000000       0x1d /usr/lib/gcl-2.6.7/unixport//libansi_gcl.a(gcl_pcl_defcombin.o)
 .comment       0x0000000000000000       0x1d /usr/lib/gcl-2.6.7/unixport//libansi_gcl.a(gcl_pcl_std_class.o)
 .comment       0x0000000000000000       0x1d /usr/lib/gcl-2.6.7/unixport//libansi_gcl.a(gcl_pcl_defclass.o)
 .comment       0x0000000000000000       0x1d /usr/lib/gcl-2.6.7/unixport//libansi_gcl.a(gcl_pcl_fsc.o)
 .comment       0x0000000000000000       0x1d /usr/lib/gcl-2.6.7/unixport//libansi_gcl.a(gcl_pcl_vector.o)
 .comment       0x0000000000000000       0x1d /usr/lib/gcl-2.6.7/unixport//libansi_gcl.a(gcl_pcl_precom1.o)
 .comment       0x0000000000000000       0x1d /usr/lib/gcl-2.6.7/unixport//libansi_gcl.a(gcl_pcl_compat.o)
 .comment       0x0000000000000000       0x1d /usr/lib/gcl-2.6.7/unixport//libansi_gcl.a(gcl_pcl_cpl.o)
 .comment       0x0000000000000000       0x1d /usr/lib/gcl-2.6.7/unixport//libansi_gcl.a(gcl_pcl_fngen.o)
 .comment       0x0000000000000000       0x1d /usr/lib/gcl-2.6.7/unixport//libansi_gcl.a(gcl_pcl_slots_boot.o)
 .comment       0x0000000000000000       0x1d /usr/lib/gcl-2.6.7/unixport//libansi_gcl.a(gcl_pcl_gazonk7.o)
 .comment       0x0000000000000000       0x1d /usr/lib/gcl-2.6.7/unixport//libansi_gcl.a(gcl_pcl_gazonk3.o)
 .comment       0x0000000000000000       0x1d /usr/lib/gcl-2.6.7/unixport//libansi_gcl.a(gcl_pcl_boot.o)
 .comment       0x0000000000000000       0x1d /usr/lib/gcl-2.6.7/unixport//libansi_gcl.a(gcl_pcl_impl_low.o)
 .comment       0x0000000000000000       0x1d /usr/lib/gcl-2.6.7/unixport//libansi_gcl.a(gcl_pcl_dlisp.o)
 .comment       0x0000000000000000       0x1d /usr/lib/gcl-2.6.7/unixport//libansi_gcl.a(gcl_pcl_init.o)
 .comment       0x0000000000000000       0x1d /usr/lib/gcl-2.6.7/unixport//libansi_gcl.a(gcl_pcl_dlisp2.o)
 .comment       0x0000000000000000       0x1d /usr/lib/gcl-2.6.7/unixport//libansi_gcl.a(gcl_pcl_cache.o)
 .comment       0x0000000000000000       0x1d /usr/lib/gcl-2.6.7/unixport//libansi_gcl.a(gcl_pcl_gazonk6.o)
 .comment       0x0000000000000000       0x1d /usr/lib/gcl-2.6.7/unixport//libansi_gcl.a(gcl_pcl_defs.o)
 .comment       0x0000000000000000       0x1d /usr/lib/gcl-2.6.7/unixport//libansi_gcl.a(gcl_pcl_low.o)
 .comment       0x0000000000000000       0x1d /usr/lib/gcl-2.6.7/unixport//libansi_gcl.a(gcl_pcl_generic_functions.o)
 .comment       0x0000000000000000       0x1d /usr/lib/gcl-2.6.7/unixport//libansi_gcl.a(gcl_pcl_gazonk4.o)
 .comment       0x0000000000000000       0x1d /usr/lib/gcl-2.6.7/unixport//libansi_gcl.a(gcl_pcl_iterate.o)
 .comment       0x0000000000000000       0x1d /usr/lib/gcl-2.6.7/unixport//libansi_gcl.a(gcl_pcl_gazonk2.o)
 .comment       0x0000000000000000       0x1d /usr/lib/gcl-2.6.7/unixport//libansi_gcl.a(gcl_pcl_methods.o)
 .comment       0x0000000000000000       0x1d /usr/lib/gcl-2.6.7/unixport//libansi_gcl.a(gcl_pcl_fin.o)
 .comment       0x0000000000000000       0x1d /usr/lib/gcl-2.6.7/unixport//libansi_gcl.a(gcl_pcl_gazonk1.o)
 .comment       0x0000000000000000       0x1d /usr/lib/gcl-2.6.7/unixport//libansi_gcl.a(gcl_pcl_gazonk0.o)
 .comment       0x0000000000000000       0x1d /usr/lib/gcl-2.6.7/unixport//libansi_gcl.a(gcl_pcl_dfun.o)
 .comment       0x0000000000000000       0x1d /usr/lib/gcl-2.6.7/unixport//libansi_gcl.a(gcl_pcl_fixup.o)
 .comment       0x0000000000000000       0x1d /usr/lib/gcl-2.6.7/unixport//libansi_gcl.a(gcl_pcl_slots.o)
 .comment       0x0000000000000000       0x1d /usr/lib/gcl-2.6.7/unixport//libansi_gcl.a(gcl_pcl_combin.o)
 .comment       0x0000000000000000       0x1d /usr/lib/gcl-2.6.7/unixport//libansi_gcl.a(gcl_pcl_pkg.o)
 .comment       0x0000000000000000       0x1d /usr/lib/gcl-2.6.7/unixport//libansi_gcl.a(gcl_pcl_braid.o)
 .comment       0x0000000000000000       0x1d /usr/lib/gcl-2.6.7/unixport//libansi_gcl.a(gcl_pcl_ctypes.o)
 .comment       0x0000000000000000       0x1d /usr/lib/gcl-2.6.7/unixport//libansi_gcl.a(gcl_clcs_install.o)
 .comment       0x0000000000000000       0x1d /usr/lib/gcl-2.6.7/unixport//libansi_gcl.a(gcl_clcs_handler.o)
 .comment       0x0000000000000000       0x1d /usr/lib/gcl-2.6.7/unixport//libansi_gcl.a(gcl_clcs_macros.o)
 .comment       0x0000000000000000       0x1d /usr/lib/gcl-2.6.7/unixport//libansi_gcl.a(gcl_clcs_conditions.o)
 .comment       0x0000000000000000       0x1d /usr/lib/gcl-2.6.7/unixport//libansi_gcl.a(gcl_clcs_debugger.o)
 .comment       0x0000000000000000       0x1d /usr/lib/gcl-2.6.7/unixport//libansi_gcl.a(gcl_clcs_top_patches.o)
 .comment       0x0000000000000000       0x1d /usr/lib/gcl-2.6.7/unixport//libansi_gcl.a(gcl_clcs_condition_definitions.o)
 .comment       0x0000000000000000       0x1d /usr/lib/gcl-2.6.7/unixport//libansi_gcl.a(gcl_clcs_restart.o)
 .comment       0x0000000000000000       0x1d /usr/lib/gcl-2.6.7/unixport//libansi_gcl.a(gcl_clcs_precom.o)
 .comment       0x0000000000000000       0x1d /usr/lib/gcl-2.6.7/unixport//libansi_gcl.a(gcl_clcs_kcl_cond.o)
 .comment       0x0000000000000000       0x1d /usr/lib/gcl-2.6.7/unixport//libansi_gcl.a(num_sfun.o)
 .comment       0x0000000000000000       0x1d /usr/lib/gcl-2.6.7/unixport//libansi_gcl.a(num_rand.o)
 .comment       0x0000000000000000       0x1d /usr/lib/gcl-2.6.7/unixport//libansi_gcl.a(general-c.o)
 .comment       0x000000000000001c       0x1c /usr/lib/libc_nonshared.a(elf-init.oS)
                                         0x1d (size before relaxing)
 .comment       0x0000000000000000       0x1d /usr/lib/libc_nonshared.a(atexit.oS)
 .comment       0x0000000000000000       0x1d /usr/lib/gcc/i486-linux-gnu/4.4.4/libgcc.a(_moddi3.o)
 .comment       0x0000000000000000       0x1d /usr/lib/gcc/i486-linux-gnu/4.4.4/crtend.o

.debug
 *(.debug)

.line
 *(.line)

.debug_srcinfo
 *(.debug_srcinfo)

.debug_sfnames
 *(.debug_sfnames)

.debug_aranges  0x0000000000000000     0x1840
 *(.debug_aranges)
 .debug_aranges
                0x0000000000000000       0x20 ./user-init.o
 .debug_aranges
                0x0000000000000020       0x20 /usr/lib/gcl-2.6.7/unixport//libansi_gcl.a(main.o)
 .debug_aranges
                0x0000000000000040       0x20 /usr/lib/gcl-2.6.7/unixport//libansi_gcl.a(package.o)
 .debug_aranges
                0x0000000000000060       0x20 /usr/lib/gcl-2.6.7/unixport//libansi_gcl.a(gcl_readline.o)
 .debug_aranges
                0x0000000000000080       0x20 /usr/lib/gcl-2.6.7/unixport//libansi_gcl.a(symbol.o)
 .debug_aranges
                0x00000000000000a0       0x20 /usr/lib/gcl-2.6.7/unixport//libansi_gcl.a(makefun.o)
 .debug_aranges
                0x00000000000000c0       0x20 /usr/lib/gcl-2.6.7/unixport//libansi_gcl.a(string.o)
 .debug_aranges
                0x00000000000000e0       0x20 /usr/lib/gcl-2.6.7/unixport//libansi_gcl.a(print.o)
 .debug_aranges
                0x0000000000000100       0x20 /usr/lib/gcl-2.6.7/unixport//libansi_gcl.a(macros.o)
 .debug_aranges
                0x0000000000000120       0x20 /usr/lib/gcl-2.6.7/unixport//libansi_gcl.a(multival.o)
 .debug_aranges
                0x0000000000000140       0x20 /usr/lib/gcl-2.6.7/unixport//libansi_gcl.a(file.o)
 .debug_aranges
                0x0000000000000160       0x20 /usr/lib/gcl-2.6.7/unixport//libansi_gcl.a(sys_ansi_gcl.o)
 .debug_aranges
                0x0000000000000180       0x20 /usr/lib/gcl-2.6.7/unixport//libansi_gcl.a(sfasl.o)
 .debug_aranges
                0x00000000000001a0       0x20 /usr/lib/gcl-2.6.7/unixport//libansi_gcl.a(eval.o)
 .debug_aranges
                0x00000000000001c0       0x20 /usr/lib/gcl-2.6.7/unixport//libansi_gcl.a(array.o)
 .debug_aranges
                0x00000000000001e0       0x20 /usr/lib/gcl-2.6.7/unixport//libansi_gcl.a(lex.o)
 .debug_aranges
                0x0000000000000200       0x20 /usr/lib/gcl-2.6.7/unixport//libansi_gcl.a(earith.o)
 .debug_aranges
                0x0000000000000220       0x20 /usr/lib/gcl-2.6.7/unixport//libansi_gcl.a(toplevel.o)
 .debug_aranges
                0x0000000000000240       0x20 /usr/lib/gcl-2.6.7/unixport//libansi_gcl.a(nsocket.o)
 .debug_aranges
                0x0000000000000260       0x20 /usr/lib/gcl-2.6.7/unixport//libansi_gcl.a(list.o)
 .debug_aranges
                0x0000000000000280       0x20 /usr/lib/gcl-2.6.7/unixport//libansi_gcl.a(structure.o)
 .debug_aranges
                0x00000000000002a0       0x20 /usr/lib/gcl-2.6.7/unixport//libansi_gcl.a(unixfsys.o)
 .debug_aranges
                0x00000000000002c0       0x20 /usr/lib/gcl-2.6.7/unixport//libansi_gcl.a(unixsys.o)
 .debug_aranges
                0x00000000000002e0       0x20 /usr/lib/gcl-2.6.7/unixport//libansi_gcl.a(predicate.o)
 .debug_aranges
                0x0000000000000300       0x20 /usr/lib/gcl-2.6.7/unixport//libansi_gcl.a(number.o)
 .debug_aranges
                0x0000000000000320       0x20 /usr/lib/gcl-2.6.7/unixport//libansi_gcl.a(cmpaux.o)
 .debug_aranges
                0x0000000000000340       0x20 /usr/lib/gcl-2.6.7/unixport//libansi_gcl.a(num_log.o)
 .debug_aranges
                0x0000000000000360       0x20 /usr/lib/gcl-2.6.7/unixport//libansi_gcl.a(sequence.o)
 .debug_aranges
                0x0000000000000380       0x20 /usr/lib/gcl-2.6.7/unixport//libansi_gcl.a(pathname.o)
 .debug_aranges
                0x00000000000003a0       0x20 /usr/lib/gcl-2.6.7/unixport//libansi_gcl.a(unixsave.o)
 .debug_aranges
                0x00000000000003c0       0x20 /usr/lib/gcl-2.6.7/unixport//libansi_gcl.a(num_co.o)
 .debug_aranges
                0x00000000000003e0       0x20 /usr/lib/gcl-2.6.7/unixport//libansi_gcl.a(usig2.o)
 .debug_aranges
                0x0000000000000400       0x20 /usr/lib/gcl-2.6.7/unixport//libansi_gcl.a(num_pred.o)
 .debug_aranges
                0x0000000000000420       0x20 /usr/lib/gcl-2.6.7/unixport//libansi_gcl.a(let.o)
 .debug_aranges
                0x0000000000000440       0x20 /usr/lib/gcl-2.6.7/unixport//libansi_gcl.a(bind.o)
 .debug_aranges
                0x0000000000000460       0x20 /usr/lib/gcl-2.6.7/unixport//libansi_gcl.a(mapfun.o)
 .debug_aranges
                0x0000000000000480       0x20 /usr/lib/gcl-2.6.7/unixport//libansi_gcl.a(typespec.o)
 .debug_aranges
                0x00000000000004a0       0x20 /usr/lib/gcl-2.6.7/unixport//libansi_gcl.a(funlink.o)
 .debug_aranges
                0x00000000000004c0       0x20 /usr/lib/gcl-2.6.7/unixport//libansi_gcl.a(new_init.o)
 .debug_aranges
                0x00000000000004e0       0x20 /usr/lib/gcl-2.6.7/unixport//libansi_gcl.a(utils.o)
 .debug_aranges
                0x0000000000000500       0x20 /usr/lib/gcl-2.6.7/unixport//libansi_gcl.a(read.o)
 .debug_aranges
                0x0000000000000520       0x20 /usr/lib/gcl-2.6.7/unixport//libansi_gcl.a(prog.o)
 .debug_aranges
                0x0000000000000540       0x20 /usr/lib/gcl-2.6.7/unixport//libansi_gcl.a(catch.o)
 .debug_aranges
                0x0000000000000560       0x20 /usr/lib/gcl-2.6.7/unixport//libansi_gcl.a(iteration.o)
 .debug_aranges
                0x0000000000000580       0x20 /usr/lib/gcl-2.6.7/unixport//libansi_gcl.a(error.o)
 .debug_aranges
                0x00000000000005a0       0x20 /usr/lib/gcl-2.6.7/unixport//libansi_gcl.a(unixtime.o)
 .debug_aranges
                0x00000000000005c0       0x20 /usr/lib/gcl-2.6.7/unixport//libansi_gcl.a(format.o)
 .debug_aranges
                0x00000000000005e0       0x20 /usr/lib/gcl-2.6.7/unixport//libansi_gcl.a(big.o)
 .debug_aranges
                0x0000000000000600       0x20 /usr/lib/gcl-2.6.7/unixport//libansi_gcl.a(hash.o)
 .debug_aranges
                0x0000000000000620       0x20 /usr/lib/gcl-2.6.7/unixport//libansi_gcl.a(num_comp.o)
 .debug_aranges
                0x0000000000000640       0x20 /usr/lib/gcl-2.6.7/unixport//libansi_gcl.a(gmp_wrappers.o)
 .debug_aranges
                0x0000000000000660       0x20 /usr/lib/gcl-2.6.7/unixport//libansi_gcl.a(unixfasl.o)
 .debug_aranges
                0x0000000000000680       0x20 /usr/lib/gcl-2.6.7/unixport//libansi_gcl.a(reference.o)
 .debug_aranges
                0x00000000000006a0       0x20 /usr/lib/gcl-2.6.7/unixport//libansi_gcl.a(fat_string.o)
 .debug_aranges
                0x00000000000006c0       0x20 /usr/lib/gcl-2.6.7/unixport//libansi_gcl.a(character.o)
 .debug_aranges
                0x00000000000006e0       0x20 /usr/lib/gcl-2.6.7/unixport//libansi_gcl.a(alloc.o)
 .debug_aranges
                0x0000000000000700       0x20 /usr/lib/gcl-2.6.7/unixport//libansi_gcl.a(regexpr.o)
 .debug_aranges
                0x0000000000000720       0x20 /usr/lib/gcl-2.6.7/unixport//libansi_gcl.a(usig.o)
 .debug_aranges
                0x0000000000000740       0x20 /usr/lib/gcl-2.6.7/unixport//libansi_gcl.a(gbc.o)
 .debug_aranges
                0x0000000000000760       0x20 /usr/lib/gcl-2.6.7/unixport//libansi_gcl.a(cfun.o)
 .debug_aranges
                0x0000000000000780       0x20 /usr/lib/gcl-2.6.7/unixport//libansi_gcl.a(nfunlink.o)
 .debug_aranges
                0x00000000000007a0       0x20 /usr/lib/gcl-2.6.7/unixport//libansi_gcl.a(backq.o)
 .debug_aranges
                0x00000000000007c0       0x20 /usr/lib/gcl-2.6.7/unixport//libansi_gcl.a(bds.o)
 .debug_aranges
                0x00000000000007e0       0x20 /usr/lib/gcl-2.6.7/unixport//libansi_gcl.a(run_process.o)
 .debug_aranges
                0x0000000000000800       0x20 /usr/lib/gcl-2.6.7/unixport//libansi_gcl.a(assignment.o)
 .debug_aranges
                0x0000000000000820       0x20 /usr/lib/gcl-2.6.7/unixport//libansi_gcl.a(conditional.o)
 .debug_aranges
                0x0000000000000840       0x20 /usr/lib/gcl-2.6.7/unixport//libansi_gcl.a(block.o)
 .debug_aranges
                0x0000000000000860       0x20 /usr/lib/gcl-2.6.7/unixport//libansi_gcl.a(frame.o)
 .debug_aranges
                0x0000000000000880       0x20 /usr/lib/gcl-2.6.7/unixport//libansi_gcl.a(num_arith.o)
 .debug_aranges
                0x00000000000008a0       0x20 /usr/lib/gcl-2.6.7/unixport//libansi_gcl.a(sockets.o)
 .debug_aranges
                0x00000000000008c0       0x20 /usr/lib/gcl-2.6.7/unixport//libansi_gcl.a(gcl_numlib.o)
 .debug_aranges
                0x00000000000008e0       0x20 /usr/lib/gcl-2.6.7/unixport//libansi_gcl.a(gcl_destructuring_bind.o)
 .debug_aranges
                0x0000000000000900       0x20 /usr/lib/gcl-2.6.7/unixport//libansi_gcl.a(gcl_listlib.o)
 .debug_aranges
                0x0000000000000920       0x20 /usr/lib/gcl-2.6.7/unixport//libansi_gcl.a(gcl_module.o)
 .debug_aranges
                0x0000000000000940       0x20 /usr/lib/gcl-2.6.7/unixport//libansi_gcl.a(gcl_top.o)
 .debug_aranges
                0x0000000000000960       0x20 /usr/lib/gcl-2.6.7/unixport//libansi_gcl.a(gcl_predlib.o)
 .debug_aranges
                0x0000000000000980       0x20 /usr/lib/gcl-2.6.7/unixport//libansi_gcl.a(gcl_iolib.o)
 .debug_aranges
                0x00000000000009a0       0x20 /usr/lib/gcl-2.6.7/unixport//libansi_gcl.a(gcl_serror.o)
 .debug_aranges
                0x00000000000009c0       0x20 /usr/lib/gcl-2.6.7/unixport//libansi_gcl.a(gcl_defstruct.o)
 .debug_aranges
                0x00000000000009e0       0x20 /usr/lib/gcl-2.6.7/unixport//libansi_gcl.a(gcl_debug.o)
 .debug_aranges
                0x0000000000000a00       0x20 /usr/lib/gcl-2.6.7/unixport//libansi_gcl.a(gcl_arraylib.o)
 .debug_aranges
                0x0000000000000a20       0x20 /usr/lib/gcl-2.6.7/unixport//libansi_gcl.a(gcl_packlib.o)
 .debug_aranges
                0x0000000000000a40       0x20 /usr/lib/gcl-2.6.7/unixport//libansi_gcl.a(gcl_seq.o)
 .debug_aranges
                0x0000000000000a60       0x20 /usr/lib/gcl-2.6.7/unixport//libansi_gcl.a(gcl_defpackage.o)
 .debug_aranges
                0x0000000000000a80       0x20 /usr/lib/gcl-2.6.7/unixport//libansi_gcl.a(gcl_info.o)
 .debug_aranges
                0x0000000000000aa0       0x20 /usr/lib/gcl-2.6.7/unixport//libansi_gcl.a(gcl_trace.o)
 .debug_aranges
                0x0000000000000ac0       0x20 /usr/lib/gcl-2.6.7/unixport//libansi_gcl.a(gcl_sloop.o)
 .debug_aranges
                0x0000000000000ae0       0x20 /usr/lib/gcl-2.6.7/unixport//libansi_gcl.a(gcl_mislib.o)
 .debug_aranges
                0x0000000000000b00       0x20 /usr/lib/gcl-2.6.7/unixport//libansi_gcl.a(gcl_defmacro.o)
 .debug_aranges
                0x0000000000000b20       0x20 /usr/lib/gcl-2.6.7/unixport//libansi_gcl.a(gcl_evalmacros.o)
 .debug_aranges
                0x0000000000000b40       0x20 /usr/lib/gcl-2.6.7/unixport//libansi_gcl.a(gcl_seqlib.o)
 .debug_aranges
                0x0000000000000b60       0x20 /usr/lib/gcl-2.6.7/unixport//libansi_gcl.a(gcl_loop.o)
 .debug_aranges
                0x0000000000000b80       0x20 /usr/lib/gcl-2.6.7/unixport//libansi_gcl.a(gcl_describe.o)
 .debug_aranges
                0x0000000000000ba0       0x20 /usr/lib/gcl-2.6.7/unixport//libansi_gcl.a(gcl_setf.o)
 .debug_aranges
                0x0000000000000bc0       0x20 /usr/lib/gcl-2.6.7/unixport//libansi_gcl.a(gcl_make_defpackage.o)
 .debug_aranges
                0x0000000000000be0       0x20 /usr/lib/gcl-2.6.7/unixport//libansi_gcl.a(gcl_assert.o)
 .debug_aranges
                0x0000000000000c00       0x20 /usr/lib/gcl-2.6.7/unixport//libansi_gcl.a(gcl_defentry_events.o)
 .debug_aranges
                0x0000000000000c20       0x20 /usr/lib/gcl-2.6.7/unixport//libansi_gcl.a(gcl_keysymdef.o)
 .debug_aranges
                0x0000000000000c40       0x20 /usr/lib/gcl-2.6.7/unixport//libansi_gcl.a(gcl_XStruct_l_3.o)
 .debug_aranges
                0x0000000000000c60       0x20 /usr/lib/gcl-2.6.7/unixport//libansi_gcl.a(gcl_tohtml.o)
 .debug_aranges
                0x0000000000000c80       0x20 /usr/lib/gcl-2.6.7/unixport//libansi_gcl.a(Events.o)
 .debug_aranges
                0x0000000000000ca0       0x20 /usr/lib/gcl-2.6.7/unixport//libansi_gcl.a(gcl_Xutil.o)
 .debug_aranges
                0x0000000000000cc0       0x20 /usr/lib/gcl-2.6.7/unixport//libansi_gcl.a(XStruct-4.o)
 .debug_aranges
                0x0000000000000ce0       0x20 /usr/lib/gcl-2.6.7/unixport//libansi_gcl.a(gcl_Xlib.o)
 .debug_aranges
                0x0000000000000d00       0x20 /usr/lib/gcl-2.6.7/unixport//libansi_gcl.a(gcl_Xstruct.o)
 .debug_aranges
                0x0000000000000d20       0x20 /usr/lib/gcl-2.6.7/unixport//libansi_gcl.a(XStruct-2.o)
 .debug_aranges
                0x0000000000000d40       0x20 /usr/lib/gcl-2.6.7/unixport//libansi_gcl.a(gcl_XAtom.o)
 .debug_aranges
                0x0000000000000d60       0x20 /usr/lib/gcl-2.6.7/unixport//libansi_gcl.a(gcl_X10.o)
 .debug_aranges
                0x0000000000000d80       0x20 /usr/lib/gcl-2.6.7/unixport//libansi_gcl.a(Xutil-2.o)
 .debug_aranges
                0x0000000000000da0       0x20 /usr/lib/gcl-2.6.7/unixport//libansi_gcl.a(gcl_Xinit.o)
 .debug_aranges
                0x0000000000000dc0       0x20 /usr/lib/gcl-2.6.7/unixport//libansi_gcl.a(gcl_index.o)
 .debug_aranges
                0x0000000000000de0       0x20 /usr/lib/gcl-2.6.7/unixport//libansi_gcl.a(gcl_dwtrans.o)
 .debug_aranges
                0x0000000000000e00       0x20 /usr/lib/gcl-2.6.7/unixport//libansi_gcl.a(gcl_general.o)
 .debug_aranges
                0x0000000000000e20       0x20 /usr/lib/gcl-2.6.7/unixport//libansi_gcl.a(gcl_X.o)
 .debug_aranges
                0x0000000000000e40       0x20 /usr/lib/gcl-2.6.7/unixport//libansi_gcl.a(gcl_cmplet.o)
 .debug_aranges
                0x0000000000000e60       0x20 /usr/lib/gcl-2.6.7/unixport//libansi_gcl.a(gcl_cmpflet.o)
 .debug_aranges
                0x0000000000000e80       0x20 /usr/lib/gcl-2.6.7/unixport//libansi_gcl.a(gcl_cmpfun.o)
 .debug_aranges
                0x0000000000000ea0       0x20 /usr/lib/gcl-2.6.7/unixport//libansi_gcl.a(gcl_cmpspecial.o)
 .debug_aranges
                0x0000000000000ec0       0x20 /usr/lib/gcl-2.6.7/unixport//libansi_gcl.a(gcl_cmputil.o)
 .debug_aranges
                0x0000000000000ee0       0x20 /usr/lib/gcl-2.6.7/unixport//libansi_gcl.a(gcl_cmptag.o)
 .debug_aranges
                0x0000000000000f00       0x20 /usr/lib/gcl-2.6.7/unixport//libansi_gcl.a(gcl_cmpblock.o)
 .debug_aranges
                0x0000000000000f20       0x20 /usr/lib/gcl-2.6.7/unixport//libansi_gcl.a(gcl_cmpwt.o)
 .debug_aranges
                0x0000000000000f40       0x20 /usr/lib/gcl-2.6.7/unixport//libansi_gcl.a(gcl_cmplam.o)
 .debug_aranges
                0x0000000000000f60       0x20 /usr/lib/gcl-2.6.7/unixport//libansi_gcl.a(gcl_cmpvs.o)
 .debug_aranges
                0x0000000000000f80       0x20 /usr/lib/gcl-2.6.7/unixport//libansi_gcl.a(gcl_cmpenv.o)
 .debug_aranges
                0x0000000000000fa0       0x20 /usr/lib/gcl-2.6.7/unixport//libansi_gcl.a(gcl_cmpcatch.o)
 .debug_aranges
                0x0000000000000fc0       0x20 /usr/lib/gcl-2.6.7/unixport//libansi_gcl.a(gcl_cmpmulti.o)
 .debug_aranges
                0x0000000000000fe0       0x20 /usr/lib/gcl-2.6.7/unixport//libansi_gcl.a(gcl_cmpmain.o)
 .debug_aranges
                0x0000000000001000       0x20 /usr/lib/gcl-2.6.7/unixport//libansi_gcl.a(gcl_cmptop.o)
 .debug_aranges
                0x0000000000001020       0x20 /usr/lib/gcl-2.6.7/unixport//libansi_gcl.a(gcl_cmptype.o)
 .debug_aranges
                0x0000000000001040       0x20 /usr/lib/gcl-2.6.7/unixport//libansi_gcl.a(gcl_cmpvar.o)
 .debug_aranges
                0x0000000000001060       0x20 /usr/lib/gcl-2.6.7/unixport//libansi_gcl.a(gcl_cmpif.o)
 .debug_aranges
                0x0000000000001080       0x20 /usr/lib/gcl-2.6.7/unixport//libansi_gcl.a(gcl_cmpbind.o)
 .debug_aranges
                0x00000000000010a0       0x20 /usr/lib/gcl-2.6.7/unixport//libansi_gcl.a(gcl_cmploc.o)
 .debug_aranges
                0x00000000000010c0       0x20 /usr/lib/gcl-2.6.7/unixport//libansi_gcl.a(gcl_cmplabel.o)
 .debug_aranges
                0x00000000000010e0       0x20 /usr/lib/gcl-2.6.7/unixport//libansi_gcl.a(gcl_cmpmap.o)
 .debug_aranges
                0x0000000000001100       0x20 /usr/lib/gcl-2.6.7/unixport//libansi_gcl.a(gcl_cmpinline.o)
 .debug_aranges
                0x0000000000001120       0x20 /usr/lib/gcl-2.6.7/unixport//libansi_gcl.a(gcl_cmpeval.o)
 .debug_aranges
                0x0000000000001140       0x20 /usr/lib/gcl-2.6.7/unixport//libansi_gcl.a(gcl_cmpcall.o)
 .debug_aranges
                0x0000000000001160       0x20 /usr/lib/gcl-2.6.7/unixport//libansi_gcl.a(gcl_pcl_gazonk5.o)
 .debug_aranges
                0x0000000000001180       0x20 /usr/lib/gcl-2.6.7/unixport//libansi_gcl.a(gcl_pcl_precom2.o)
 .debug_aranges
                0x00000000000011a0       0x20 /usr/lib/gcl-2.6.7/unixport//libansi_gcl.a(gcl_pcl_macros.o)
 .debug_aranges
                0x00000000000011c0       0x20 /usr/lib/gcl-2.6.7/unixport//libansi_gcl.a(gcl_pcl_fast_init.o)
 .debug_aranges
                0x00000000000011e0       0x20 /usr/lib/gcl-2.6.7/unixport//libansi_gcl.a(gcl_pcl_env.o)
 .debug_aranges
                0x0000000000001200       0x20 /usr/lib/gcl-2.6.7/unixport//libansi_gcl.a(gcl_pcl_walk.o)
 .debug_aranges
                0x0000000000001220       0x20 /usr/lib/gcl-2.6.7/unixport//libansi_gcl.a(gcl_pcl_defcombin.o)
 .debug_aranges
                0x0000000000001240       0x20 /usr/lib/gcl-2.6.7/unixport//libansi_gcl.a(gcl_pcl_std_class.o)
 .debug_aranges
                0x0000000000001260       0x20 /usr/lib/gcl-2.6.7/unixport//libansi_gcl.a(gcl_pcl_defclass.o)
 .debug_aranges
                0x0000000000001280       0x20 /usr/lib/gcl-2.6.7/unixport//libansi_gcl.a(gcl_pcl_fsc.o)
 .debug_aranges
                0x00000000000012a0       0x20 /usr/lib/gcl-2.6.7/unixport//libansi_gcl.a(gcl_pcl_vector.o)
 .debug_aranges
                0x00000000000012c0       0x20 /usr/lib/gcl-2.6.7/unixport//libansi_gcl.a(gcl_pcl_precom1.o)
 .debug_aranges
                0x00000000000012e0       0x20 /usr/lib/gcl-2.6.7/unixport//libansi_gcl.a(gcl_pcl_compat.o)
 .debug_aranges
                0x0000000000001300       0x20 /usr/lib/gcl-2.6.7/unixport//libansi_gcl.a(gcl_pcl_cpl.o)
 .debug_aranges
                0x0000000000001320       0x20 /usr/lib/gcl-2.6.7/unixport//libansi_gcl.a(gcl_pcl_fngen.o)
 .debug_aranges
                0x0000000000001340       0x20 /usr/lib/gcl-2.6.7/unixport//libansi_gcl.a(gcl_pcl_slots_boot.o)
 .debug_aranges
                0x0000000000001360       0x20 /usr/lib/gcl-2.6.7/unixport//libansi_gcl.a(gcl_pcl_gazonk7.o)
 .debug_aranges
                0x0000000000001380       0x20 /usr/lib/gcl-2.6.7/unixport//libansi_gcl.a(gcl_pcl_gazonk3.o)
 .debug_aranges
                0x00000000000013a0       0x20 /usr/lib/gcl-2.6.7/unixport//libansi_gcl.a(gcl_pcl_boot.o)
 .debug_aranges
                0x00000000000013c0       0x20 /usr/lib/gcl-2.6.7/unixport//libansi_gcl.a(gcl_pcl_impl_low.o)
 .debug_aranges
                0x00000000000013e0       0x20 /usr/lib/gcl-2.6.7/unixport//libansi_gcl.a(gcl_pcl_dlisp.o)
 .debug_aranges
                0x0000000000001400       0x20 /usr/lib/gcl-2.6.7/unixport//libansi_gcl.a(gcl_pcl_init.o)
 .debug_aranges
                0x0000000000001420       0x20 /usr/lib/gcl-2.6.7/unixport//libansi_gcl.a(gcl_pcl_dlisp2.o)
 .debug_aranges
                0x0000000000001440       0x20 /usr/lib/gcl-2.6.7/unixport//libansi_gcl.a(gcl_pcl_cache.o)
 .debug_aranges
                0x0000000000001460       0x20 /usr/lib/gcl-2.6.7/unixport//libansi_gcl.a(gcl_pcl_gazonk6.o)
 .debug_aranges
                0x0000000000001480       0x20 /usr/lib/gcl-2.6.7/unixport//libansi_gcl.a(gcl_pcl_defs.o)
 .debug_aranges
                0x00000000000014a0       0x20 /usr/lib/gcl-2.6.7/unixport//libansi_gcl.a(gcl_pcl_low.o)
 .debug_aranges
                0x00000000000014c0       0x20 /usr/lib/gcl-2.6.7/unixport//libansi_gcl.a(gcl_pcl_generic_functions.o)
 .debug_aranges
                0x00000000000014e0       0x20 /usr/lib/gcl-2.6.7/unixport//libansi_gcl.a(gcl_pcl_gazonk4.o)
 .debug_aranges
                0x0000000000001500       0x20 /usr/lib/gcl-2.6.7/unixport//libansi_gcl.a(gcl_pcl_iterate.o)
 .debug_aranges
                0x0000000000001520       0x20 /usr/lib/gcl-2.6.7/unixport//libansi_gcl.a(gcl_pcl_gazonk2.o)
 .debug_aranges
                0x0000000000001540       0x20 /usr/lib/gcl-2.6.7/unixport//libansi_gcl.a(gcl_pcl_methods.o)
 .debug_aranges
                0x0000000000001560       0x20 /usr/lib/gcl-2.6.7/unixport//libansi_gcl.a(gcl_pcl_fin.o)
 .debug_aranges
                0x0000000000001580       0x20 /usr/lib/gcl-2.6.7/unixport//libansi_gcl.a(gcl_pcl_gazonk1.o)
 .debug_aranges
                0x00000000000015a0       0x20 /usr/lib/gcl-2.6.7/unixport//libansi_gcl.a(gcl_pcl_gazonk0.o)
 .debug_aranges
                0x00000000000015c0       0x20 /usr/lib/gcl-2.6.7/unixport//libansi_gcl.a(gcl_pcl_dfun.o)
 .debug_aranges
                0x00000000000015e0       0x20 /usr/lib/gcl-2.6.7/unixport//libansi_gcl.a(gcl_pcl_fixup.o)
 .debug_aranges
                0x0000000000001600       0x20 /usr/lib/gcl-2.6.7/unixport//libansi_gcl.a(gcl_pcl_slots.o)
 .debug_aranges
                0x0000000000001620       0x20 /usr/lib/gcl-2.6.7/unixport//libansi_gcl.a(gcl_pcl_combin.o)
 .debug_aranges
                0x0000000000001640       0x20 /usr/lib/gcl-2.6.7/unixport//libansi_gcl.a(gcl_pcl_pkg.o)
 .debug_aranges
                0x0000000000001660       0x20 /usr/lib/gcl-2.6.7/unixport//libansi_gcl.a(gcl_pcl_braid.o)
 .debug_aranges
                0x0000000000001680       0x20 /usr/lib/gcl-2.6.7/unixport//libansi_gcl.a(gcl_pcl_ctypes.o)
 .debug_aranges
                0x00000000000016a0       0x20 /usr/lib/gcl-2.6.7/unixport//libansi_gcl.a(gcl_clcs_install.o)
 .debug_aranges
                0x00000000000016c0       0x20 /usr/lib/gcl-2.6.7/unixport//libansi_gcl.a(gcl_clcs_handler.o)
 .debug_aranges
                0x00000000000016e0       0x20 /usr/lib/gcl-2.6.7/unixport//libansi_gcl.a(gcl_clcs_macros.o)
 .debug_aranges
                0x0000000000001700       0x20 /usr/lib/gcl-2.6.7/unixport//libansi_gcl.a(gcl_clcs_conditions.o)
 .debug_aranges
                0x0000000000001720       0x20 /usr/lib/gcl-2.6.7/unixport//libansi_gcl.a(gcl_clcs_debugger.o)
 .debug_aranges
                0x0000000000001740       0x20 /usr/lib/gcl-2.6.7/unixport//libansi_gcl.a(gcl_clcs_top_patches.o)
 .debug_aranges
                0x0000000000001760       0x20 /usr/lib/gcl-2.6.7/unixport//libansi_gcl.a(gcl_clcs_condition_definitions.o)
 .debug_aranges
                0x0000000000001780       0x20 /usr/lib/gcl-2.6.7/unixport//libansi_gcl.a(gcl_clcs_restart.o)
 .debug_aranges
                0x00000000000017a0       0x20 /usr/lib/gcl-2.6.7/unixport//libansi_gcl.a(gcl_clcs_precom.o)
 .debug_aranges
                0x00000000000017c0       0x20 /usr/lib/gcl-2.6.7/unixport//libansi_gcl.a(gcl_clcs_kcl_cond.o)
 .debug_aranges
                0x00000000000017e0       0x20 /usr/lib/gcl-2.6.7/unixport//libansi_gcl.a(num_sfun.o)
 .debug_aranges
                0x0000000000001800       0x20 /usr/lib/gcl-2.6.7/unixport//libansi_gcl.a(num_rand.o)
 .debug_aranges
                0x0000000000001820       0x20 /usr/lib/gcl-2.6.7/unixport//libansi_gcl.a(general-c.o)

.debug_pubnames
                0x0000000000000000    0x14213
 *(.debug_pubnames)
 .debug_pubnames
                0x0000000000000000       0x2f ./user-init.o
 .debug_pubnames
                0x000000000000002f     0x237e /usr/lib/gcl-2.6.7/unixport//libansi_gcl.a(main.o)
 .debug_pubnames
                0x00000000000023ad      0x2bd /usr/lib/gcl-2.6.7/unixport//libansi_gcl.a(package.o)
 .debug_pubnames
                0x000000000000266a       0xb1 /usr/lib/gcl-2.6.7/unixport//libansi_gcl.a(gcl_readline.o)
 .debug_pubnames
                0x000000000000271b      0x2a8 /usr/lib/gcl-2.6.7/unixport//libansi_gcl.a(symbol.o)
 .debug_pubnames
                0x00000000000029c3       0xfc /usr/lib/gcl-2.6.7/unixport//libansi_gcl.a(makefun.o)
 .debug_pubnames
                0x0000000000002abf      0x335 /usr/lib/gcl-2.6.7/unixport//libansi_gcl.a(string.o)
 .debug_pubnames
                0x0000000000002df4      0x428 /usr/lib/gcl-2.6.7/unixport//libansi_gcl.a(print.o)
 .debug_pubnames
                0x000000000000321c      0x120 /usr/lib/gcl-2.6.7/unixport//libansi_gcl.a(macros.o)
 .debug_pubnames
                0x000000000000333c       0x6e /usr/lib/gcl-2.6.7/unixport//libansi_gcl.a(multival.o)
 .debug_pubnames
                0x00000000000033aa      0x67b /usr/lib/gcl-2.6.7/unixport//libansi_gcl.a(file.o)
 .debug_pubnames
                0x0000000000003a25       0x77 /usr/lib/gcl-2.6.7/unixport//libansi_gcl.a(sys_ansi_gcl.o)
 .debug_pubnames
                0x0000000000003a9c       0xb6 /usr/lib/gcl-2.6.7/unixport//libansi_gcl.a(sfasl.o)
 .debug_pubnames
                0x0000000000003b52      0x2ae /usr/lib/gcl-2.6.7/unixport//libansi_gcl.a(eval.o)
 .debug_pubnames
                0x0000000000003e00      0x5b6 /usr/lib/gcl-2.6.7/unixport//libansi_gcl.a(array.o)
 .debug_pubnames
                0x00000000000043b6       0xc3 /usr/lib/gcl-2.6.7/unixport//libansi_gcl.a(lex.o)
 .debug_pubnames
                0x0000000000004479      0x144 /usr/lib/gcl-2.6.7/unixport//libansi_gcl.a(earith.o)
 .debug_pubnames
                0x00000000000045bd      0x144 /usr/lib/gcl-2.6.7/unixport//libansi_gcl.a(toplevel.o)
 .debug_pubnames
                0x0000000000004701      0x129 /usr/lib/gcl-2.6.7/unixport//libansi_gcl.a(nsocket.o)
 .debug_pubnames
                0x000000000000482a      0x763 /usr/lib/gcl-2.6.7/unixport//libansi_gcl.a(list.o)
 .debug_pubnames
                0x0000000000004f8d      0x13d /usr/lib/gcl-2.6.7/unixport//libansi_gcl.a(structure.o)
 .debug_pubnames
                0x00000000000050ca      0x1d8 /usr/lib/gcl-2.6.7/unixport//libansi_gcl.a(unixfsys.o)
 .debug_pubnames
                0x00000000000052a2       0xac /usr/lib/gcl-2.6.7/unixport//libansi_gcl.a(unixsys.o)
 .debug_pubnames
                0x000000000000534e      0x63c /usr/lib/gcl-2.6.7/unixport//libansi_gcl.a(predicate.o)
 .debug_pubnames
                0x000000000000598a      0x15c /usr/lib/gcl-2.6.7/unixport//libansi_gcl.a(number.o)
 .debug_pubnames
                0x0000000000005ae6      0x244 /usr/lib/gcl-2.6.7/unixport//libansi_gcl.a(cmpaux.o)
 .debug_pubnames
                0x0000000000005d2a       0xfb /usr/lib/gcl-2.6.7/unixport//libansi_gcl.a(num_log.o)
 .debug_pubnames
                0x0000000000005e25      0x12c /usr/lib/gcl-2.6.7/unixport//libansi_gcl.a(sequence.o)
 .debug_pubnames
                0x0000000000005f51      0x22c /usr/lib/gcl-2.6.7/unixport//libansi_gcl.a(pathname.o)
 .debug_pubnames
                0x000000000000617d       0x5b /usr/lib/gcl-2.6.7/unixport//libansi_gcl.a(unixsave.o)
 .debug_pubnames
                0x00000000000061d8      0x1df /usr/lib/gcl-2.6.7/unixport//libansi_gcl.a(num_co.o)
 .debug_pubnames
                0x00000000000063b7      0x142 /usr/lib/gcl-2.6.7/unixport//libansi_gcl.a(usig2.o)
 .debug_pubnames
                0x00000000000064f9       0xef /usr/lib/gcl-2.6.7/unixport//libansi_gcl.a(num_pred.o)
 .debug_pubnames
                0x00000000000065e8       0x5d /usr/lib/gcl-2.6.7/unixport//libansi_gcl.a(let.o)
 .debug_pubnames
                0x0000000000006645      0x141 /usr/lib/gcl-2.6.7/unixport//libansi_gcl.a(bind.o)
 .debug_pubnames
                0x0000000000006786       0x94 /usr/lib/gcl-2.6.7/unixport//libansi_gcl.a(mapfun.o)
 .debug_pubnames
                0x000000000000681a      0xa91 /usr/lib/gcl-2.6.7/unixport//libansi_gcl.a(typespec.o)
 .debug_pubnames
                0x00000000000072ab      0x18c /usr/lib/gcl-2.6.7/unixport//libansi_gcl.a(funlink.o)
 .debug_pubnames
                0x0000000000007437       0x59 /usr/lib/gcl-2.6.7/unixport//libansi_gcl.a(new_init.o)
 .debug_pubnames
                0x0000000000007490       0xf4 /usr/lib/gcl-2.6.7/unixport//libansi_gcl.a(utils.o)
 .debug_pubnames
                0x0000000000007584      0x2b9 /usr/lib/gcl-2.6.7/unixport//libansi_gcl.a(read.o)
 .debug_pubnames
                0x000000000000783d       0x65 /usr/lib/gcl-2.6.7/unixport//libansi_gcl.a(prog.o)
 .debug_pubnames
                0x00000000000078a2       0x73 /usr/lib/gcl-2.6.7/unixport//libansi_gcl.a(catch.o)
 .debug_pubnames
                0x0000000000007915       0x52 /usr/lib/gcl-2.6.7/unixport//libansi_gcl.a(iteration.o)
 .debug_pubnames
                0x0000000000007967      0x7b8 /usr/lib/gcl-2.6.7/unixport//libansi_gcl.a(error.o)
 .debug_pubnames
                0x000000000000811f      0x17a /usr/lib/gcl-2.6.7/unixport//libansi_gcl.a(unixtime.o)
 .debug_pubnames
                0x0000000000008299      0x164 /usr/lib/gcl-2.6.7/unixport//libansi_gcl.a(format.o)
 .debug_pubnames
                0x00000000000083fd      0x280 /usr/lib/gcl-2.6.7/unixport//libansi_gcl.a(big.o)
 .debug_pubnames
                0x000000000000867d      0x1e4 /usr/lib/gcl-2.6.7/unixport//libansi_gcl.a(hash.o)
 .debug_pubnames
                0x0000000000008861      0x12b /usr/lib/gcl-2.6.7/unixport//libansi_gcl.a(num_comp.o)
 .debug_pubnames
                0x000000000000898c      0x259 /usr/lib/gcl-2.6.7/unixport//libansi_gcl.a(gmp_wrappers.o)
 .debug_pubnames
                0x0000000000008be5       0x51 /usr/lib/gcl-2.6.7/unixport//libansi_gcl.a(unixfasl.o)
 .debug_pubnames
                0x0000000000008c36       0xce /usr/lib/gcl-2.6.7/unixport//libansi_gcl.a(reference.o)
 .debug_pubnames
                0x0000000000008d04      0x237 /usr/lib/gcl-2.6.7/unixport//libansi_gcl.a(fat_string.o)
 .debug_pubnames
                0x0000000000008f3b      0x310 /usr/lib/gcl-2.6.7/unixport//libansi_gcl.a(character.o)
 .debug_pubnames
                0x000000000000924b      0x549 /usr/lib/gcl-2.6.7/unixport//libansi_gcl.a(alloc.o)
 .debug_pubnames
                0x0000000000009794      0x155 /usr/lib/gcl-2.6.7/unixport//libansi_gcl.a(regexpr.o)
 .debug_pubnames
                0x00000000000098e9       0xe5 /usr/lib/gcl-2.6.7/unixport//libansi_gcl.a(usig.o)
 .debug_pubnames
                0x00000000000099ce      0x2c2 /usr/lib/gcl-2.6.7/unixport//libansi_gcl.a(gbc.o)
 .debug_pubnames
                0x0000000000009c90      0x245 /usr/lib/gcl-2.6.7/unixport//libansi_gcl.a(cfun.o)
 .debug_pubnames
                0x0000000000009ed5       0x86 /usr/lib/gcl-2.6.7/unixport//libansi_gcl.a(nfunlink.o)
 .debug_pubnames
                0x0000000000009f5b       0xb4 /usr/lib/gcl-2.6.7/unixport//libansi_gcl.a(backq.o)
 .debug_pubnames
                0x000000000000a00f       0x4a /usr/lib/gcl-2.6.7/unixport//libansi_gcl.a(bds.o)
 .debug_pubnames
                0x000000000000a059      0x108 /usr/lib/gcl-2.6.7/unixport//libansi_gcl.a(run_process.o)
 .debug_pubnames
                0x000000000000a161      0x29f /usr/lib/gcl-2.6.7/unixport//libansi_gcl.a(assignment.o)
 .debug_pubnames
                0x000000000000a400       0x64 /usr/lib/gcl-2.6.7/unixport//libansi_gcl.a(conditional.o)
 .debug_pubnames
                0x000000000000a464       0x4e /usr/lib/gcl-2.6.7/unixport//libansi_gcl.a(block.o)
 .debug_pubnames
                0x000000000000a4b2       0x64 /usr/lib/gcl-2.6.7/unixport//libansi_gcl.a(frame.o)
 .debug_pubnames
                0x000000000000a516      0x18e /usr/lib/gcl-2.6.7/unixport//libansi_gcl.a(num_arith.o)
 .debug_pubnames
                0x000000000000a6a4      0x3cf /usr/lib/gcl-2.6.7/unixport//libansi_gcl.a(sockets.o)
 .debug_pubnames
                0x000000000000aa73       0x26 /usr/lib/gcl-2.6.7/unixport//libansi_gcl.a(gcl_numlib.o)
 .debug_pubnames
                0x000000000000aa99       0x32 /usr/lib/gcl-2.6.7/unixport//libansi_gcl.a(gcl_destructuring_bind.o)
 .debug_pubnames
                0x000000000000aacb       0x27 /usr/lib/gcl-2.6.7/unixport//libansi_gcl.a(gcl_listlib.o)
 .debug_pubnames
                0x000000000000aaf2       0x26 /usr/lib/gcl-2.6.7/unixport//libansi_gcl.a(gcl_module.o)
 .debug_pubnames
                0x000000000000ab18       0x23 /usr/lib/gcl-2.6.7/unixport//libansi_gcl.a(gcl_top.o)
 .debug_pubnames
                0x000000000000ab3b       0x27 /usr/lib/gcl-2.6.7/unixport//libansi_gcl.a(gcl_predlib.o)
 .debug_pubnames
                0x000000000000ab62       0x25 /usr/lib/gcl-2.6.7/unixport//libansi_gcl.a(gcl_iolib.o)
 .debug_pubnames
                0x000000000000ab87       0x26 /usr/lib/gcl-2.6.7/unixport//libansi_gcl.a(gcl_serror.o)
 .debug_pubnames
                0x000000000000abad       0x29 /usr/lib/gcl-2.6.7/unixport//libansi_gcl.a(gcl_defstruct.o)
 .debug_pubnames
                0x000000000000abd6       0x41 /usr/lib/gcl-2.6.7/unixport//libansi_gcl.a(gcl_debug.o)
 .debug_pubnames
                0x000000000000ac17       0x28 /usr/lib/gcl-2.6.7/unixport//libansi_gcl.a(gcl_arraylib.o)
 .debug_pubnames
                0x000000000000ac3f       0x27 /usr/lib/gcl-2.6.7/unixport//libansi_gcl.a(gcl_packlib.o)
 .debug_pubnames
                0x000000000000ac66       0x23 /usr/lib/gcl-2.6.7/unixport//libansi_gcl.a(gcl_seq.o)
 .debug_pubnames
                0x000000000000ac89       0x2a /usr/lib/gcl-2.6.7/unixport//libansi_gcl.a(gcl_defpackage.o)
 .debug_pubnames
                0x000000000000acb3       0x24 /usr/lib/gcl-2.6.7/unixport//libansi_gcl.a(gcl_info.o)
 .debug_pubnames
                0x000000000000acd7       0x25 /usr/lib/gcl-2.6.7/unixport//libansi_gcl.a(gcl_trace.o)
 .debug_pubnames
                0x000000000000acfc       0x25 /usr/lib/gcl-2.6.7/unixport//libansi_gcl.a(gcl_sloop.o)
 .debug_pubnames
                0x000000000000ad21       0x26 /usr/lib/gcl-2.6.7/unixport//libansi_gcl.a(gcl_mislib.o)
 .debug_pubnames
                0x000000000000ad47       0x28 /usr/lib/gcl-2.6.7/unixport//libansi_gcl.a(gcl_defmacro.o)
 .debug_pubnames
                0x000000000000ad6f       0x2a /usr/lib/gcl-2.6.7/unixport//libansi_gcl.a(gcl_evalmacros.o)
 .debug_pubnames
                0x000000000000ad99       0x26 /usr/lib/gcl-2.6.7/unixport//libansi_gcl.a(gcl_seqlib.o)
 .debug_pubnames
                0x000000000000adbf       0x24 /usr/lib/gcl-2.6.7/unixport//libansi_gcl.a(gcl_loop.o)
 .debug_pubnames
                0x000000000000ade3       0x28 /usr/lib/gcl-2.6.7/unixport//libansi_gcl.a(gcl_describe.o)
 .debug_pubnames
                0x000000000000ae0b       0x24 /usr/lib/gcl-2.6.7/unixport//libansi_gcl.a(gcl_setf.o)
 .debug_pubnames
                0x000000000000ae2f       0x2f /usr/lib/gcl-2.6.7/unixport//libansi_gcl.a(gcl_make_defpackage.o)
 .debug_pubnames
                0x000000000000ae5e       0x26 /usr/lib/gcl-2.6.7/unixport//libansi_gcl.a(gcl_assert.o)
 .debug_pubnames
                0x000000000000ae84       0x2f /usr/lib/gcl-2.6.7/unixport//libansi_gcl.a(gcl_defentry_events.o)
 .debug_pubnames
                0x000000000000aeb3       0x29 /usr/lib/gcl-2.6.7/unixport//libansi_gcl.a(gcl_keysymdef.o)
 .debug_pubnames
                0x000000000000aedc       0x2b /usr/lib/gcl-2.6.7/unixport//libansi_gcl.a(gcl_XStruct_l_3.o)
 .debug_pubnames
                0x000000000000af07       0x26 /usr/lib/gcl-2.6.7/unixport//libansi_gcl.a(gcl_tohtml.o)
 .debug_pubnames
                0x000000000000af2d     0x4416 /usr/lib/gcl-2.6.7/unixport//libansi_gcl.a(Events.o)
 .debug_pubnames
                0x000000000000f343       0x25 /usr/lib/gcl-2.6.7/unixport//libansi_gcl.a(gcl_Xutil.o)
 .debug_pubnames
                0x000000000000f368     0x26c6 /usr/lib/gcl-2.6.7/unixport//libansi_gcl.a(XStruct-4.o)
 .debug_pubnames
                0x0000000000011a2e       0x24 /usr/lib/gcl-2.6.7/unixport//libansi_gcl.a(gcl_Xlib.o)
 .debug_pubnames
                0x0000000000011a52       0x27 /usr/lib/gcl-2.6.7/unixport//libansi_gcl.a(gcl_Xstruct.o)
 .debug_pubnames
                0x0000000000011a79     0x16ea /usr/lib/gcl-2.6.7/unixport//libansi_gcl.a(XStruct-2.o)
 .debug_pubnames
                0x0000000000013163       0x25 /usr/lib/gcl-2.6.7/unixport//libansi_gcl.a(gcl_XAtom.o)
 .debug_pubnames
                0x0000000000013188       0x23 /usr/lib/gcl-2.6.7/unixport//libansi_gcl.a(gcl_X10.o)
 .debug_pubnames
                0x00000000000131ab       0xa0 /usr/lib/gcl-2.6.7/unixport//libansi_gcl.a(Xutil-2.o)
 .debug_pubnames
                0x000000000001324b       0x25 /usr/lib/gcl-2.6.7/unixport//libansi_gcl.a(gcl_Xinit.o)
 .debug_pubnames
                0x0000000000013270       0x25 /usr/lib/gcl-2.6.7/unixport//libansi_gcl.a(gcl_index.o)
 .debug_pubnames
                0x0000000000013295       0x27 /usr/lib/gcl-2.6.7/unixport//libansi_gcl.a(gcl_dwtrans.o)
 .debug_pubnames
                0x00000000000132bc       0x7d /usr/lib/gcl-2.6.7/unixport//libansi_gcl.a(gcl_general.o)
 .debug_pubnames
                0x0000000000013339       0x21 /usr/lib/gcl-2.6.7/unixport//libansi_gcl.a(gcl_X.o)
 .debug_pubnames
                0x000000000001335a       0x26 /usr/lib/gcl-2.6.7/unixport//libansi_gcl.a(gcl_cmplet.o)
 .debug_pubnames
                0x0000000000013380       0x27 /usr/lib/gcl-2.6.7/unixport//libansi_gcl.a(gcl_cmpflet.o)
 .debug_pubnames
                0x00000000000133a7       0x26 /usr/lib/gcl-2.6.7/unixport//libansi_gcl.a(gcl_cmpfun.o)
 .debug_pubnames
                0x00000000000133cd       0x2a /usr/lib/gcl-2.6.7/unixport//libansi_gcl.a(gcl_cmpspecial.o)
 .debug_pubnames
                0x00000000000133f7       0x27 /usr/lib/gcl-2.6.7/unixport//libansi_gcl.a(gcl_cmputil.o)
 .debug_pubnames
                0x000000000001341e       0x26 /usr/lib/gcl-2.6.7/unixport//libansi_gcl.a(gcl_cmptag.o)
 .debug_pubnames
                0x0000000000013444       0x28 /usr/lib/gcl-2.6.7/unixport//libansi_gcl.a(gcl_cmpblock.o)
 .debug_pubnames
                0x000000000001346c       0x25 /usr/lib/gcl-2.6.7/unixport//libansi_gcl.a(gcl_cmpwt.o)
 .debug_pubnames
                0x0000000000013491       0x26 /usr/lib/gcl-2.6.7/unixport//libansi_gcl.a(gcl_cmplam.o)
 .debug_pubnames
                0x00000000000134b7       0x25 /usr/lib/gcl-2.6.7/unixport//libansi_gcl.a(gcl_cmpvs.o)
 .debug_pubnames
                0x00000000000134dc       0x26 /usr/lib/gcl-2.6.7/unixport//libansi_gcl.a(gcl_cmpenv.o)
 .debug_pubnames
                0x0000000000013502       0x28 /usr/lib/gcl-2.6.7/unixport//libansi_gcl.a(gcl_cmpcatch.o)
 .debug_pubnames
                0x000000000001352a       0x28 /usr/lib/gcl-2.6.7/unixport//libansi_gcl.a(gcl_cmpmulti.o)
 .debug_pubnames
                0x0000000000013552       0x27 /usr/lib/gcl-2.6.7/unixport//libansi_gcl.a(gcl_cmpmain.o)
 .debug_pubnames
                0x0000000000013579       0x26 /usr/lib/gcl-2.6.7/unixport//libansi_gcl.a(gcl_cmptop.o)
 .debug_pubnames
                0x000000000001359f       0x27 /usr/lib/gcl-2.6.7/unixport//libansi_gcl.a(gcl_cmptype.o)
 .debug_pubnames
                0x00000000000135c6       0x26 /usr/lib/gcl-2.6.7/unixport//libansi_gcl.a(gcl_cmpvar.o)
 .debug_pubnames
                0x00000000000135ec       0x25 /usr/lib/gcl-2.6.7/unixport//libansi_gcl.a(gcl_cmpif.o)
 .debug_pubnames
                0x0000000000013611       0x27 /usr/lib/gcl-2.6.7/unixport//libansi_gcl.a(gcl_cmpbind.o)
 .debug_pubnames
                0x0000000000013638       0x26 /usr/lib/gcl-2.6.7/unixport//libansi_gcl.a(gcl_cmploc.o)
 .debug_pubnames
                0x000000000001365e       0x28 /usr/lib/gcl-2.6.7/unixport//libansi_gcl.a(gcl_cmplabel.o)
 .debug_pubnames
                0x0000000000013686       0x26 /usr/lib/gcl-2.6.7/unixport//libansi_gcl.a(gcl_cmpmap.o)
 .debug_pubnames
                0x00000000000136ac       0x29 /usr/lib/gcl-2.6.7/unixport//libansi_gcl.a(gcl_cmpinline.o)
 .debug_pubnames
                0x00000000000136d5       0x27 /usr/lib/gcl-2.6.7/unixport//libansi_gcl.a(gcl_cmpeval.o)
 .debug_pubnames
                0x00000000000136fc       0x27 /usr/lib/gcl-2.6.7/unixport//libansi_gcl.a(gcl_cmpcall.o)
 .debug_pubnames
                0x0000000000013723       0x2b /usr/lib/gcl-2.6.7/unixport//libansi_gcl.a(gcl_pcl_gazonk5.o)
 .debug_pubnames
                0x000000000001374e       0x2b /usr/lib/gcl-2.6.7/unixport//libansi_gcl.a(gcl_pcl_precom2.o)
 .debug_pubnames
                0x0000000000013779       0x2a /usr/lib/gcl-2.6.7/unixport//libansi_gcl.a(gcl_pcl_macros.o)
 .debug_pubnames
                0x00000000000137a3       0x2d /usr/lib/gcl-2.6.7/unixport//libansi_gcl.a(gcl_pcl_fast_init.o)
 .debug_pubnames
                0x00000000000137d0       0x27 /usr/lib/gcl-2.6.7/unixport//libansi_gcl.a(gcl_pcl_env.o)
 .debug_pubnames
                0x00000000000137f7       0x28 /usr/lib/gcl-2.6.7/unixport//libansi_gcl.a(gcl_pcl_walk.o)
 .debug_pubnames
                0x000000000001381f       0x2d /usr/lib/gcl-2.6.7/unixport//libansi_gcl.a(gcl_pcl_defcombin.o)
 .debug_pubnames
                0x000000000001384c       0x2d /usr/lib/gcl-2.6.7/unixport//libansi_gcl.a(gcl_pcl_std_class.o)
 .debug_pubnames
                0x0000000000013879       0x2c /usr/lib/gcl-2.6.7/unixport//libansi_gcl.a(gcl_pcl_defclass.o)
 .debug_pubnames
                0x00000000000138a5       0x27 /usr/lib/gcl-2.6.7/unixport//libansi_gcl.a(gcl_pcl_fsc.o)
 .debug_pubnames
                0x00000000000138cc       0x2a /usr/lib/gcl-2.6.7/unixport//libansi_gcl.a(gcl_pcl_vector.o)
 .debug_pubnames
                0x00000000000138f6       0x2b /usr/lib/gcl-2.6.7/unixport//libansi_gcl.a(gcl_pcl_precom1.o)
 .debug_pubnames
                0x0000000000013921       0x2a /usr/lib/gcl-2.6.7/unixport//libansi_gcl.a(gcl_pcl_compat.o)
 .debug_pubnames
                0x000000000001394b       0x27 /usr/lib/gcl-2.6.7/unixport//libansi_gcl.a(gcl_pcl_cpl.o)
 .debug_pubnames
                0x0000000000013972       0x29 /usr/lib/gcl-2.6.7/unixport//libansi_gcl.a(gcl_pcl_fngen.o)
 .debug_pubnames
                0x000000000001399b       0x2e /usr/lib/gcl-2.6.7/unixport//libansi_gcl.a(gcl_pcl_slots_boot.o)
 .debug_pubnames
                0x00000000000139c9       0x2b /usr/lib/gcl-2.6.7/unixport//libansi_gcl.a(gcl_pcl_gazonk7.o)
 .debug_pubnames
                0x00000000000139f4       0x2b /usr/lib/gcl-2.6.7/unixport//libansi_gcl.a(gcl_pcl_gazonk3.o)
 .debug_pubnames
                0x0000000000013a1f       0x28 /usr/lib/gcl-2.6.7/unixport//libansi_gcl.a(gcl_pcl_boot.o)
 .debug_pubnames
                0x0000000000013a47       0x2c /usr/lib/gcl-2.6.7/unixport//libansi_gcl.a(gcl_pcl_impl_low.o)
 .debug_pubnames
                0x0000000000013a73       0x29 /usr/lib/gcl-2.6.7/unixport//libansi_gcl.a(gcl_pcl_dlisp.o)
 .debug_pubnames
                0x0000000000013a9c       0x28 /usr/lib/gcl-2.6.7/unixport//libansi_gcl.a(gcl_pcl_init.o)
 .debug_pubnames
                0x0000000000013ac4       0x2a /usr/lib/gcl-2.6.7/unixport//libansi_gcl.a(gcl_pcl_dlisp2.o)
 .debug_pubnames
                0x0000000000013aee       0x29 /usr/lib/gcl-2.6.7/unixport//libansi_gcl.a(gcl_pcl_cache.o)
 .debug_pubnames
                0x0000000000013b17       0x2b /usr/lib/gcl-2.6.7/unixport//libansi_gcl.a(gcl_pcl_gazonk6.o)
 .debug_pubnames
                0x0000000000013b42       0x28 /usr/lib/gcl-2.6.7/unixport//libansi_gcl.a(gcl_pcl_defs.o)
 .debug_pubnames
                0x0000000000013b6a       0x27 /usr/lib/gcl-2.6.7/unixport//libansi_gcl.a(gcl_pcl_low.o)
 .debug_pubnames
                0x0000000000013b91       0x35 /usr/lib/gcl-2.6.7/unixport//libansi_gcl.a(gcl_pcl_generic_functions.o)
 .debug_pubnames
                0x0000000000013bc6       0x2b /usr/lib/gcl-2.6.7/unixport//libansi_gcl.a(gcl_pcl_gazonk4.o)
 .debug_pubnames
                0x0000000000013bf1       0x2b /usr/lib/gcl-2.6.7/unixport//libansi_gcl.a(gcl_pcl_iterate.o)
 .debug_pubnames
                0x0000000000013c1c       0x2b /usr/lib/gcl-2.6.7/unixport//libansi_gcl.a(gcl_pcl_gazonk2.o)
 .debug_pubnames
                0x0000000000013c47       0x2b /usr/lib/gcl-2.6.7/unixport//libansi_gcl.a(gcl_pcl_methods.o)
 .debug_pubnames
                0x0000000000013c72       0x27 /usr/lib/gcl-2.6.7/unixport//libansi_gcl.a(gcl_pcl_fin.o)
 .debug_pubnames
                0x0000000000013c99       0x2b /usr/lib/gcl-2.6.7/unixport//libansi_gcl.a(gcl_pcl_gazonk1.o)
 .debug_pubnames
                0x0000000000013cc4       0x2b /usr/lib/gcl-2.6.7/unixport//libansi_gcl.a(gcl_pcl_gazonk0.o)
 .debug_pubnames
                0x0000000000013cef       0x28 /usr/lib/gcl-2.6.7/unixport//libansi_gcl.a(gcl_pcl_dfun.o)
 .debug_pubnames
                0x0000000000013d17       0x29 /usr/lib/gcl-2.6.7/unixport//libansi_gcl.a(gcl_pcl_fixup.o)
 .debug_pubnames
                0x0000000000013d40       0x29 /usr/lib/gcl-2.6.7/unixport//libansi_gcl.a(gcl_pcl_slots.o)
 .debug_pubnames
                0x0000000000013d69       0x2a /usr/lib/gcl-2.6.7/unixport//libansi_gcl.a(gcl_pcl_combin.o)
 .debug_pubnames
                0x0000000000013d93       0x27 /usr/lib/gcl-2.6.7/unixport//libansi_gcl.a(gcl_pcl_pkg.o)
 .debug_pubnames
                0x0000000000013dba       0x29 /usr/lib/gcl-2.6.7/unixport//libansi_gcl.a(gcl_pcl_braid.o)
 .debug_pubnames
                0x0000000000013de3       0x2a /usr/lib/gcl-2.6.7/unixport//libansi_gcl.a(gcl_pcl_ctypes.o)
 .debug_pubnames
                0x0000000000013e0d       0x2c /usr/lib/gcl-2.6.7/unixport//libansi_gcl.a(gcl_clcs_install.o)
 .debug_pubnames
                0x0000000000013e39       0x2c /usr/lib/gcl-2.6.7/unixport//libansi_gcl.a(gcl_clcs_handler.o)
 .debug_pubnames
                0x0000000000013e65       0x2b /usr/lib/gcl-2.6.7/unixport//libansi_gcl.a(gcl_clcs_macros.o)
 .debug_pubnames
                0x0000000000013e90       0x2f /usr/lib/gcl-2.6.7/unixport//libansi_gcl.a(gcl_clcs_conditions.o)
 .debug_pubnames
                0x0000000000013ebf       0x2d /usr/lib/gcl-2.6.7/unixport//libansi_gcl.a(gcl_clcs_debugger.o)
 .debug_pubnames
                0x0000000000013eec       0x30 /usr/lib/gcl-2.6.7/unixport//libansi_gcl.a(gcl_clcs_top_patches.o)
 .debug_pubnames
                0x0000000000013f1c       0x3a /usr/lib/gcl-2.6.7/unixport//libansi_gcl.a(gcl_clcs_condition_definitions.o)
 .debug_pubnames
                0x0000000000013f56       0x2c /usr/lib/gcl-2.6.7/unixport//libansi_gcl.a(gcl_clcs_restart.o)
 .debug_pubnames
                0x0000000000013f82       0x2b /usr/lib/gcl-2.6.7/unixport//libansi_gcl.a(gcl_clcs_precom.o)
 .debug_pubnames
                0x0000000000013fad       0x2d /usr/lib/gcl-2.6.7/unixport//libansi_gcl.a(gcl_clcs_kcl_cond.o)
 .debug_pubnames
                0x0000000000013fda       0xfd /usr/lib/gcl-2.6.7/unixport//libansi_gcl.a(num_sfun.o)
 .debug_pubnames
                0x00000000000140d7       0x9a /usr/lib/gcl-2.6.7/unixport//libansi_gcl.a(num_rand.o)
 .debug_pubnames
                0x0000000000014171       0xa2 /usr/lib/gcl-2.6.7/unixport//libansi_gcl.a(general-c.o)

.debug_info     0x0000000000000000   0x2c8b7d
 *(.debug_info .gnu.linkonce.wi.*)
 .debug_info    0x0000000000000000     0x180b ./user-init.o
 .debug_info    0x000000000000180b     0x4d6e /usr/lib/gcl-2.6.7/unixport//libansi_gcl.a(main.o)
 .debug_info    0x0000000000006579     0x2f06 /usr/lib/gcl-2.6.7/unixport//libansi_gcl.a(package.o)
 .debug_info    0x000000000000947f     0x1dbd /usr/lib/gcl-2.6.7/unixport//libansi_gcl.a(gcl_readline.o)
 .debug_info    0x000000000000b23c     0x2509 /usr/lib/gcl-2.6.7/unixport//libansi_gcl.a(symbol.o)
 .debug_info    0x000000000000d745     0x1ddd /usr/lib/gcl-2.6.7/unixport//libansi_gcl.a(makefun.o)
 .debug_info    0x000000000000f522     0x25a0 /usr/lib/gcl-2.6.7/unixport//libansi_gcl.a(string.o)
 .debug_info    0x0000000000011ac2     0x31a6 /usr/lib/gcl-2.6.7/unixport//libansi_gcl.a(print.o)
 .debug_info    0x0000000000014c68     0x1e1f /usr/lib/gcl-2.6.7/unixport//libansi_gcl.a(macros.o)
 .debug_info    0x0000000000016a87     0x1b85 /usr/lib/gcl-2.6.7/unixport//libansi_gcl.a(multival.o)
 .debug_info    0x000000000001860c     0x4201 /usr/lib/gcl-2.6.7/unixport//libansi_gcl.a(file.o)
 .debug_info    0x000000000001c80d     0x1d24 /usr/lib/gcl-2.6.7/unixport//libansi_gcl.a(sys_ansi_gcl.o)
 .debug_info    0x000000000001e531     0x311d /usr/lib/gcl-2.6.7/unixport//libansi_gcl.a(sfasl.o)
 .debug_info    0x000000000002164e     0x3161 /usr/lib/gcl-2.6.7/unixport//libansi_gcl.a(eval.o)
 .debug_info    0x00000000000247af     0x2fc1 /usr/lib/gcl-2.6.7/unixport//libansi_gcl.a(array.o)
 .debug_info    0x0000000000027770     0x1bc3 /usr/lib/gcl-2.6.7/unixport//libansi_gcl.a(lex.o)
 .debug_info    0x0000000000029333     0x1e47 /usr/lib/gcl-2.6.7/unixport//libansi_gcl.a(earith.o)
 .debug_info    0x000000000002b17a     0x1ef3 /usr/lib/gcl-2.6.7/unixport//libansi_gcl.a(toplevel.o)
 .debug_info    0x000000000002d06d     0x22c0 /usr/lib/gcl-2.6.7/unixport//libansi_gcl.a(nsocket.o)
 .debug_info    0x000000000002f32d     0x4271 /usr/lib/gcl-2.6.7/unixport//libansi_gcl.a(list.o)
 .debug_info    0x000000000003359e     0x2119 /usr/lib/gcl-2.6.7/unixport//libansi_gcl.a(structure.o)
 .debug_info    0x00000000000356b7     0x246e /usr/lib/gcl-2.6.7/unixport//libansi_gcl.a(unixfsys.o)
 .debug_info    0x0000000000037b25     0x1d04 /usr/lib/gcl-2.6.7/unixport//libansi_gcl.a(unixsys.o)
 .debug_info    0x0000000000039829     0x29ae /usr/lib/gcl-2.6.7/unixport//libansi_gcl.a(predicate.o)
 .debug_info    0x000000000003c1d7     0x1d04 /usr/lib/gcl-2.6.7/unixport//libansi_gcl.a(number.o)
 .debug_info    0x000000000003dedb     0x2343 /usr/lib/gcl-2.6.7/unixport//libansi_gcl.a(cmpaux.o)
 .debug_info    0x000000000004021e     0x292d /usr/lib/gcl-2.6.7/unixport//libansi_gcl.a(num_log.o)
 .debug_info    0x0000000000042b4b     0x1ec0 /usr/lib/gcl-2.6.7/unixport//libansi_gcl.a(sequence.o)
 .debug_info    0x0000000000044a0b     0x2272 /usr/lib/gcl-2.6.7/unixport//libansi_gcl.a(pathname.o)
 .debug_info    0x0000000000046c7d     0x2609 /usr/lib/gcl-2.6.7/unixport//libansi_gcl.a(unixsave.o)
 .debug_info    0x0000000000049286     0x256b /usr/lib/gcl-2.6.7/unixport//libansi_gcl.a(num_co.o)
 .debug_info    0x000000000004b7f1     0x2d12 /usr/lib/gcl-2.6.7/unixport//libansi_gcl.a(usig2.o)
 .debug_info    0x000000000004e503     0x1ac3 /usr/lib/gcl-2.6.7/unixport//libansi_gcl.a(num_pred.o)
 .debug_info    0x000000000004ffc6     0x224f /usr/lib/gcl-2.6.7/unixport//libansi_gcl.a(let.o)
 .debug_info    0x0000000000052215     0x2cca /usr/lib/gcl-2.6.7/unixport//libansi_gcl.a(bind.o)
 .debug_info    0x0000000000054edf     0x1ed3 /usr/lib/gcl-2.6.7/unixport//libansi_gcl.a(mapfun.o)
 .debug_info    0x0000000000056db2     0x28de /usr/lib/gcl-2.6.7/unixport//libansi_gcl.a(typespec.o)
 .debug_info    0x0000000000059690     0x2af9 /usr/lib/gcl-2.6.7/unixport//libansi_gcl.a(funlink.o)
 .debug_info    0x000000000005c189     0x28cd /usr/lib/gcl-2.6.7/unixport//libansi_gcl.a(new_init.o)
 .debug_info    0x000000000005ea56     0x1c83 /usr/lib/gcl-2.6.7/unixport//libansi_gcl.a(utils.o)
 .debug_info    0x00000000000606d9     0x3b41 /usr/lib/gcl-2.6.7/unixport//libansi_gcl.a(read.o)
 .debug_info    0x000000000006421a     0x21c5 /usr/lib/gcl-2.6.7/unixport//libansi_gcl.a(prog.o)
 .debug_info    0x00000000000663df     0x1e2a /usr/lib/gcl-2.6.7/unixport//libansi_gcl.a(catch.o)
 .debug_info    0x0000000000068209     0x2572 /usr/lib/gcl-2.6.7/unixport//libansi_gcl.a(iteration.o)
 .debug_info    0x000000000006a77b     0x3128 /usr/lib/gcl-2.6.7/unixport//libansi_gcl.a(error.o)
 .debug_info    0x000000000006d8a3     0x1e13 /usr/lib/gcl-2.6.7/unixport//libansi_gcl.a(unixtime.o)
 .debug_info    0x000000000006f6b6     0x40f6 /usr/lib/gcl-2.6.7/unixport//libansi_gcl.a(format.o)
 .debug_info    0x00000000000737ac     0x23bf /usr/lib/gcl-2.6.7/unixport//libansi_gcl.a(big.o)
 .debug_info    0x0000000000075b6b     0x2224 /usr/lib/gcl-2.6.7/unixport//libansi_gcl.a(hash.o)
 .debug_info    0x0000000000077d8f     0x1b82 /usr/lib/gcl-2.6.7/unixport//libansi_gcl.a(num_comp.o)
 .debug_info    0x0000000000079911     0x214e /usr/lib/gcl-2.6.7/unixport//libansi_gcl.a(gmp_wrappers.o)
 .debug_info    0x000000000007ba5f     0x196c /usr/lib/gcl-2.6.7/unixport//libansi_gcl.a(unixfasl.o)
 .debug_info    0x000000000007d3cb     0x1c05 /usr/lib/gcl-2.6.7/unixport//libansi_gcl.a(reference.o)
 .debug_info    0x000000000007efd0     0x390e /usr/lib/gcl-2.6.7/unixport//libansi_gcl.a(fat_string.o)
 .debug_info    0x00000000000828de     0x24f5 /usr/lib/gcl-2.6.7/unixport//libansi_gcl.a(character.o)
 .debug_info    0x0000000000084dd3     0x32da /usr/lib/gcl-2.6.7/unixport//libansi_gcl.a(alloc.o)
 .debug_info    0x00000000000880ad     0x2eff /usr/lib/gcl-2.6.7/unixport//libansi_gcl.a(regexpr.o)
 .debug_info    0x000000000008afac     0x1d3b /usr/lib/gcl-2.6.7/unixport//libansi_gcl.a(usig.o)
 .debug_info    0x000000000008cce7     0x4844 /usr/lib/gcl-2.6.7/unixport//libansi_gcl.a(gbc.o)
 .debug_info    0x000000000009152b     0x2451 /usr/lib/gcl-2.6.7/unixport//libansi_gcl.a(cfun.o)
 .debug_info    0x000000000009397c     0x1cd9 /usr/lib/gcl-2.6.7/unixport//libansi_gcl.a(nfunlink.o)
 .debug_info    0x0000000000095655     0x1cd1 /usr/lib/gcl-2.6.7/unixport//libansi_gcl.a(backq.o)
 .debug_info    0x0000000000097326     0x1885 /usr/lib/gcl-2.6.7/unixport//libansi_gcl.a(bds.o)
 .debug_info    0x0000000000098bab     0x1fc3 /usr/lib/gcl-2.6.7/unixport//libansi_gcl.a(run_process.o)
 .debug_info    0x000000000009ab6e     0x2775 /usr/lib/gcl-2.6.7/unixport//libansi_gcl.a(assignment.o)
 .debug_info    0x000000000009d2e3     0x1e42 /usr/lib/gcl-2.6.7/unixport//libansi_gcl.a(conditional.o)
 .debug_info    0x000000000009f125     0x1da7 /usr/lib/gcl-2.6.7/unixport//libansi_gcl.a(block.o)
 .debug_info    0x00000000000a0ecc     0x1a84 /usr/lib/gcl-2.6.7/unixport//libansi_gcl.a(frame.o)
 .debug_info    0x00000000000a2950     0x20cf /usr/lib/gcl-2.6.7/unixport//libansi_gcl.a(num_arith.o)
 .debug_info    0x00000000000a4a1f     0x2a91 /usr/lib/gcl-2.6.7/unixport//libansi_gcl.a(sockets.o)
 .debug_info    0x00000000000a74b0     0x3324 /usr/lib/gcl-2.6.7/unixport//libansi_gcl.a(gcl_numlib.o)
 .debug_info    0x00000000000aa7d4     0x2f53 /usr/lib/gcl-2.6.7/unixport//libansi_gcl.a(gcl_destructuring_bind.o)
 .debug_info    0x00000000000ad727     0x390a /usr/lib/gcl-2.6.7/unixport//libansi_gcl.a(gcl_listlib.o)
 .debug_info    0x00000000000b1031     0x1c52 /usr/lib/gcl-2.6.7/unixport//libansi_gcl.a(gcl_module.o)
 .debug_info    0x00000000000b2c83     0x64d7 /usr/lib/gcl-2.6.7/unixport//libansi_gcl.a(gcl_top.o)
 .debug_info    0x00000000000b915a     0x5097 /usr/lib/gcl-2.6.7/unixport//libansi_gcl.a(gcl_predlib.o)
 .debug_info    0x00000000000be1f1     0x346d /usr/lib/gcl-2.6.7/unixport//libansi_gcl.a(gcl_iolib.o)
 .debug_info    0x00000000000c165e     0x2f74 /usr/lib/gcl-2.6.7/unixport//libansi_gcl.a(gcl_serror.o)
 .debug_info    0x00000000000c45d2     0x52f8 /usr/lib/gcl-2.6.7/unixport//libansi_gcl.a(gcl_defstruct.o)
 .debug_info    0x00000000000c98ca     0x7545 /usr/lib/gcl-2.6.7/unixport//libansi_gcl.a(gcl_debug.o)
 .debug_info    0x00000000000d0e0f     0x3d12 /usr/lib/gcl-2.6.7/unixport//libansi_gcl.a(gcl_arraylib.o)
 .debug_info    0x00000000000d4b21     0x35c6 /usr/lib/gcl-2.6.7/unixport//libansi_gcl.a(gcl_packlib.o)
 .debug_info    0x00000000000d80e7     0x2e99 /usr/lib/gcl-2.6.7/unixport//libansi_gcl.a(gcl_seq.o)
 .debug_info    0x00000000000daf80     0x3044 /usr/lib/gcl-2.6.7/unixport//libansi_gcl.a(gcl_defpackage.o)
 .debug_info    0x00000000000ddfc4     0x54c0 /usr/lib/gcl-2.6.7/unixport//libansi_gcl.a(gcl_info.o)
 .debug_info    0x00000000000e3484     0x333b /usr/lib/gcl-2.6.7/unixport//libansi_gcl.a(gcl_trace.o)
 .debug_info    0x00000000000e67bf     0x79e4 /usr/lib/gcl-2.6.7/unixport//libansi_gcl.a(gcl_sloop.o)
 .debug_info    0x00000000000ee1a3     0x2927 /usr/lib/gcl-2.6.7/unixport//libansi_gcl.a(gcl_mislib.o)
 .debug_info    0x00000000000f0aca     0x2d6b /usr/lib/gcl-2.6.7/unixport//libansi_gcl.a(gcl_defmacro.o)
 .debug_info    0x00000000000f3835     0x3a87 /usr/lib/gcl-2.6.7/unixport//libansi_gcl.a(gcl_evalmacros.o)
 .debug_info    0x00000000000f72bc     0x850b /usr/lib/gcl-2.6.7/unixport//libansi_gcl.a(gcl_seqlib.o)
 .debug_info    0x00000000000ff7c7     0xa8e0 /usr/lib/gcl-2.6.7/unixport//libansi_gcl.a(gcl_loop.o)
 .debug_info    0x000000000010a0a7     0x49ae /usr/lib/gcl-2.6.7/unixport//libansi_gcl.a(gcl_describe.o)
 .debug_info    0x000000000010ea55     0x508a /usr/lib/gcl-2.6.7/unixport//libansi_gcl.a(gcl_setf.o)
 .debug_info    0x0000000000113adf     0x21b8 /usr/lib/gcl-2.6.7/unixport//libansi_gcl.a(gcl_make_defpackage.o)
 .debug_info    0x0000000000115c97     0x313c /usr/lib/gcl-2.6.7/unixport//libansi_gcl.a(gcl_assert.o)
 .debug_info    0x0000000000118dd3     0x9cb6 /usr/lib/gcl-2.6.7/unixport//libansi_gcl.a(gcl_defentry_events.o)
 .debug_info    0x0000000000122a89      0x33e /usr/lib/gcl-2.6.7/unixport//libansi_gcl.a(gcl_keysymdef.o)
 .debug_info    0x0000000000122dc7     0x6886 /usr/lib/gcl-2.6.7/unixport//libansi_gcl.a(gcl_XStruct_l_3.o)
 .debug_info    0x000000000012964d     0x3381 /usr/lib/gcl-2.6.7/unixport//libansi_gcl.a(gcl_tohtml.o)
 .debug_info    0x000000000012c9ce     0x80b1 /usr/lib/gcl-2.6.7/unixport//libansi_gcl.a(Events.o)
 .debug_info    0x0000000000134a7f     0x287f /usr/lib/gcl-2.6.7/unixport//libansi_gcl.a(gcl_Xutil.o)
 .debug_info    0x00000000001372fe     0x501f /usr/lib/gcl-2.6.7/unixport//libansi_gcl.a(XStruct-4.o)
 .debug_info    0x000000000013c31d     0x5de1 /usr/lib/gcl-2.6.7/unixport//libansi_gcl.a(gcl_Xlib.o)
 .debug_info    0x00000000001420fe     0x48e1 /usr/lib/gcl-2.6.7/unixport//libansi_gcl.a(gcl_Xstruct.o)
 .debug_info    0x00000000001469df     0x81bd /usr/lib/gcl-2.6.7/unixport//libansi_gcl.a(XStruct-2.o)
 .debug_info    0x000000000014eb9c      0x33e /usr/lib/gcl-2.6.7/unixport//libansi_gcl.a(gcl_XAtom.o)
 .debug_info    0x000000000014eeda      0x33e /usr/lib/gcl-2.6.7/unixport//libansi_gcl.a(gcl_X10.o)
 .debug_info    0x000000000014f218      0x1b9 /usr/lib/gcl-2.6.7/unixport//libansi_gcl.a(Xutil-2.o)
 .debug_info    0x000000000014f3d1     0x1b62 /usr/lib/gcl-2.6.7/unixport//libansi_gcl.a(gcl_Xinit.o)
 .debug_info    0x0000000000150f33     0x1c49 /usr/lib/gcl-2.6.7/unixport//libansi_gcl.a(gcl_index.o)
 .debug_info    0x0000000000152b7c    0x12b14 /usr/lib/gcl-2.6.7/unixport//libansi_gcl.a(gcl_dwtrans.o)
 .debug_info    0x0000000000165690     0x1ea3 /usr/lib/gcl-2.6.7/unixport//libansi_gcl.a(gcl_general.o)
 .debug_info    0x0000000000167533      0x33e /usr/lib/gcl-2.6.7/unixport//libansi_gcl.a(gcl_X.o)
 .debug_info    0x0000000000167871     0x3a9e /usr/lib/gcl-2.6.7/unixport//libansi_gcl.a(gcl_cmplet.o)
 .debug_info    0x000000000016b30f     0x39ef /usr/lib/gcl-2.6.7/unixport//libansi_gcl.a(gcl_cmpflet.o)
 .debug_info    0x000000000016ecfe     0x715c /usr/lib/gcl-2.6.7/unixport//libansi_gcl.a(gcl_cmpfun.o)
 .debug_info    0x0000000000175e5a     0x2d69 /usr/lib/gcl-2.6.7/unixport//libansi_gcl.a(gcl_cmpspecial.o)
 .debug_info    0x0000000000178bc3     0x2d62 /usr/lib/gcl-2.6.7/unixport//libansi_gcl.a(gcl_cmputil.o)
 .debug_info    0x000000000017b925     0x3f50 /usr/lib/gcl-2.6.7/unixport//libansi_gcl.a(gcl_cmptag.o)
 .debug_info    0x000000000017f875     0x2b8c /usr/lib/gcl-2.6.7/unixport//libansi_gcl.a(gcl_cmpblock.o)
 .debug_info    0x0000000000182401     0x2ddc /usr/lib/gcl-2.6.7/unixport//libansi_gcl.a(gcl_cmpwt.o)
 .debug_info    0x00000000001851dd     0x61ce /usr/lib/gcl-2.6.7/unixport//libansi_gcl.a(gcl_cmplam.o)
 .debug_info    0x000000000018b3ab     0x1cd2 /usr/lib/gcl-2.6.7/unixport//libansi_gcl.a(gcl_cmpvs.o)
 .debug_info    0x000000000018d07d     0x4e24 /usr/lib/gcl-2.6.7/unixport//libansi_gcl.a(gcl_cmpenv.o)
 .debug_info    0x0000000000191ea1     0x21be /usr/lib/gcl-2.6.7/unixport//libansi_gcl.a(gcl_cmpcatch.o)
 .debug_info    0x000000000019405f     0x353b /usr/lib/gcl-2.6.7/unixport//libansi_gcl.a(gcl_cmpmulti.o)
 .debug_info    0x000000000019759a     0x5449 /usr/lib/gcl-2.6.7/unixport//libansi_gcl.a(gcl_cmpmain.o)
 .debug_info    0x000000000019c9e3     0xacea /usr/lib/gcl-2.6.7/unixport//libansi_gcl.a(gcl_cmptop.o)
 .debug_info    0x00000000001a76cd     0x28fc /usr/lib/gcl-2.6.7/unixport//libansi_gcl.a(gcl_cmptype.o)
 .debug_info    0x00000000001a9fc9     0x49b5 /usr/lib/gcl-2.6.7/unixport//libansi_gcl.a(gcl_cmpvar.o)
 .debug_info    0x00000000001ae97e     0x3f47 /usr/lib/gcl-2.6.7/unixport//libansi_gcl.a(gcl_cmpif.o)
 .debug_info    0x00000000001b28c5     0x23bc /usr/lib/gcl-2.6.7/unixport//libansi_gcl.a(gcl_cmpbind.o)
 .debug_info    0x00000000001b4c81     0x2b9d /usr/lib/gcl-2.6.7/unixport//libansi_gcl.a(gcl_cmploc.o)
 .debug_info    0x00000000001b781e     0x271c /usr/lib/gcl-2.6.7/unixport//libansi_gcl.a(gcl_cmplabel.o)
 .debug_info    0x00000000001b9f3a     0x2f83 /usr/lib/gcl-2.6.7/unixport//libansi_gcl.a(gcl_cmpmap.o)
 .debug_info    0x00000000001bcebd     0x5d9d /usr/lib/gcl-2.6.7/unixport//libansi_gcl.a(gcl_cmpinline.o)
 .debug_info    0x00000000001c2c5a     0x5b21 /usr/lib/gcl-2.6.7/unixport//libansi_gcl.a(gcl_cmpeval.o)
 .debug_info    0x00000000001c877b     0x52b3 /usr/lib/gcl-2.6.7/unixport//libansi_gcl.a(gcl_cmpcall.o)
 .debug_info    0x00000000001cda2e     0x1ba5 /usr/lib/gcl-2.6.7/unixport//libansi_gcl.a(gcl_pcl_gazonk5.o)
 .debug_info    0x00000000001cf5d3     0xcedb /usr/lib/gcl-2.6.7/unixport//libansi_gcl.a(gcl_pcl_precom2.o)
 .debug_info    0x00000000001dc4ae     0x5d9f /usr/lib/gcl-2.6.7/unixport//libansi_gcl.a(gcl_pcl_macros.o)
 .debug_info    0x00000000001e224d     0x9a55 /usr/lib/gcl-2.6.7/unixport//libansi_gcl.a(gcl_pcl_fast_init.o)
 .debug_info    0x00000000001ebca2     0x3f4c /usr/lib/gcl-2.6.7/unixport//libansi_gcl.a(gcl_pcl_env.o)
 .debug_info    0x00000000001efbee     0x7466 /usr/lib/gcl-2.6.7/unixport//libansi_gcl.a(gcl_pcl_walk.o)
 .debug_info    0x00000000001f7054     0x3906 /usr/lib/gcl-2.6.7/unixport//libansi_gcl.a(gcl_pcl_defcombin.o)
 .debug_info    0x00000000001fa95a     0xdf60 /usr/lib/gcl-2.6.7/unixport//libansi_gcl.a(gcl_pcl_std_class.o)
 .debug_info    0x00000000002088ba     0x4acc /usr/lib/gcl-2.6.7/unixport//libansi_gcl.a(gcl_pcl_defclass.o)
 .debug_info    0x000000000020d386     0x1d8c /usr/lib/gcl-2.6.7/unixport//libansi_gcl.a(gcl_pcl_fsc.o)
 .debug_info    0x000000000020f112     0xa789 /usr/lib/gcl-2.6.7/unixport//libansi_gcl.a(gcl_pcl_vector.o)
 .debug_info    0x000000000021989b      0x33a /usr/lib/gcl-2.6.7/unixport//libansi_gcl.a(gcl_pcl_precom1.o)
 .debug_info    0x0000000000219bd5      0x33a /usr/lib/gcl-2.6.7/unixport//libansi_gcl.a(gcl_pcl_compat.o)
 .debug_info    0x0000000000219f0f     0x36ee /usr/lib/gcl-2.6.7/unixport//libansi_gcl.a(gcl_pcl_cpl.o)
 .debug_info    0x000000000021d5fd     0x2ee8 /usr/lib/gcl-2.6.7/unixport//libansi_gcl.a(gcl_pcl_fngen.o)
 .debug_info    0x00000000002204e5     0x52f0 /usr/lib/gcl-2.6.7/unixport//libansi_gcl.a(gcl_pcl_slots_boot.o)
 .debug_info    0x00000000002257d5     0x1b6f /usr/lib/gcl-2.6.7/unixport//libansi_gcl.a(gcl_pcl_gazonk7.o)
 .debug_info    0x0000000000227344     0x1cde /usr/lib/gcl-2.6.7/unixport//libansi_gcl.a(gcl_pcl_gazonk3.o)
 .debug_info    0x0000000000229022     0xf500 /usr/lib/gcl-2.6.7/unixport//libansi_gcl.a(gcl_pcl_boot.o)
 .debug_info    0x0000000000238522     0x3bca /usr/lib/gcl-2.6.7/unixport//libansi_gcl.a(gcl_pcl_impl_low.o)
 .debug_info    0x000000000023c0ec     0x41c5 /usr/lib/gcl-2.6.7/unixport//libansi_gcl.a(gcl_pcl_dlisp.o)
 .debug_info    0x00000000002402b1     0x358d /usr/lib/gcl-2.6.7/unixport//libansi_gcl.a(gcl_pcl_init.o)
 .debug_info    0x000000000024383e     0x47f6 /usr/lib/gcl-2.6.7/unixport//libansi_gcl.a(gcl_pcl_dlisp2.o)
 .debug_info    0x0000000000248034     0xd632 /usr/lib/gcl-2.6.7/unixport//libansi_gcl.a(gcl_pcl_cache.o)
 .debug_info    0x0000000000255666     0x1b24 /usr/lib/gcl-2.6.7/unixport//libansi_gcl.a(gcl_pcl_gazonk6.o)
 .debug_info    0x000000000025718a     0x4fc2 /usr/lib/gcl-2.6.7/unixport//libansi_gcl.a(gcl_pcl_defs.o)
 .debug_info    0x000000000025c14c     0x39d9 /usr/lib/gcl-2.6.7/unixport//libansi_gcl.a(gcl_pcl_low.o)
 .debug_info    0x000000000025fb25     0x4d01 /usr/lib/gcl-2.6.7/unixport//libansi_gcl.a(gcl_pcl_generic_functions.o)
 .debug_info    0x0000000000264826     0x1af8 /usr/lib/gcl-2.6.7/unixport//libansi_gcl.a(gcl_pcl_gazonk4.o)
 .debug_info    0x000000000026631e     0x5a71 /usr/lib/gcl-2.6.7/unixport//libansi_gcl.a(gcl_pcl_iterate.o)
 .debug_info    0x000000000026bd8f     0x1de3 /usr/lib/gcl-2.6.7/unixport//libansi_gcl.a(gcl_pcl_gazonk2.o)
 .debug_info    0x000000000026db72     0xe8bb /usr/lib/gcl-2.6.7/unixport//libansi_gcl.a(gcl_pcl_methods.o)
 .debug_info    0x000000000027c42d     0x24f3 /usr/lib/gcl-2.6.7/unixport//libansi_gcl.a(gcl_pcl_fin.o)
 .debug_info    0x000000000027e920     0x1aa6 /usr/lib/gcl-2.6.7/unixport//libansi_gcl.a(gcl_pcl_gazonk1.o)
 .debug_info    0x00000000002803c6     0x1ab4 /usr/lib/gcl-2.6.7/unixport//libansi_gcl.a(gcl_pcl_gazonk0.o)
 .debug_info    0x0000000000281e7a     0xf758 /usr/lib/gcl-2.6.7/unixport//libansi_gcl.a(gcl_pcl_dfun.o)
 .debug_info    0x00000000002915d2     0x1865 /usr/lib/gcl-2.6.7/unixport//libansi_gcl.a(gcl_pcl_fixup.o)
 .debug_info    0x0000000000292e37     0x39c8 /usr/lib/gcl-2.6.7/unixport//libansi_gcl.a(gcl_pcl_slots.o)
 .debug_info    0x00000000002967ff     0x40ef /usr/lib/gcl-2.6.7/unixport//libansi_gcl.a(gcl_pcl_combin.o)
 .debug_info    0x000000000029a8ee     0x199d /usr/lib/gcl-2.6.7/unixport//libansi_gcl.a(gcl_pcl_pkg.o)
 .debug_info    0x000000000029c28b     0x6419 /usr/lib/gcl-2.6.7/unixport//libansi_gcl.a(gcl_pcl_braid.o)
 .debug_info    0x00000000002a26a4     0x19eb /usr/lib/gcl-2.6.7/unixport//libansi_gcl.a(gcl_pcl_ctypes.o)
 .debug_info    0x00000000002a408f     0x2cec /usr/lib/gcl-2.6.7/unixport//libansi_gcl.a(gcl_clcs_install.o)
 .debug_info    0x00000000002a6d7b     0x3149 /usr/lib/gcl-2.6.7/unixport//libansi_gcl.a(gcl_clcs_handler.o)
 .debug_info    0x00000000002a9ec4     0x264f /usr/lib/gcl-2.6.7/unixport//libansi_gcl.a(gcl_clcs_macros.o)
 .debug_info    0x00000000002ac513     0x263b /usr/lib/gcl-2.6.7/unixport//libansi_gcl.a(gcl_clcs_conditions.o)
 .debug_info    0x00000000002aeb4e     0x38c8 /usr/lib/gcl-2.6.7/unixport//libansi_gcl.a(gcl_clcs_debugger.o)
 .debug_info    0x00000000002b2416     0x2f57 /usr/lib/gcl-2.6.7/unixport//libansi_gcl.a(gcl_clcs_top_patches.o)
 .debug_info    0x00000000002b536d     0x713b /usr/lib/gcl-2.6.7/unixport//libansi_gcl.a(gcl_clcs_condition_definitions.o)
 .debug_info    0x00000000002bc4a8     0x383e /usr/lib/gcl-2.6.7/unixport//libansi_gcl.a(gcl_clcs_restart.o)
 .debug_info    0x00000000002bfce6     0x23d9 /usr/lib/gcl-2.6.7/unixport//libansi_gcl.a(gcl_clcs_precom.o)
 .debug_info    0x00000000002c20bf     0x2d1f /usr/lib/gcl-2.6.7/unixport//libansi_gcl.a(gcl_clcs_kcl_cond.o)
 .debug_info    0x00000000002c4dde     0x2033 /usr/lib/gcl-2.6.7/unixport//libansi_gcl.a(num_sfun.o)
 .debug_info    0x00000000002c6e11     0x1aee /usr/lib/gcl-2.6.7/unixport//libansi_gcl.a(num_rand.o)
 .debug_info    0x00000000002c88ff      0x27e /usr/lib/gcl-2.6.7/unixport//libansi_gcl.a(general-c.o)

.debug_abbrev   0x0000000000000000    0x253bf
 *(.debug_abbrev)
 .debug_abbrev  0x0000000000000000      0x1e3 ./user-init.o
 .debug_abbrev  0x00000000000001e3      0x474 /usr/lib/gcl-2.6.7/unixport//libansi_gcl.a(main.o)
 .debug_abbrev  0x0000000000000657      0x4cd /usr/lib/gcl-2.6.7/unixport//libansi_gcl.a(package.o)
 .debug_abbrev  0x0000000000000b24      0x30c /usr/lib/gcl-2.6.7/unixport//libansi_gcl.a(gcl_readline.o)
 .debug_abbrev  0x0000000000000e30      0x3b2 /usr/lib/gcl-2.6.7/unixport//libansi_gcl.a(symbol.o)
 .debug_abbrev  0x00000000000011e2      0x2f9 /usr/lib/gcl-2.6.7/unixport//libansi_gcl.a(makefun.o)
 .debug_abbrev  0x00000000000014db      0x36d /usr/lib/gcl-2.6.7/unixport//libansi_gcl.a(string.o)
 .debug_abbrev  0x0000000000001848      0x462 /usr/lib/gcl-2.6.7/unixport//libansi_gcl.a(print.o)
 .debug_abbrev  0x0000000000001caa      0x34a /usr/lib/gcl-2.6.7/unixport//libansi_gcl.a(macros.o)
 .debug_abbrev  0x0000000000001ff4      0x22f /usr/lib/gcl-2.6.7/unixport//libansi_gcl.a(multival.o)
 .debug_abbrev  0x0000000000002223      0x4f7 /usr/lib/gcl-2.6.7/unixport//libansi_gcl.a(file.o)
 .debug_abbrev  0x000000000000271a      0x2ac /usr/lib/gcl-2.6.7/unixport//libansi_gcl.a(sys_ansi_gcl.o)
 .debug_abbrev  0x00000000000029c6      0x44f /usr/lib/gcl-2.6.7/unixport//libansi_gcl.a(sfasl.o)
 .debug_abbrev  0x0000000000002e15      0x435 /usr/lib/gcl-2.6.7/unixport//libansi_gcl.a(eval.o)
 .debug_abbrev  0x000000000000324a      0x41e /usr/lib/gcl-2.6.7/unixport//libansi_gcl.a(array.o)
 .debug_abbrev  0x0000000000003668      0x23f /usr/lib/gcl-2.6.7/unixport//libansi_gcl.a(lex.o)
 .debug_abbrev  0x00000000000038a7      0x272 /usr/lib/gcl-2.6.7/unixport//libansi_gcl.a(earith.o)
 .debug_abbrev  0x0000000000003b19      0x24b /usr/lib/gcl-2.6.7/unixport//libansi_gcl.a(toplevel.o)
 .debug_abbrev  0x0000000000003d64      0x350 /usr/lib/gcl-2.6.7/unixport//libansi_gcl.a(nsocket.o)
 .debug_abbrev  0x00000000000040b4      0x445 /usr/lib/gcl-2.6.7/unixport//libansi_gcl.a(list.o)
 .debug_abbrev  0x00000000000044f9      0x34f /usr/lib/gcl-2.6.7/unixport//libansi_gcl.a(structure.o)
 .debug_abbrev  0x0000000000004848      0x3a6 /usr/lib/gcl-2.6.7/unixport//libansi_gcl.a(unixfsys.o)
 .debug_abbrev  0x0000000000004bee      0x308 /usr/lib/gcl-2.6.7/unixport//libansi_gcl.a(unixsys.o)
 .debug_abbrev  0x0000000000004ef6      0x327 /usr/lib/gcl-2.6.7/unixport//libansi_gcl.a(predicate.o)
 .debug_abbrev  0x000000000000521d      0x249 /usr/lib/gcl-2.6.7/unixport//libansi_gcl.a(number.o)
 .debug_abbrev  0x0000000000005466      0x365 /usr/lib/gcl-2.6.7/unixport//libansi_gcl.a(cmpaux.o)
 .debug_abbrev  0x00000000000057cb      0x3bb /usr/lib/gcl-2.6.7/unixport//libansi_gcl.a(num_log.o)
 .debug_abbrev  0x0000000000005b86      0x32c /usr/lib/gcl-2.6.7/unixport//libansi_gcl.a(sequence.o)
 .debug_abbrev  0x0000000000005eb2      0x383 /usr/lib/gcl-2.6.7/unixport//libansi_gcl.a(pathname.o)
 .debug_abbrev  0x0000000000006235      0x363 /usr/lib/gcl-2.6.7/unixport//libansi_gcl.a(unixsave.o)
 .debug_abbrev  0x0000000000006598      0x396 /usr/lib/gcl-2.6.7/unixport//libansi_gcl.a(num_co.o)
 .debug_abbrev  0x000000000000692e      0x3cb /usr/lib/gcl-2.6.7/unixport//libansi_gcl.a(usig2.o)
 .debug_abbrev  0x0000000000006cf9      0x1c7 /usr/lib/gcl-2.6.7/unixport//libansi_gcl.a(num_pred.o)
 .debug_abbrev  0x0000000000006ec0      0x29a /usr/lib/gcl-2.6.7/unixport//libansi_gcl.a(let.o)
 .debug_abbrev  0x000000000000715a      0x34f /usr/lib/gcl-2.6.7/unixport//libansi_gcl.a(bind.o)
 .debug_abbrev  0x00000000000074a9      0x285 /usr/lib/gcl-2.6.7/unixport//libansi_gcl.a(mapfun.o)
 .debug_abbrev  0x000000000000772e      0x234 /usr/lib/gcl-2.6.7/unixport//libansi_gcl.a(typespec.o)
 .debug_abbrev  0x0000000000007962      0x4e7 /usr/lib/gcl-2.6.7/unixport//libansi_gcl.a(funlink.o)
 .debug_abbrev  0x0000000000007e49      0x1e2 /usr/lib/gcl-2.6.7/unixport//libansi_gcl.a(new_init.o)
 .debug_abbrev  0x000000000000802b      0x235 /usr/lib/gcl-2.6.7/unixport//libansi_gcl.a(utils.o)
 .debug_abbrev  0x0000000000008260      0x497 /usr/lib/gcl-2.6.7/unixport//libansi_gcl.a(read.o)
 .debug_abbrev  0x00000000000086f7      0x2ce /usr/lib/gcl-2.6.7/unixport//libansi_gcl.a(prog.o)
 .debug_abbrev  0x00000000000089c5      0x242 /usr/lib/gcl-2.6.7/unixport//libansi_gcl.a(catch.o)
 .debug_abbrev  0x0000000000008c07      0x30c /usr/lib/gcl-2.6.7/unixport//libansi_gcl.a(iteration.o)
 .debug_abbrev  0x0000000000008f13      0x446 /usr/lib/gcl-2.6.7/unixport//libansi_gcl.a(error.o)
 .debug_abbrev  0x0000000000009359      0x2e2 /usr/lib/gcl-2.6.7/unixport//libansi_gcl.a(unixtime.o)
 .debug_abbrev  0x000000000000963b      0x3f3 /usr/lib/gcl-2.6.7/unixport//libansi_gcl.a(format.o)
 .debug_abbrev  0x0000000000009a2e      0x44b /usr/lib/gcl-2.6.7/unixport//libansi_gcl.a(big.o)
 .debug_abbrev  0x0000000000009e79      0x3a0 /usr/lib/gcl-2.6.7/unixport//libansi_gcl.a(hash.o)
 .debug_abbrev  0x000000000000a219      0x24f /usr/lib/gcl-2.6.7/unixport//libansi_gcl.a(num_comp.o)
 .debug_abbrev  0x000000000000a468      0x24c /usr/lib/gcl-2.6.7/unixport//libansi_gcl.a(gmp_wrappers.o)
 .debug_abbrev  0x000000000000a6b4      0x20d /usr/lib/gcl-2.6.7/unixport//libansi_gcl.a(unixfasl.o)
 .debug_abbrev  0x000000000000a8c1      0x239 /usr/lib/gcl-2.6.7/unixport//libansi_gcl.a(reference.o)
 .debug_abbrev  0x000000000000aafa      0x4b9 /usr/lib/gcl-2.6.7/unixport//libansi_gcl.a(fat_string.o)
 .debug_abbrev  0x000000000000afb3      0x3b0 /usr/lib/gcl-2.6.7/unixport//libansi_gcl.a(character.o)
 .debug_abbrev  0x000000000000b363      0x453 /usr/lib/gcl-2.6.7/unixport//libansi_gcl.a(alloc.o)
 .debug_abbrev  0x000000000000b7b6      0x437 /usr/lib/gcl-2.6.7/unixport//libansi_gcl.a(regexpr.o)
 .debug_abbrev  0x000000000000bbed      0x28f /usr/lib/gcl-2.6.7/unixport//libansi_gcl.a(usig.o)
 .debug_abbrev  0x000000000000be7c      0x4e5 /usr/lib/gcl-2.6.7/unixport//libansi_gcl.a(gbc.o)
 .debug_abbrev  0x000000000000c361      0x3dc /usr/lib/gcl-2.6.7/unixport//libansi_gcl.a(cfun.o)
 .debug_abbrev  0x000000000000c73d      0x2b1 /usr/lib/gcl-2.6.7/unixport//libansi_gcl.a(nfunlink.o)
 .debug_abbrev  0x000000000000c9ee      0x2c6 /usr/lib/gcl-2.6.7/unixport//libansi_gcl.a(backq.o)
 .debug_abbrev  0x000000000000ccb4      0x183 /usr/lib/gcl-2.6.7/unixport//libansi_gcl.a(bds.o)
 .debug_abbrev  0x000000000000ce37      0x2c5 /usr/lib/gcl-2.6.7/unixport//libansi_gcl.a(run_process.o)
 .debug_abbrev  0x000000000000d0fc      0x3a8 /usr/lib/gcl-2.6.7/unixport//libansi_gcl.a(assignment.o)
 .debug_abbrev  0x000000000000d4a4      0x231 /usr/lib/gcl-2.6.7/unixport//libansi_gcl.a(conditional.o)
 .debug_abbrev  0x000000000000d6d5      0x216 /usr/lib/gcl-2.6.7/unixport//libansi_gcl.a(block.o)
 .debug_abbrev  0x000000000000d8eb      0x1da /usr/lib/gcl-2.6.7/unixport//libansi_gcl.a(frame.o)
 .debug_abbrev  0x000000000000dac5      0x2b9 /usr/lib/gcl-2.6.7/unixport//libansi_gcl.a(num_arith.o)
 .debug_abbrev  0x000000000000dd7e      0x44a /usr/lib/gcl-2.6.7/unixport//libansi_gcl.a(sockets.o)
 .debug_abbrev  0x000000000000e1c8      0x33a /usr/lib/gcl-2.6.7/unixport//libansi_gcl.a(gcl_numlib.o)
 .debug_abbrev  0x000000000000e502      0x330 /usr/lib/gcl-2.6.7/unixport//libansi_gcl.a(gcl_destructuring_bind.o)
 .debug_abbrev  0x000000000000e832      0x37f /usr/lib/gcl-2.6.7/unixport//libansi_gcl.a(gcl_listlib.o)
 .debug_abbrev  0x000000000000ebb1      0x239 /usr/lib/gcl-2.6.7/unixport//libansi_gcl.a(gcl_module.o)
 .debug_abbrev  0x000000000000edea      0x3c5 /usr/lib/gcl-2.6.7/unixport//libansi_gcl.a(gcl_top.o)
 .debug_abbrev  0x000000000000f1af      0x31b /usr/lib/gcl-2.6.7/unixport//libansi_gcl.a(gcl_predlib.o)
 .debug_abbrev  0x000000000000f4ca      0x332 /usr/lib/gcl-2.6.7/unixport//libansi_gcl.a(gcl_iolib.o)
 .debug_abbrev  0x000000000000f7fc      0x370 /usr/lib/gcl-2.6.7/unixport//libansi_gcl.a(gcl_serror.o)
 .debug_abbrev  0x000000000000fb6c      0x3c5 /usr/lib/gcl-2.6.7/unixport//libansi_gcl.a(gcl_defstruct.o)
 .debug_abbrev  0x000000000000ff31      0x410 /usr/lib/gcl-2.6.7/unixport//libansi_gcl.a(gcl_debug.o)
 .debug_abbrev  0x0000000000010341      0x3b7 /usr/lib/gcl-2.6.7/unixport//libansi_gcl.a(gcl_arraylib.o)
 .debug_abbrev  0x00000000000106f8      0x32e /usr/lib/gcl-2.6.7/unixport//libansi_gcl.a(gcl_packlib.o)
 .debug_abbrev  0x0000000000010a26      0x348 /usr/lib/gcl-2.6.7/unixport//libansi_gcl.a(gcl_seq.o)
 .debug_abbrev  0x0000000000010d6e      0x2f7 /usr/lib/gcl-2.6.7/unixport//libansi_gcl.a(gcl_defpackage.o)
 .debug_abbrev  0x0000000000011065      0x3bb /usr/lib/gcl-2.6.7/unixport//libansi_gcl.a(gcl_info.o)
 .debug_abbrev  0x0000000000011420      0x37f /usr/lib/gcl-2.6.7/unixport//libansi_gcl.a(gcl_trace.o)
 .debug_abbrev  0x000000000001179f      0x34c /usr/lib/gcl-2.6.7/unixport//libansi_gcl.a(gcl_sloop.o)
 .debug_abbrev  0x0000000000011aeb      0x36f /usr/lib/gcl-2.6.7/unixport//libansi_gcl.a(gcl_mislib.o)
 .debug_abbrev  0x0000000000011e5a      0x361 /usr/lib/gcl-2.6.7/unixport//libansi_gcl.a(gcl_defmacro.o)
 .debug_abbrev  0x00000000000121bb      0x2a8 /usr/lib/gcl-2.6.7/unixport//libansi_gcl.a(gcl_evalmacros.o)
 .debug_abbrev  0x0000000000012463      0x38a /usr/lib/gcl-2.6.7/unixport//libansi_gcl.a(gcl_seqlib.o)
 .debug_abbrev  0x00000000000127ed      0x44c /usr/lib/gcl-2.6.7/unixport//libansi_gcl.a(gcl_loop.o)
 .debug_abbrev  0x0000000000012c39      0x36a /usr/lib/gcl-2.6.7/unixport//libansi_gcl.a(gcl_describe.o)
 .debug_abbrev  0x0000000000012fa3      0x30a /usr/lib/gcl-2.6.7/unixport//libansi_gcl.a(gcl_setf.o)
 .debug_abbrev  0x00000000000132ad      0x296 /usr/lib/gcl-2.6.7/unixport//libansi_gcl.a(gcl_make_defpackage.o)
 .debug_abbrev  0x0000000000013543      0x334 /usr/lib/gcl-2.6.7/unixport//libansi_gcl.a(gcl_assert.o)
 .debug_abbrev  0x0000000000013877      0x20b /usr/lib/gcl-2.6.7/unixport//libansi_gcl.a(gcl_defentry_events.o)
 .debug_abbrev  0x0000000000013a82       0xcd /usr/lib/gcl-2.6.7/unixport//libansi_gcl.a(gcl_keysymdef.o)
 .debug_abbrev  0x0000000000013b4f      0x20b /usr/lib/gcl-2.6.7/unixport//libansi_gcl.a(gcl_XStruct_l_3.o)
 .debug_abbrev  0x0000000000013d5a      0x2f8 /usr/lib/gcl-2.6.7/unixport//libansi_gcl.a(gcl_tohtml.o)
 .debug_abbrev  0x0000000000014052      0x161 /usr/lib/gcl-2.6.7/unixport//libansi_gcl.a(Events.o)
 .debug_abbrev  0x00000000000141b3      0x1f8 /usr/lib/gcl-2.6.7/unixport//libansi_gcl.a(gcl_Xutil.o)
 .debug_abbrev  0x00000000000143ab      0x1a6 /usr/lib/gcl-2.6.7/unixport//libansi_gcl.a(XStruct-4.o)
 .debug_abbrev  0x0000000000014551      0x20b /usr/lib/gcl-2.6.7/unixport//libansi_gcl.a(gcl_Xlib.o)
 .debug_abbrev  0x000000000001475c      0x20b /usr/lib/gcl-2.6.7/unixport//libansi_gcl.a(gcl_Xstruct.o)
 .debug_abbrev  0x0000000000014967      0x218 /usr/lib/gcl-2.6.7/unixport//libansi_gcl.a(XStruct-2.o)
 .debug_abbrev  0x0000000000014b7f       0xcd /usr/lib/gcl-2.6.7/unixport//libansi_gcl.a(gcl_XAtom.o)
 .debug_abbrev  0x0000000000014c4c       0xcd /usr/lib/gcl-2.6.7/unixport//libansi_gcl.a(gcl_X10.o)
 .debug_abbrev  0x0000000000014d19       0x8a /usr/lib/gcl-2.6.7/unixport//libansi_gcl.a(Xutil-2.o)
 .debug_abbrev  0x0000000000014da3      0x1e7 /usr/lib/gcl-2.6.7/unixport//libansi_gcl.a(gcl_Xinit.o)
 .debug_abbrev  0x0000000000014f8a      0x21b /usr/lib/gcl-2.6.7/unixport//libansi_gcl.a(gcl_index.o)
 .debug_abbrev  0x00000000000151a5      0x2ec /usr/lib/gcl-2.6.7/unixport//libansi_gcl.a(gcl_dwtrans.o)
 .debug_abbrev  0x0000000000015491      0x2cd /usr/lib/gcl-2.6.7/unixport//libansi_gcl.a(gcl_general.o)
 .debug_abbrev  0x000000000001575e       0xcd /usr/lib/gcl-2.6.7/unixport//libansi_gcl.a(gcl_X.o)
 .debug_abbrev  0x000000000001582b      0x350 /usr/lib/gcl-2.6.7/unixport//libansi_gcl.a(gcl_cmplet.o)
 .debug_abbrev  0x0000000000015b7b      0x3a8 /usr/lib/gcl-2.6.7/unixport//libansi_gcl.a(gcl_cmpflet.o)
 .debug_abbrev  0x0000000000015f23      0x361 /usr/lib/gcl-2.6.7/unixport//libansi_gcl.a(gcl_cmpfun.o)
 .debug_abbrev  0x0000000000016284      0x331 /usr/lib/gcl-2.6.7/unixport//libansi_gcl.a(gcl_cmpspecial.o)
 .debug_abbrev  0x00000000000165b5      0x384 /usr/lib/gcl-2.6.7/unixport//libansi_gcl.a(gcl_cmputil.o)
 .debug_abbrev  0x0000000000016939      0x3a8 /usr/lib/gcl-2.6.7/unixport//libansi_gcl.a(gcl_cmptag.o)
 .debug_abbrev  0x0000000000016ce1      0x38b /usr/lib/gcl-2.6.7/unixport//libansi_gcl.a(gcl_cmpblock.o)
 .debug_abbrev  0x000000000001706c      0x376 /usr/lib/gcl-2.6.7/unixport//libansi_gcl.a(gcl_cmpwt.o)
 .debug_abbrev  0x00000000000173e2      0x376 /usr/lib/gcl-2.6.7/unixport//libansi_gcl.a(gcl_cmplam.o)
 .debug_abbrev  0x0000000000017758      0x274 /usr/lib/gcl-2.6.7/unixport//libansi_gcl.a(gcl_cmpvs.o)
 .debug_abbrev  0x00000000000179cc      0x35c /usr/lib/gcl-2.6.7/unixport//libansi_gcl.a(gcl_cmpenv.o)
 .debug_abbrev  0x0000000000017d28      0x2a9 /usr/lib/gcl-2.6.7/unixport//libansi_gcl.a(gcl_cmpcatch.o)
 .debug_abbrev  0x0000000000017fd1      0x341 /usr/lib/gcl-2.6.7/unixport//libansi_gcl.a(gcl_cmpmulti.o)
 .debug_abbrev  0x0000000000018312      0x39b /usr/lib/gcl-2.6.7/unixport//libansi_gcl.a(gcl_cmpmain.o)
 .debug_abbrev  0x00000000000186ad      0x39d /usr/lib/gcl-2.6.7/unixport//libansi_gcl.a(gcl_cmptop.o)
 .debug_abbrev  0x0000000000018a4a      0x31b /usr/lib/gcl-2.6.7/unixport//libansi_gcl.a(gcl_cmptype.o)
 .debug_abbrev  0x0000000000018d65      0x3a5 /usr/lib/gcl-2.6.7/unixport//libansi_gcl.a(gcl_cmpvar.o)
 .debug_abbrev  0x000000000001910a      0x35f /usr/lib/gcl-2.6.7/unixport//libansi_gcl.a(gcl_cmpif.o)
 .debug_abbrev  0x0000000000019469      0x2ed /usr/lib/gcl-2.6.7/unixport//libansi_gcl.a(gcl_cmpbind.o)
 .debug_abbrev  0x0000000000019756      0x32a /usr/lib/gcl-2.6.7/unixport//libansi_gcl.a(gcl_cmploc.o)
 .debug_abbrev  0x0000000000019a80      0x32f /usr/lib/gcl-2.6.7/unixport//libansi_gcl.a(gcl_cmplabel.o)
 .debug_abbrev  0x0000000000019daf      0x323 /usr/lib/gcl-2.6.7/unixport//libansi_gcl.a(gcl_cmpmap.o)
 .debug_abbrev  0x000000000001a0d2      0x3b6 /usr/lib/gcl-2.6.7/unixport//libansi_gcl.a(gcl_cmpinline.o)
 .debug_abbrev  0x000000000001a488      0x37b /usr/lib/gcl-2.6.7/unixport//libansi_gcl.a(gcl_cmpeval.o)
 .debug_abbrev  0x000000000001a803      0x39e /usr/lib/gcl-2.6.7/unixport//libansi_gcl.a(gcl_cmpcall.o)
 .debug_abbrev  0x000000000001aba1      0x25c /usr/lib/gcl-2.6.7/unixport//libansi_gcl.a(gcl_pcl_gazonk5.o)
 .debug_abbrev  0x000000000001adfd      0x2c5 /usr/lib/gcl-2.6.7/unixport//libansi_gcl.a(gcl_pcl_precom2.o)
 .debug_abbrev  0x000000000001b0c2      0x380 /usr/lib/gcl-2.6.7/unixport//libansi_gcl.a(gcl_pcl_macros.o)
 .debug_abbrev  0x000000000001b442      0x3a3 /usr/lib/gcl-2.6.7/unixport//libansi_gcl.a(gcl_pcl_fast_init.o)
 .debug_abbrev  0x000000000001b7e5      0x380 /usr/lib/gcl-2.6.7/unixport//libansi_gcl.a(gcl_pcl_env.o)
 .debug_abbrev  0x000000000001bb65      0x3cc /usr/lib/gcl-2.6.7/unixport//libansi_gcl.a(gcl_pcl_walk.o)
 .debug_abbrev  0x000000000001bf31      0x34d /usr/lib/gcl-2.6.7/unixport//libansi_gcl.a(gcl_pcl_defcombin.o)
 .debug_abbrev  0x000000000001c27e      0x3bc /usr/lib/gcl-2.6.7/unixport//libansi_gcl.a(gcl_pcl_std_class.o)
 .debug_abbrev  0x000000000001c63a      0x3f5 /usr/lib/gcl-2.6.7/unixport//libansi_gcl.a(gcl_pcl_defclass.o)
 .debug_abbrev  0x000000000001ca2f      0x22f /usr/lib/gcl-2.6.7/unixport//libansi_gcl.a(gcl_pcl_fsc.o)
 .debug_abbrev  0x000000000001cc5e      0x44a /usr/lib/gcl-2.6.7/unixport//libansi_gcl.a(gcl_pcl_vector.o)
 .debug_abbrev  0x000000000001d0a8       0xcb /usr/lib/gcl-2.6.7/unixport//libansi_gcl.a(gcl_pcl_precom1.o)
 .debug_abbrev  0x000000000001d173       0xcb /usr/lib/gcl-2.6.7/unixport//libansi_gcl.a(gcl_pcl_compat.o)
 .debug_abbrev  0x000000000001d23e      0x433 /usr/lib/gcl-2.6.7/unixport//libansi_gcl.a(gcl_pcl_cpl.o)
 .debug_abbrev  0x000000000001d671      0x35f /usr/lib/gcl-2.6.7/unixport//libansi_gcl.a(gcl_pcl_fngen.o)
 .debug_abbrev  0x000000000001d9d0      0x34b /usr/lib/gcl-2.6.7/unixport//libansi_gcl.a(gcl_pcl_slots_boot.o)
 .debug_abbrev  0x000000000001dd1b      0x25c /usr/lib/gcl-2.6.7/unixport//libansi_gcl.a(gcl_pcl_gazonk7.o)
 .debug_abbrev  0x000000000001df77      0x273 /usr/lib/gcl-2.6.7/unixport//libansi_gcl.a(gcl_pcl_gazonk3.o)
 .debug_abbrev  0x000000000001e1ea      0x419 /usr/lib/gcl-2.6.7/unixport//libansi_gcl.a(gcl_pcl_boot.o)
 .debug_abbrev  0x000000000001e603      0x408 /usr/lib/gcl-2.6.7/unixport//libansi_gcl.a(gcl_pcl_impl_low.o)
 .debug_abbrev  0x000000000001ea0b      0x30e /usr/lib/gcl-2.6.7/unixport//libansi_gcl.a(gcl_pcl_dlisp.o)
 .debug_abbrev  0x000000000001ed19      0x354 /usr/lib/gcl-2.6.7/unixport//libansi_gcl.a(gcl_pcl_init.o)
 .debug_abbrev  0x000000000001f06d      0x343 /usr/lib/gcl-2.6.7/unixport//libansi_gcl.a(gcl_pcl_dlisp2.o)
 .debug_abbrev  0x000000000001f3b0      0x428 /usr/lib/gcl-2.6.7/unixport//libansi_gcl.a(gcl_pcl_cache.o)
 .debug_abbrev  0x000000000001f7d8      0x24a /usr/lib/gcl-2.6.7/unixport//libansi_gcl.a(gcl_pcl_gazonk6.o)
 .debug_abbrev  0x000000000001fa22      0x3a1 /usr/lib/gcl-2.6.7/unixport//libansi_gcl.a(gcl_pcl_defs.o)
 .debug_abbrev  0x000000000001fdc3      0x3b3 /usr/lib/gcl-2.6.7/unixport//libansi_gcl.a(gcl_pcl_low.o)
 .debug_abbrev  0x0000000000020176      0x21e /usr/lib/gcl-2.6.7/unixport//libansi_gcl.a(gcl_pcl_generic_functions.o)
 .debug_abbrev  0x0000000000020394      0x248 /usr/lib/gcl-2.6.7/unixport//libansi_gcl.a(gcl_pcl_gazonk4.o)
 .debug_abbrev  0x00000000000205dc      0x3c7 /usr/lib/gcl-2.6.7/unixport//libansi_gcl.a(gcl_pcl_iterate.o)
 .debug_abbrev  0x00000000000209a3      0x293 /usr/lib/gcl-2.6.7/unixport//libansi_gcl.a(gcl_pcl_gazonk2.o)
 .debug_abbrev  0x0000000000020c36      0x425 /usr/lib/gcl-2.6.7/unixport//libansi_gcl.a(gcl_pcl_methods.o)
 .debug_abbrev  0x000000000002105b      0x351 /usr/lib/gcl-2.6.7/unixport//libansi_gcl.a(gcl_pcl_fin.o)
 .debug_abbrev  0x00000000000213ac      0x1ee /usr/lib/gcl-2.6.7/unixport//libansi_gcl.a(gcl_pcl_gazonk1.o)
 .debug_abbrev  0x000000000002159a      0x1ee /usr/lib/gcl-2.6.7/unixport//libansi_gcl.a(gcl_pcl_gazonk0.o)
 .debug_abbrev  0x0000000000021788      0x444 /usr/lib/gcl-2.6.7/unixport//libansi_gcl.a(gcl_pcl_dfun.o)
 .debug_abbrev  0x0000000000021bcc      0x1e2 /usr/lib/gcl-2.6.7/unixport//libansi_gcl.a(gcl_pcl_fixup.o)
 .debug_abbrev  0x0000000000021dae      0x361 /usr/lib/gcl-2.6.7/unixport//libansi_gcl.a(gcl_pcl_slots.o)
 .debug_abbrev  0x000000000002210f      0x3ab /usr/lib/gcl-2.6.7/unixport//libansi_gcl.a(gcl_pcl_combin.o)
 .debug_abbrev  0x00000000000224ba      0x1fb /usr/lib/gcl-2.6.7/unixport//libansi_gcl.a(gcl_pcl_pkg.o)
 .debug_abbrev  0x00000000000226b5      0x3e1 /usr/lib/gcl-2.6.7/unixport//libansi_gcl.a(gcl_pcl_braid.o)
 .debug_abbrev  0x0000000000022a96      0x1c6 /usr/lib/gcl-2.6.7/unixport//libansi_gcl.a(gcl_pcl_ctypes.o)
 .debug_abbrev  0x0000000000022c5c      0x330 /usr/lib/gcl-2.6.7/unixport//libansi_gcl.a(gcl_clcs_install.o)
 .debug_abbrev  0x0000000000022f8c      0x354 /usr/lib/gcl-2.6.7/unixport//libansi_gcl.a(gcl_clcs_handler.o)
 .debug_abbrev  0x00000000000232e0      0x2fe /usr/lib/gcl-2.6.7/unixport//libansi_gcl.a(gcl_clcs_macros.o)
 .debug_abbrev  0x00000000000235de      0x326 /usr/lib/gcl-2.6.7/unixport//libansi_gcl.a(gcl_clcs_conditions.o)
 .debug_abbrev  0x0000000000023904      0x334 /usr/lib/gcl-2.6.7/unixport//libansi_gcl.a(gcl_clcs_debugger.o)
 .debug_abbrev  0x0000000000023c38      0x3a2 /usr/lib/gcl-2.6.7/unixport//libansi_gcl.a(gcl_clcs_top_patches.o)
 .debug_abbrev  0x0000000000023fda      0x340 /usr/lib/gcl-2.6.7/unixport//libansi_gcl.a(gcl_clcs_condition_definitions.o)
 .debug_abbrev  0x000000000002431a      0x3fb /usr/lib/gcl-2.6.7/unixport//libansi_gcl.a(gcl_clcs_restart.o)
 .debug_abbrev  0x0000000000024715      0x2d7 /usr/lib/gcl-2.6.7/unixport//libansi_gcl.a(gcl_clcs_precom.o)
 .debug_abbrev  0x00000000000249ec      0x351 /usr/lib/gcl-2.6.7/unixport//libansi_gcl.a(gcl_clcs_kcl_cond.o)
 .debug_abbrev  0x0000000000024d3d      0x36e /usr/lib/gcl-2.6.7/unixport//libansi_gcl.a(num_sfun.o)
 .debug_abbrev  0x00000000000250ab      0x277 /usr/lib/gcl-2.6.7/unixport//libansi_gcl.a(num_rand.o)
 .debug_abbrev  0x0000000000025322       0x9d /usr/lib/gcl-2.6.7/unixport//libansi_gcl.a(general-c.o)

.debug_line     0x0000000000000000    0x6ba77
 *(.debug_line)
 .debug_line    0x0000000000000000       0xf2 ./user-init.o
 .debug_line    0x00000000000000f2      0x63d /usr/lib/gcl-2.6.7/unixport//libansi_gcl.a(main.o)
 .debug_line    0x000000000000072f      0x8b8 /usr/lib/gcl-2.6.7/unixport//libansi_gcl.a(package.o)
 .debug_line    0x0000000000000fe7      0x2ad /usr/lib/gcl-2.6.7/unixport//libansi_gcl.a(gcl_readline.o)
 .debug_line    0x0000000000001294      0x4b9 /usr/lib/gcl-2.6.7/unixport//libansi_gcl.a(symbol.o)
 .debug_line    0x000000000000174d      0x201 /usr/lib/gcl-2.6.7/unixport//libansi_gcl.a(makefun.o)
 .debug_line    0x000000000000194e      0x587 /usr/lib/gcl-2.6.7/unixport//libansi_gcl.a(string.o)
 .debug_line    0x0000000000001ed5      0xca9 /usr/lib/gcl-2.6.7/unixport//libansi_gcl.a(print.o)
 .debug_line    0x0000000000002b7e      0x2e1 /usr/lib/gcl-2.6.7/unixport//libansi_gcl.a(macros.o)
 .debug_line    0x0000000000002e5f      0x201 /usr/lib/gcl-2.6.7/unixport//libansi_gcl.a(multival.o)
 .debug_line    0x0000000000003060      0xe3d /usr/lib/gcl-2.6.7/unixport//libansi_gcl.a(file.o)
 .debug_line    0x0000000000003e9d      0x2e6 /usr/lib/gcl-2.6.7/unixport//libansi_gcl.a(sys_ansi_gcl.o)
 .debug_line    0x0000000000004183      0x4a5 /usr/lib/gcl-2.6.7/unixport//libansi_gcl.a(sfasl.o)
 .debug_line    0x0000000000004628      0x88d /usr/lib/gcl-2.6.7/unixport//libansi_gcl.a(eval.o)
 .debug_line    0x0000000000004eb5      0x85a /usr/lib/gcl-2.6.7/unixport//libansi_gcl.a(array.o)
 .debug_line    0x000000000000570f      0x1d9 /usr/lib/gcl-2.6.7/unixport//libansi_gcl.a(lex.o)
 .debug_line    0x00000000000058e8      0x203 /usr/lib/gcl-2.6.7/unixport//libansi_gcl.a(earith.o)
 .debug_line    0x0000000000005aeb      0x2a7 /usr/lib/gcl-2.6.7/unixport//libansi_gcl.a(toplevel.o)
 .debug_line    0x0000000000005d92      0x365 /usr/lib/gcl-2.6.7/unixport//libansi_gcl.a(nsocket.o)
 .debug_line    0x00000000000060f7      0xb6c /usr/lib/gcl-2.6.7/unixport//libansi_gcl.a(list.o)
 .debug_line    0x0000000000006c63      0x3a3 /usr/lib/gcl-2.6.7/unixport//libansi_gcl.a(structure.o)
 .debug_line    0x0000000000007006      0x44b /usr/lib/gcl-2.6.7/unixport//libansi_gcl.a(unixfsys.o)
 .debug_line    0x0000000000007451      0x1ea /usr/lib/gcl-2.6.7/unixport//libansi_gcl.a(unixsys.o)
 .debug_line    0x000000000000763b      0x548 /usr/lib/gcl-2.6.7/unixport//libansi_gcl.a(predicate.o)
 .debug_line    0x0000000000007b83      0x29c /usr/lib/gcl-2.6.7/unixport//libansi_gcl.a(number.o)
 .debug_line    0x0000000000007e1f      0x390 /usr/lib/gcl-2.6.7/unixport//libansi_gcl.a(cmpaux.o)
 .debug_line    0x00000000000081af      0x5bf /usr/lib/gcl-2.6.7/unixport//libansi_gcl.a(num_log.o)
 .debug_line    0x000000000000876e      0x44c /usr/lib/gcl-2.6.7/unixport//libansi_gcl.a(sequence.o)
 .debug_line    0x0000000000008bba      0x59a /usr/lib/gcl-2.6.7/unixport//libansi_gcl.a(pathname.o)
 .debug_line    0x0000000000009154      0x4a0 /usr/lib/gcl-2.6.7/unixport//libansi_gcl.a(unixsave.o)
 .debug_line    0x00000000000095f4      0x773 /usr/lib/gcl-2.6.7/unixport//libansi_gcl.a(num_co.o)
 .debug_line    0x0000000000009d67      0x306 /usr/lib/gcl-2.6.7/unixport//libansi_gcl.a(usig2.o)
 .debug_line    0x000000000000a06d      0x2a5 /usr/lib/gcl-2.6.7/unixport//libansi_gcl.a(num_pred.o)
 .debug_line    0x000000000000a312      0x381 /usr/lib/gcl-2.6.7/unixport//libansi_gcl.a(let.o)
 .debug_line    0x000000000000a693      0x81b /usr/lib/gcl-2.6.7/unixport//libansi_gcl.a(bind.o)
 .debug_line    0x000000000000aeae      0x36f /usr/lib/gcl-2.6.7/unixport//libansi_gcl.a(mapfun.o)
 .debug_line    0x000000000000b21d      0x332 /usr/lib/gcl-2.6.7/unixport//libansi_gcl.a(typespec.o)
 .debug_line    0x000000000000b54f      0x797 /usr/lib/gcl-2.6.7/unixport//libansi_gcl.a(funlink.o)
 .debug_line    0x000000000000bce6      0x449 /usr/lib/gcl-2.6.7/unixport//libansi_gcl.a(new_init.o)
 .debug_line    0x000000000000c12f      0x1a6 /usr/lib/gcl-2.6.7/unixport//libansi_gcl.a(utils.o)
 .debug_line    0x000000000000c2d5     0x1121 /usr/lib/gcl-2.6.7/unixport//libansi_gcl.a(read.o)
 .debug_line    0x000000000000d3f6      0x2f8 /usr/lib/gcl-2.6.7/unixport//libansi_gcl.a(prog.o)
 .debug_line    0x000000000000d6ee      0x26b /usr/lib/gcl-2.6.7/unixport//libansi_gcl.a(catch.o)
 .debug_line    0x000000000000d959      0x466 /usr/lib/gcl-2.6.7/unixport//libansi_gcl.a(iteration.o)
 .debug_line    0x000000000000ddbf      0x5c3 /usr/lib/gcl-2.6.7/unixport//libansi_gcl.a(error.o)
 .debug_line    0x000000000000e382      0x216 /usr/lib/gcl-2.6.7/unixport//libansi_gcl.a(unixtime.o)
 .debug_line    0x000000000000e598      0xefe /usr/lib/gcl-2.6.7/unixport//libansi_gcl.a(format.o)
 .debug_line    0x000000000000f496      0x34e /usr/lib/gcl-2.6.7/unixport//libansi_gcl.a(big.o)
 .debug_line    0x000000000000f7e4      0x430 /usr/lib/gcl-2.6.7/unixport//libansi_gcl.a(hash.o)
 .debug_line    0x000000000000fc14      0x2b9 /usr/lib/gcl-2.6.7/unixport//libansi_gcl.a(num_comp.o)
 .debug_line    0x000000000000fecd      0x20b /usr/lib/gcl-2.6.7/unixport//libansi_gcl.a(gmp_wrappers.o)
 .debug_line    0x00000000000100d8      0x164 /usr/lib/gcl-2.6.7/unixport//libansi_gcl.a(unixfasl.o)
 .debug_line    0x000000000001023c      0x24a /usr/lib/gcl-2.6.7/unixport//libansi_gcl.a(reference.o)
 .debug_line    0x0000000000010486      0x8a7 /usr/lib/gcl-2.6.7/unixport//libansi_gcl.a(fat_string.o)
 .debug_line    0x0000000000010d2d      0x578 /usr/lib/gcl-2.6.7/unixport//libansi_gcl.a(character.o)
 .debug_line    0x00000000000112a5      0x87b /usr/lib/gcl-2.6.7/unixport//libansi_gcl.a(alloc.o)
 .debug_line    0x0000000000011b20      0x913 /usr/lib/gcl-2.6.7/unixport//libansi_gcl.a(regexpr.o)
 .debug_line    0x0000000000012433      0x1fd /usr/lib/gcl-2.6.7/unixport//libansi_gcl.a(usig.o)
 .debug_line    0x0000000000012630     0x101d /usr/lib/gcl-2.6.7/unixport//libansi_gcl.a(gbc.o)
 .debug_line    0x000000000001364d      0x2e8 /usr/lib/gcl-2.6.7/unixport//libansi_gcl.a(cfun.o)
 .debug_line    0x0000000000013935      0x20a /usr/lib/gcl-2.6.7/unixport//libansi_gcl.a(nfunlink.o)
 .debug_line    0x0000000000013b3f      0x2c1 /usr/lib/gcl-2.6.7/unixport//libansi_gcl.a(backq.o)
 .debug_line    0x0000000000013e00      0x125 /usr/lib/gcl-2.6.7/unixport//libansi_gcl.a(bds.o)
 .debug_line    0x0000000000013f25      0x28d /usr/lib/gcl-2.6.7/unixport//libansi_gcl.a(run_process.o)
 .debug_line    0x00000000000141b2      0x500 /usr/lib/gcl-2.6.7/unixport//libansi_gcl.a(assignment.o)
 .debug_line    0x00000000000146b2      0x26c /usr/lib/gcl-2.6.7/unixport//libansi_gcl.a(conditional.o)
 .debug_line    0x000000000001491e      0x227 /usr/lib/gcl-2.6.7/unixport//libansi_gcl.a(block.o)
 .debug_line    0x0000000000014b45      0x17b /usr/lib/gcl-2.6.7/unixport//libansi_gcl.a(frame.o)
 .debug_line    0x0000000000014cc0      0x737 /usr/lib/gcl-2.6.7/unixport//libansi_gcl.a(num_arith.o)
 .debug_line    0x00000000000153f7      0x516 /usr/lib/gcl-2.6.7/unixport//libansi_gcl.a(sockets.o)
 .debug_line    0x000000000001590d      0x62b /usr/lib/gcl-2.6.7/unixport//libansi_gcl.a(gcl_numlib.o)
 .debug_line    0x0000000000015f38      0x776 /usr/lib/gcl-2.6.7/unixport//libansi_gcl.a(gcl_destructuring_bind.o)
 .debug_line    0x00000000000166ae      0x5b7 /usr/lib/gcl-2.6.7/unixport//libansi_gcl.a(gcl_listlib.o)
 .debug_line    0x0000000000016c65      0x1e4 /usr/lib/gcl-2.6.7/unixport//libansi_gcl.a(gcl_module.o)
 .debug_line    0x0000000000016e49     0x1529 /usr/lib/gcl-2.6.7/unixport//libansi_gcl.a(gcl_top.o)
 .debug_line    0x0000000000018372     0x11bd /usr/lib/gcl-2.6.7/unixport//libansi_gcl.a(gcl_predlib.o)
 .debug_line    0x000000000001952f      0xa51 /usr/lib/gcl-2.6.7/unixport//libansi_gcl.a(gcl_iolib.o)
 .debug_line    0x0000000000019f80      0x534 /usr/lib/gcl-2.6.7/unixport//libansi_gcl.a(gcl_serror.o)
 .debug_line    0x000000000001a4b4      0xd66 /usr/lib/gcl-2.6.7/unixport//libansi_gcl.a(gcl_defstruct.o)
 .debug_line    0x000000000001b21a     0x1376 /usr/lib/gcl-2.6.7/unixport//libansi_gcl.a(gcl_debug.o)
 .debug_line    0x000000000001c590      0x7bc /usr/lib/gcl-2.6.7/unixport//libansi_gcl.a(gcl_arraylib.o)
 .debug_line    0x000000000001cd4c      0x943 /usr/lib/gcl-2.6.7/unixport//libansi_gcl.a(gcl_packlib.o)
 .debug_line    0x000000000001d68f      0x500 /usr/lib/gcl-2.6.7/unixport//libansi_gcl.a(gcl_seq.o)
 .debug_line    0x000000000001db8f      0x6ad /usr/lib/gcl-2.6.7/unixport//libansi_gcl.a(gcl_defpackage.o)
 .debug_line    0x000000000001e23c      0xbfe /usr/lib/gcl-2.6.7/unixport//libansi_gcl.a(gcl_info.o)
 .debug_line    0x000000000001ee3a      0x81b /usr/lib/gcl-2.6.7/unixport//libansi_gcl.a(gcl_trace.o)
 .debug_line    0x000000000001f655     0x12df /usr/lib/gcl-2.6.7/unixport//libansi_gcl.a(gcl_sloop.o)
 .debug_line    0x0000000000020934      0x4b9 /usr/lib/gcl-2.6.7/unixport//libansi_gcl.a(gcl_mislib.o)
 .debug_line    0x0000000000020ded      0x5c8 /usr/lib/gcl-2.6.7/unixport//libansi_gcl.a(gcl_defmacro.o)
 .debug_line    0x00000000000213b5      0xa06 /usr/lib/gcl-2.6.7/unixport//libansi_gcl.a(gcl_evalmacros.o)
 .debug_line    0x0000000000021dbb     0x1468 /usr/lib/gcl-2.6.7/unixport//libansi_gcl.a(gcl_seqlib.o)
 .debug_line    0x0000000000023223     0x2044 /usr/lib/gcl-2.6.7/unixport//libansi_gcl.a(gcl_loop.o)
 .debug_line    0x0000000000025267     0x11d0 /usr/lib/gcl-2.6.7/unixport//libansi_gcl.a(gcl_describe.o)
 .debug_line    0x0000000000026437     0x111b /usr/lib/gcl-2.6.7/unixport//libansi_gcl.a(gcl_setf.o)
 .debug_line    0x0000000000027552      0x3d8 /usr/lib/gcl-2.6.7/unixport//libansi_gcl.a(gcl_make_defpackage.o)
 .debug_line    0x000000000002792a      0x63f /usr/lib/gcl-2.6.7/unixport//libansi_gcl.a(gcl_assert.o)
 .debug_line    0x0000000000027f69     0x2023 /usr/lib/gcl-2.6.7/unixport//libansi_gcl.a(gcl_defentry_events.o)
 .debug_line    0x0000000000029f8c       0xc7 /usr/lib/gcl-2.6.7/unixport//libansi_gcl.a(gcl_keysymdef.o)
 .debug_line    0x000000000002a053     0x13e0 /usr/lib/gcl-2.6.7/unixport//libansi_gcl.a(gcl_XStruct_l_3.o)
 .debug_line    0x000000000002b433      0xa91 /usr/lib/gcl-2.6.7/unixport//libansi_gcl.a(gcl_tohtml.o)
 .debug_line    0x000000000002bec4      0x79d /usr/lib/gcl-2.6.7/unixport//libansi_gcl.a(Events.o)
 .debug_line    0x000000000002c661      0x4cd /usr/lib/gcl-2.6.7/unixport//libansi_gcl.a(gcl_Xutil.o)
 .debug_line    0x000000000002cb2e      0x4db /usr/lib/gcl-2.6.7/unixport//libansi_gcl.a(XStruct-4.o)
 .debug_line    0x000000000002d009     0x128b /usr/lib/gcl-2.6.7/unixport//libansi_gcl.a(gcl_Xlib.o)
 .debug_line    0x000000000002e294      0xc6d /usr/lib/gcl-2.6.7/unixport//libansi_gcl.a(gcl_Xstruct.o)
 .debug_line    0x000000000002ef01      0x356 /usr/lib/gcl-2.6.7/unixport//libansi_gcl.a(XStruct-2.o)
 .debug_line    0x000000000002f257       0xbf /usr/lib/gcl-2.6.7/unixport//libansi_gcl.a(gcl_XAtom.o)
 .debug_line    0x000000000002f316       0xbb /usr/lib/gcl-2.6.7/unixport//libansi_gcl.a(gcl_X10.o)
 .debug_line    0x000000000002f3d1       0x7b /usr/lib/gcl-2.6.7/unixport//libansi_gcl.a(Xutil-2.o)
 .debug_line    0x000000000002f44c      0x236 /usr/lib/gcl-2.6.7/unixport//libansi_gcl.a(gcl_Xinit.o)
 .debug_line    0x000000000002f682      0x224 /usr/lib/gcl-2.6.7/unixport//libansi_gcl.a(gcl_index.o)
 .debug_line    0x000000000002f8a6     0x52d1 /usr/lib/gcl-2.6.7/unixport//libansi_gcl.a(gcl_dwtrans.o)
 .debug_line    0x0000000000034b77      0x228 /usr/lib/gcl-2.6.7/unixport//libansi_gcl.a(gcl_general.o)
 .debug_line    0x0000000000034d9f       0xb7 /usr/lib/gcl-2.6.7/unixport//libansi_gcl.a(gcl_X.o)
 .debug_line    0x0000000000034e56      0x71c /usr/lib/gcl-2.6.7/unixport//libansi_gcl.a(gcl_cmplet.o)
 .debug_line    0x0000000000035572      0x7a0 /usr/lib/gcl-2.6.7/unixport//libansi_gcl.a(gcl_cmpflet.o)
 .debug_line    0x0000000000035d12     0x1003 /usr/lib/gcl-2.6.7/unixport//libansi_gcl.a(gcl_cmpfun.o)
 .debug_line    0x0000000000036d15      0x3b2 /usr/lib/gcl-2.6.7/unixport//libansi_gcl.a(gcl_cmpspecial.o)
 .debug_line    0x00000000000370c7      0x581 /usr/lib/gcl-2.6.7/unixport//libansi_gcl.a(gcl_cmputil.o)
 .debug_line    0x0000000000037648      0x838 /usr/lib/gcl-2.6.7/unixport//libansi_gcl.a(gcl_cmptag.o)
 .debug_line    0x0000000000037e80      0x3af /usr/lib/gcl-2.6.7/unixport//libansi_gcl.a(gcl_cmpblock.o)
 .debug_line    0x000000000003822f      0x4ed /usr/lib/gcl-2.6.7/unixport//libansi_gcl.a(gcl_cmpwt.o)
 .debug_line    0x000000000003871c     0x10ba /usr/lib/gcl-2.6.7/unixport//libansi_gcl.a(gcl_cmplam.o)
 .debug_line    0x00000000000397d6      0x19e /usr/lib/gcl-2.6.7/unixport//libansi_gcl.a(gcl_cmpvs.o)
 .debug_line    0x0000000000039974      0xc13 /usr/lib/gcl-2.6.7/unixport//libansi_gcl.a(gcl_cmpenv.o)
 .debug_line    0x000000000003a587      0x29e /usr/lib/gcl-2.6.7/unixport//libansi_gcl.a(gcl_cmpcatch.o)
 .debug_line    0x000000000003a825      0x5e5 /usr/lib/gcl-2.6.7/unixport//libansi_gcl.a(gcl_cmpmulti.o)
 .debug_line    0x000000000003ae0a     0x1338 /usr/lib/gcl-2.6.7/unixport//libansi_gcl.a(gcl_cmpmain.o)
 .debug_line    0x000000000003c142     0x1f68 /usr/lib/gcl-2.6.7/unixport//libansi_gcl.a(gcl_cmptop.o)
 .debug_line    0x000000000003e0aa      0x3b7 /usr/lib/gcl-2.6.7/unixport//libansi_gcl.a(gcl_cmptype.o)
 .debug_line    0x000000000003e461      0x96a /usr/lib/gcl-2.6.7/unixport//libansi_gcl.a(gcl_cmpvar.o)
 .debug_line    0x000000000003edcb      0x8b2 /usr/lib/gcl-2.6.7/unixport//libansi_gcl.a(gcl_cmpif.o)
 .debug_line    0x000000000003f67d      0x321 /usr/lib/gcl-2.6.7/unixport//libansi_gcl.a(gcl_cmpbind.o)
 .debug_line    0x000000000003f99e      0x502 /usr/lib/gcl-2.6.7/unixport//libansi_gcl.a(gcl_cmploc.o)
 .debug_line    0x000000000003fea0      0x457 /usr/lib/gcl-2.6.7/unixport//libansi_gcl.a(gcl_cmplabel.o)
 .debug_line    0x00000000000402f7      0x635 /usr/lib/gcl-2.6.7/unixport//libansi_gcl.a(gcl_cmpmap.o)
 .debug_line    0x000000000004092c      0xdd0 /usr/lib/gcl-2.6.7/unixport//libansi_gcl.a(gcl_cmpinline.o)
 .debug_line    0x00000000000416fc      0xc3a /usr/lib/gcl-2.6.7/unixport//libansi_gcl.a(gcl_cmpeval.o)
 .debug_line    0x0000000000042336      0xb5e /usr/lib/gcl-2.6.7/unixport//libansi_gcl.a(gcl_cmpcall.o)
 .debug_line    0x0000000000042e94      0x1dd /usr/lib/gcl-2.6.7/unixport//libansi_gcl.a(gcl_pcl_gazonk5.o)
 .debug_line    0x0000000000043071     0x3610 /usr/lib/gcl-2.6.7/unixport//libansi_gcl.a(gcl_pcl_precom2.o)
 .debug_line    0x0000000000046681      0xfaa /usr/lib/gcl-2.6.7/unixport//libansi_gcl.a(gcl_pcl_macros.o)
 .debug_line    0x000000000004762b     0x1f49 /usr/lib/gcl-2.6.7/unixport//libansi_gcl.a(gcl_pcl_fast_init.o)
 .debug_line    0x0000000000049574      0xc24 /usr/lib/gcl-2.6.7/unixport//libansi_gcl.a(gcl_pcl_env.o)
 .debug_line    0x000000000004a198     0x10e4 /usr/lib/gcl-2.6.7/unixport//libansi_gcl.a(gcl_pcl_walk.o)
 .debug_line    0x000000000004b27c      0x7cb /usr/lib/gcl-2.6.7/unixport//libansi_gcl.a(gcl_pcl_defcombin.o)
 .debug_line    0x000000000004ba47     0x26ac /usr/lib/gcl-2.6.7/unixport//libansi_gcl.a(gcl_pcl_std_class.o)
 .debug_line    0x000000000004e0f3      0x9bc /usr/lib/gcl-2.6.7/unixport//libansi_gcl.a(gcl_pcl_defclass.o)
 .debug_line    0x000000000004eaaf      0x189 /usr/lib/gcl-2.6.7/unixport//libansi_gcl.a(gcl_pcl_fsc.o)
 .debug_line    0x000000000004ec38     0x1b79 /usr/lib/gcl-2.6.7/unixport//libansi_gcl.a(gcl_pcl_vector.o)
 .debug_line    0x00000000000507b1       0xf9 /usr/lib/gcl-2.6.7/unixport//libansi_gcl.a(gcl_pcl_precom1.o)
 .debug_line    0x00000000000508aa       0xf7 /usr/lib/gcl-2.6.7/unixport//libansi_gcl.a(gcl_pcl_compat.o)
 .debug_line    0x00000000000509a1      0x715 /usr/lib/gcl-2.6.7/unixport//libansi_gcl.a(gcl_pcl_cpl.o)
 .debug_line    0x00000000000510b6      0x4c2 /usr/lib/gcl-2.6.7/unixport//libansi_gcl.a(gcl_pcl_fngen.o)
 .debug_line    0x0000000000051578     0x1000 /usr/lib/gcl-2.6.7/unixport//libansi_gcl.a(gcl_pcl_slots_boot.o)
 .debug_line    0x0000000000052578      0x1d9 /usr/lib/gcl-2.6.7/unixport//libansi_gcl.a(gcl_pcl_gazonk7.o)
 .debug_line    0x0000000000052751      0x259 /usr/lib/gcl-2.6.7/unixport//libansi_gcl.a(gcl_pcl_gazonk3.o)
 .debug_line    0x00000000000529aa     0x326c /usr/lib/gcl-2.6.7/unixport//libansi_gcl.a(gcl_pcl_boot.o)
 .debug_line    0x0000000000055c16      0x84b /usr/lib/gcl-2.6.7/unixport//libansi_gcl.a(gcl_pcl_impl_low.o)
 .debug_line    0x0000000000056461      0x90d /usr/lib/gcl-2.6.7/unixport//libansi_gcl.a(gcl_pcl_dlisp.o)
 .debug_line    0x0000000000056d6e      0x6d7 /usr/lib/gcl-2.6.7/unixport//libansi_gcl.a(gcl_pcl_init.o)
 .debug_line    0x0000000000057445      0xd8e /usr/lib/gcl-2.6.7/unixport//libansi_gcl.a(gcl_pcl_dlisp2.o)
 .debug_line    0x00000000000581d3     0x2331 /usr/lib/gcl-2.6.7/unixport//libansi_gcl.a(gcl_pcl_cache.o)
 .debug_line    0x000000000005a504      0x1dc /usr/lib/gcl-2.6.7/unixport//libansi_gcl.a(gcl_pcl_gazonk6.o)
 .debug_line    0x000000000005a6e0     0x11ef /usr/lib/gcl-2.6.7/unixport//libansi_gcl.a(gcl_pcl_defs.o)
 .debug_line    0x000000000005b8cf      0x771 /usr/lib/gcl-2.6.7/unixport//libansi_gcl.a(gcl_pcl_low.o)
 .debug_line    0x000000000005c040     0x11a0 /usr/lib/gcl-2.6.7/unixport//libansi_gcl.a(gcl_pcl_generic_functions.o)
 .debug_line    0x000000000005d1e0      0x1bf /usr/lib/gcl-2.6.7/unixport//libansi_gcl.a(gcl_pcl_gazonk4.o)
 .debug_line    0x000000000005d39f     0x104b /usr/lib/gcl-2.6.7/unixport//libansi_gcl.a(gcl_pcl_iterate.o)
 .debug_line    0x000000000005e3ea      0x314 /usr/lib/gcl-2.6.7/unixport//libansi_gcl.a(gcl_pcl_gazonk2.o)
 .debug_line    0x000000000005e6fe     0x2c3d /usr/lib/gcl-2.6.7/unixport//libansi_gcl.a(gcl_pcl_methods.o)
 .debug_line    0x000000000006133b      0x3a5 /usr/lib/gcl-2.6.7/unixport//libansi_gcl.a(gcl_pcl_fin.o)
 .debug_line    0x00000000000616e0      0x161 /usr/lib/gcl-2.6.7/unixport//libansi_gcl.a(gcl_pcl_gazonk1.o)
 .debug_line    0x0000000000061841      0x164 /usr/lib/gcl-2.6.7/unixport//libansi_gcl.a(gcl_pcl_gazonk0.o)
 .debug_line    0x00000000000619a5     0x3154 /usr/lib/gcl-2.6.7/unixport//libansi_gcl.a(gcl_pcl_dfun.o)
 .debug_line    0x0000000000064af9      0x116 /usr/lib/gcl-2.6.7/unixport//libansi_gcl.a(gcl_pcl_fixup.o)
 .debug_line    0x0000000000064c0f      0x75d /usr/lib/gcl-2.6.7/unixport//libansi_gcl.a(gcl_pcl_slots.o)
 .debug_line    0x000000000006536c      0x8fc /usr/lib/gcl-2.6.7/unixport//libansi_gcl.a(gcl_pcl_combin.o)
 .debug_line    0x0000000000065c68      0x138 /usr/lib/gcl-2.6.7/unixport//libansi_gcl.a(gcl_pcl_pkg.o)
 .debug_line    0x0000000000065da0      0xff0 /usr/lib/gcl-2.6.7/unixport//libansi_gcl.a(gcl_pcl_braid.o)
 .debug_line    0x0000000000066d90      0x1d4 /usr/lib/gcl-2.6.7/unixport//libansi_gcl.a(gcl_pcl_ctypes.o)
 .debug_line    0x0000000000066f64      0x51f /usr/lib/gcl-2.6.7/unixport//libansi_gcl.a(gcl_clcs_install.o)
 .debug_line    0x0000000000067483      0x60a /usr/lib/gcl-2.6.7/unixport//libansi_gcl.a(gcl_clcs_handler.o)
 .debug_line    0x0000000000067a8d      0x3c0 /usr/lib/gcl-2.6.7/unixport//libansi_gcl.a(gcl_clcs_macros.o)
 .debug_line    0x0000000000067e4d      0x34e /usr/lib/gcl-2.6.7/unixport//libansi_gcl.a(gcl_clcs_conditions.o)
 .debug_line    0x000000000006819b      0x793 /usr/lib/gcl-2.6.7/unixport//libansi_gcl.a(gcl_clcs_debugger.o)
 .debug_line    0x000000000006892e      0x507 /usr/lib/gcl-2.6.7/unixport//libansi_gcl.a(gcl_clcs_top_patches.o)
 .debug_line    0x0000000000068e35     0x1685 /usr/lib/gcl-2.6.7/unixport//libansi_gcl.a(gcl_clcs_condition_definitions.o)
 .debug_line    0x000000000006a4ba      0x70f /usr/lib/gcl-2.6.7/unixport//libansi_gcl.a(gcl_clcs_restart.o)
 .debug_line    0x000000000006abc9      0x2de /usr/lib/gcl-2.6.7/unixport//libansi_gcl.a(gcl_clcs_precom.o)
 .debug_line    0x000000000006aea7      0x50c /usr/lib/gcl-2.6.7/unixport//libansi_gcl.a(gcl_clcs_kcl_cond.o)
 .debug_line    0x000000000006b3b3      0x468 /usr/lib/gcl-2.6.7/unixport//libansi_gcl.a(num_sfun.o)
 .debug_line    0x000000000006b81b      0x1df /usr/lib/gcl-2.6.7/unixport//libansi_gcl.a(num_rand.o)
 .debug_line    0x000000000006b9fa       0x7d /usr/lib/gcl-2.6.7/unixport//libansi_gcl.a(general-c.o)

.debug_frame    0x0000000000000000    0x4eb9c
 *(.debug_frame)
 .debug_frame   0x0000000000000000       0x44 ./user-init.o
 .debug_frame   0x0000000000000044      0x3e0 /usr/lib/gcl-2.6.7/unixport//libansi_gcl.a(main.o)
 .debug_frame   0x0000000000000424      0x534 /usr/lib/gcl-2.6.7/unixport//libansi_gcl.a(package.o)
 .debug_frame   0x0000000000000958      0x108 /usr/lib/gcl-2.6.7/unixport//libansi_gcl.a(gcl_readline.o)
 .debug_frame   0x0000000000000a60      0x43c /usr/lib/gcl-2.6.7/unixport//libansi_gcl.a(symbol.o)
 .debug_frame   0x0000000000000e9c      0x13c /usr/lib/gcl-2.6.7/unixport//libansi_gcl.a(makefun.o)
 .debug_frame   0x0000000000000fd8      0x4c8 /usr/lib/gcl-2.6.7/unixport//libansi_gcl.a(string.o)
 .debug_frame   0x00000000000014a0      0x49c /usr/lib/gcl-2.6.7/unixport//libansi_gcl.a(print.o)
 .debug_frame   0x000000000000193c      0x138 /usr/lib/gcl-2.6.7/unixport//libansi_gcl.a(macros.o)
 .debug_frame   0x0000000000001a74       0xc0 /usr/lib/gcl-2.6.7/unixport//libansi_gcl.a(multival.o)
 .debug_frame   0x0000000000001b34      0x6f0 /usr/lib/gcl-2.6.7/unixport//libansi_gcl.a(file.o)
 .debug_frame   0x0000000000002224       0xc0 /usr/lib/gcl-2.6.7/unixport//libansi_gcl.a(sys_ansi_gcl.o)
 .debug_frame   0x00000000000022e4      0x148 /usr/lib/gcl-2.6.7/unixport//libansi_gcl.a(sfasl.o)
 .debug_frame   0x000000000000242c      0x454 /usr/lib/gcl-2.6.7/unixport//libansi_gcl.a(eval.o)
 .debug_frame   0x0000000000002880      0x720 /usr/lib/gcl-2.6.7/unixport//libansi_gcl.a(array.o)
 .debug_frame   0x0000000000002fa0      0x10c /usr/lib/gcl-2.6.7/unixport//libansi_gcl.a(lex.o)
 .debug_frame   0x00000000000030ac      0x1c0 /usr/lib/gcl-2.6.7/unixport//libansi_gcl.a(earith.o)
 .debug_frame   0x000000000000326c      0x10c /usr/lib/gcl-2.6.7/unixport//libansi_gcl.a(toplevel.o)
 .debug_frame   0x0000000000003378      0x18c /usr/lib/gcl-2.6.7/unixport//libansi_gcl.a(nsocket.o)
 .debug_frame   0x0000000000003504     0x10cc /usr/lib/gcl-2.6.7/unixport//libansi_gcl.a(list.o)
 .debug_frame   0x00000000000045d0      0x260 /usr/lib/gcl-2.6.7/unixport//libansi_gcl.a(structure.o)
 .debug_frame   0x0000000000004830      0x2a0 /usr/lib/gcl-2.6.7/unixport//libansi_gcl.a(unixfsys.o)
 .debug_frame   0x0000000000004ad0       0xcc /usr/lib/gcl-2.6.7/unixport//libansi_gcl.a(unixsys.o)
 .debug_frame   0x0000000000004b9c      0x918 /usr/lib/gcl-2.6.7/unixport//libansi_gcl.a(predicate.o)
 .debug_frame   0x00000000000054b4      0x14c /usr/lib/gcl-2.6.7/unixport//libansi_gcl.a(number.o)
 .debug_frame   0x0000000000005600      0x29c /usr/lib/gcl-2.6.7/unixport//libansi_gcl.a(cmpaux.o)
 .debug_frame   0x000000000000589c      0x4e0 /usr/lib/gcl-2.6.7/unixport//libansi_gcl.a(num_log.o)
 .debug_frame   0x0000000000005d7c      0x1c4 /usr/lib/gcl-2.6.7/unixport//libansi_gcl.a(sequence.o)
 .debug_frame   0x0000000000005f40      0x2e4 /usr/lib/gcl-2.6.7/unixport//libansi_gcl.a(pathname.o)
 .debug_frame   0x0000000000006224       0x88 /usr/lib/gcl-2.6.7/unixport//libansi_gcl.a(unixsave.o)
 .debug_frame   0x00000000000062ac      0x2dc /usr/lib/gcl-2.6.7/unixport//libansi_gcl.a(num_co.o)
 .debug_frame   0x0000000000006588      0x118 /usr/lib/gcl-2.6.7/unixport//libansi_gcl.a(usig2.o)
 .debug_frame   0x00000000000066a0      0x120 /usr/lib/gcl-2.6.7/unixport//libansi_gcl.a(num_pred.o)
 .debug_frame   0x00000000000067c0      0x12c /usr/lib/gcl-2.6.7/unixport//libansi_gcl.a(let.o)
 .debug_frame   0x00000000000068ec      0x18c /usr/lib/gcl-2.6.7/unixport//libansi_gcl.a(bind.o)
 .debug_frame   0x0000000000006a78       0xec /usr/lib/gcl-2.6.7/unixport//libansi_gcl.a(mapfun.o)
 .debug_frame   0x0000000000006b64      0x2a8 /usr/lib/gcl-2.6.7/unixport//libansi_gcl.a(typespec.o)
 .debug_frame   0x0000000000006e0c      0x274 /usr/lib/gcl-2.6.7/unixport//libansi_gcl.a(funlink.o)
 .debug_frame   0x0000000000007080       0x2c /usr/lib/gcl-2.6.7/unixport//libansi_gcl.a(new_init.o)
 .debug_frame   0x00000000000070ac      0x130 /usr/lib/gcl-2.6.7/unixport//libansi_gcl.a(utils.o)
 .debug_frame   0x00000000000071dc      0x888 /usr/lib/gcl-2.6.7/unixport//libansi_gcl.a(read.o)
 .debug_frame   0x0000000000007a64      0x12c /usr/lib/gcl-2.6.7/unixport//libansi_gcl.a(prog.o)
 .debug_frame   0x0000000000007b90       0xbc /usr/lib/gcl-2.6.7/unixport//libansi_gcl.a(catch.o)
 .debug_frame   0x0000000000007c4c       0xec /usr/lib/gcl-2.6.7/unixport//libansi_gcl.a(iteration.o)
 .debug_frame   0x0000000000007d38      0x88c /usr/lib/gcl-2.6.7/unixport//libansi_gcl.a(error.o)
 .debug_frame   0x00000000000085c4      0x168 /usr/lib/gcl-2.6.7/unixport//libansi_gcl.a(unixtime.o)
 .debug_frame   0x000000000000872c      0x354 /usr/lib/gcl-2.6.7/unixport//libansi_gcl.a(format.o)
 .debug_frame   0x0000000000008a80      0x370 /usr/lib/gcl-2.6.7/unixport//libansi_gcl.a(big.o)
 .debug_frame   0x0000000000008df0      0x250 /usr/lib/gcl-2.6.7/unixport//libansi_gcl.a(hash.o)
 .debug_frame   0x0000000000009040      0x150 /usr/lib/gcl-2.6.7/unixport//libansi_gcl.a(num_comp.o)
 .debug_frame   0x0000000000009190      0x2bc /usr/lib/gcl-2.6.7/unixport//libansi_gcl.a(gmp_wrappers.o)
 .debug_frame   0x000000000000944c       0x4c /usr/lib/gcl-2.6.7/unixport//libansi_gcl.a(unixfasl.o)
 .debug_frame   0x0000000000009498      0x124 /usr/lib/gcl-2.6.7/unixport//libansi_gcl.a(reference.o)
 .debug_frame   0x00000000000095bc      0x2ec /usr/lib/gcl-2.6.7/unixport//libansi_gcl.a(fat_string.o)
 .debug_frame   0x00000000000098a8      0x500 /usr/lib/gcl-2.6.7/unixport//libansi_gcl.a(character.o)
 .debug_frame   0x0000000000009da8      0x55c /usr/lib/gcl-2.6.7/unixport//libansi_gcl.a(alloc.o)
 .debug_frame   0x000000000000a304      0x214 /usr/lib/gcl-2.6.7/unixport//libansi_gcl.a(regexpr.o)
 .debug_frame   0x000000000000a518      0x11c /usr/lib/gcl-2.6.7/unixport//libansi_gcl.a(usig.o)
 .debug_frame   0x000000000000a634      0x3c8 /usr/lib/gcl-2.6.7/unixport//libansi_gcl.a(gbc.o)
 .debug_frame   0x000000000000a9fc      0x308 /usr/lib/gcl-2.6.7/unixport//libansi_gcl.a(cfun.o)
 .debug_frame   0x000000000000ad04       0x54 /usr/lib/gcl-2.6.7/unixport//libansi_gcl.a(nfunlink.o)
 .debug_frame   0x000000000000ad58       0xe0 /usr/lib/gcl-2.6.7/unixport//libansi_gcl.a(backq.o)
 .debug_frame   0x000000000000ae38       0x34 /usr/lib/gcl-2.6.7/unixport//libansi_gcl.a(bds.o)
 .debug_frame   0x000000000000ae6c      0x120 /usr/lib/gcl-2.6.7/unixport//libansi_gcl.a(run_process.o)
 .debug_frame   0x000000000000af8c      0x2b4 /usr/lib/gcl-2.6.7/unixport//libansi_gcl.a(assignment.o)
 .debug_frame   0x000000000000b240       0xd0 /usr/lib/gcl-2.6.7/unixport//libansi_gcl.a(conditional.o)
 .debug_frame   0x000000000000b310       0x8c /usr/lib/gcl-2.6.7/unixport//libansi_gcl.a(block.o)
 .debug_frame   0x000000000000b39c       0x60 /usr/lib/gcl-2.6.7/unixport//libansi_gcl.a(frame.o)
 .debug_frame   0x000000000000b3fc      0x2dc /usr/lib/gcl-2.6.7/unixport//libansi_gcl.a(num_arith.o)
 .debug_frame   0x000000000000b6d8      0x3e4 /usr/lib/gcl-2.6.7/unixport//libansi_gcl.a(sockets.o)
 .debug_frame   0x000000000000babc      0x53c /usr/lib/gcl-2.6.7/unixport//libansi_gcl.a(gcl_numlib.o)
 .debug_frame   0x000000000000bff8      0x2ac /usr/lib/gcl-2.6.7/unixport//libansi_gcl.a(gcl_destructuring_bind.o)
 .debug_frame   0x000000000000c2a4      0x428 /usr/lib/gcl-2.6.7/unixport//libansi_gcl.a(gcl_listlib.o)
 .debug_frame   0x000000000000c6cc       0xc4 /usr/lib/gcl-2.6.7/unixport//libansi_gcl.a(gcl_module.o)
 .debug_frame   0x000000000000c790      0xbc0 /usr/lib/gcl-2.6.7/unixport//libansi_gcl.a(gcl_top.o)
 .debug_frame   0x000000000000d350      0x624 /usr/lib/gcl-2.6.7/unixport//libansi_gcl.a(gcl_predlib.o)
 .debug_frame   0x000000000000d974      0x3cc /usr/lib/gcl-2.6.7/unixport//libansi_gcl.a(gcl_iolib.o)
 .debug_frame   0x000000000000dd40      0x424 /usr/lib/gcl-2.6.7/unixport//libansi_gcl.a(gcl_serror.o)
 .debug_frame   0x000000000000e164      0x52c /usr/lib/gcl-2.6.7/unixport//libansi_gcl.a(gcl_defstruct.o)
 .debug_frame   0x000000000000e690      0xc1c /usr/lib/gcl-2.6.7/unixport//libansi_gcl.a(gcl_debug.o)
 .debug_frame   0x000000000000f2ac      0x4e8 /usr/lib/gcl-2.6.7/unixport//libansi_gcl.a(gcl_arraylib.o)
 .debug_frame   0x000000000000f794      0x22c /usr/lib/gcl-2.6.7/unixport//libansi_gcl.a(gcl_packlib.o)
 .debug_frame   0x000000000000f9c0      0x1b4 /usr/lib/gcl-2.6.7/unixport//libansi_gcl.a(gcl_seq.o)
 .debug_frame   0x000000000000fb74      0x12c /usr/lib/gcl-2.6.7/unixport//libansi_gcl.a(gcl_defpackage.o)
 .debug_frame   0x000000000000fca0      0x7d8 /usr/lib/gcl-2.6.7/unixport//libansi_gcl.a(gcl_info.o)
 .debug_frame   0x0000000000010478      0x364 /usr/lib/gcl-2.6.7/unixport//libansi_gcl.a(gcl_trace.o)
 .debug_frame   0x00000000000107dc      0xb40 /usr/lib/gcl-2.6.7/unixport//libansi_gcl.a(gcl_sloop.o)
 .debug_frame   0x000000000001131c      0x254 /usr/lib/gcl-2.6.7/unixport//libansi_gcl.a(gcl_mislib.o)
 .debug_frame   0x0000000000011570      0x26c /usr/lib/gcl-2.6.7/unixport//libansi_gcl.a(gcl_defmacro.o)
 .debug_frame   0x00000000000117dc      0x3e4 /usr/lib/gcl-2.6.7/unixport//libansi_gcl.a(gcl_evalmacros.o)
 .debug_frame   0x0000000000011bc0      0x82c /usr/lib/gcl-2.6.7/unixport//libansi_gcl.a(gcl_seqlib.o)
 .debug_frame   0x00000000000123ec     0x1250 /usr/lib/gcl-2.6.7/unixport//libansi_gcl.a(gcl_loop.o)
 .debug_frame   0x000000000001363c      0x558 /usr/lib/gcl-2.6.7/unixport//libansi_gcl.a(gcl_describe.o)
 .debug_frame   0x0000000000013b94      0x3fc /usr/lib/gcl-2.6.7/unixport//libansi_gcl.a(gcl_setf.o)
 .debug_frame   0x0000000000013f90       0xc4 /usr/lib/gcl-2.6.7/unixport//libansi_gcl.a(gcl_make_defpackage.o)
 .debug_frame   0x0000000000014054      0x1ec /usr/lib/gcl-2.6.7/unixport//libansi_gcl.a(gcl_assert.o)
 .debug_frame   0x0000000000014240     0x45c4 /usr/lib/gcl-2.6.7/unixport//libansi_gcl.a(gcl_defentry_events.o)
 .debug_frame   0x0000000000018804       0x2c /usr/lib/gcl-2.6.7/unixport//libansi_gcl.a(gcl_keysymdef.o)
 .debug_frame   0x0000000000018830     0x2a6c /usr/lib/gcl-2.6.7/unixport//libansi_gcl.a(gcl_XStruct_l_3.o)
 .debug_frame   0x000000000001b29c      0x448 /usr/lib/gcl-2.6.7/unixport//libansi_gcl.a(gcl_tohtml.o)
 .debug_frame   0x000000000001b6e4     0x380c /usr/lib/gcl-2.6.7/unixport//libansi_gcl.a(Events.o)
 .debug_frame   0x000000000001eef0      0x908 /usr/lib/gcl-2.6.7/unixport//libansi_gcl.a(gcl_Xutil.o)
 .debug_frame   0x000000000001f7f8     0x221c /usr/lib/gcl-2.6.7/unixport//libansi_gcl.a(XStruct-4.o)
 .debug_frame   0x0000000000021a14     0x276c /usr/lib/gcl-2.6.7/unixport//libansi_gcl.a(gcl_Xlib.o)
 .debug_frame   0x0000000000024180     0x19d4 /usr/lib/gcl-2.6.7/unixport//libansi_gcl.a(gcl_Xstruct.o)
 .debug_frame   0x0000000000025b54     0x14c4 /usr/lib/gcl-2.6.7/unixport//libansi_gcl.a(XStruct-2.o)
 .debug_frame   0x0000000000027018       0x2c /usr/lib/gcl-2.6.7/unixport//libansi_gcl.a(gcl_XAtom.o)
 .debug_frame   0x0000000000027044       0x2c /usr/lib/gcl-2.6.7/unixport//libansi_gcl.a(gcl_X10.o)
 .debug_frame   0x0000000000027070       0xd4 /usr/lib/gcl-2.6.7/unixport//libansi_gcl.a(Xutil-2.o)
 .debug_frame   0x0000000000027144      0x204 /usr/lib/gcl-2.6.7/unixport//libansi_gcl.a(gcl_Xinit.o)
 .debug_frame   0x0000000000027348       0xf4 /usr/lib/gcl-2.6.7/unixport//libansi_gcl.a(gcl_index.o)
 .debug_frame   0x000000000002743c     0x2fb4 /usr/lib/gcl-2.6.7/unixport//libansi_gcl.a(gcl_dwtrans.o)
 .debug_frame   0x000000000002a3f0      0x2b4 /usr/lib/gcl-2.6.7/unixport//libansi_gcl.a(gcl_general.o)
 .debug_frame   0x000000000002a6a4       0x2c /usr/lib/gcl-2.6.7/unixport//libansi_gcl.a(gcl_X.o)
 .debug_frame   0x000000000002a6d0      0x488 /usr/lib/gcl-2.6.7/unixport//libansi_gcl.a(gcl_cmplet.o)
 .debug_frame   0x000000000002ab58      0x40c /usr/lib/gcl-2.6.7/unixport//libansi_gcl.a(gcl_cmpflet.o)
 .debug_frame   0x000000000002af64      0xc00 /usr/lib/gcl-2.6.7/unixport//libansi_gcl.a(gcl_cmpfun.o)
 .debug_frame   0x000000000002bb64      0x3c8 /usr/lib/gcl-2.6.7/unixport//libansi_gcl.a(gcl_cmpspecial.o)
 .debug_frame   0x000000000002bf2c      0x36c /usr/lib/gcl-2.6.7/unixport//libansi_gcl.a(gcl_cmputil.o)
 .debug_frame   0x000000000002c298      0x650 /usr/lib/gcl-2.6.7/unixport//libansi_gcl.a(gcl_cmptag.o)
 .debug_frame   0x000000000002c8e8      0x3f8 /usr/lib/gcl-2.6.7/unixport//libansi_gcl.a(gcl_cmpblock.o)
 .debug_frame   0x000000000002cce0      0x354 /usr/lib/gcl-2.6.7/unixport//libansi_gcl.a(gcl_cmpwt.o)
 .debug_frame   0x000000000002d034      0x7e4 /usr/lib/gcl-2.6.7/unixport//libansi_gcl.a(gcl_cmplam.o)
 .debug_frame   0x000000000002d818      0x170 /usr/lib/gcl-2.6.7/unixport//libansi_gcl.a(gcl_cmpvs.o)
 .debug_frame   0x000000000002d988      0x5d8 /usr/lib/gcl-2.6.7/unixport//libansi_gcl.a(gcl_cmpenv.o)
 .debug_frame   0x000000000002df60      0x224 /usr/lib/gcl-2.6.7/unixport//libansi_gcl.a(gcl_cmpcatch.o)
 .debug_frame   0x000000000002e184      0x4f4 /usr/lib/gcl-2.6.7/unixport//libansi_gcl.a(gcl_cmpmulti.o)
 .debug_frame   0x000000000002e678      0x73c /usr/lib/gcl-2.6.7/unixport//libansi_gcl.a(gcl_cmpmain.o)
 .debug_frame   0x000000000002edb4      0xfdc /usr/lib/gcl-2.6.7/unixport//libansi_gcl.a(gcl_cmptop.o)
 .debug_frame   0x000000000002fd90      0x1f0 /usr/lib/gcl-2.6.7/unixport//libansi_gcl.a(gcl_cmptype.o)
 .debug_frame   0x000000000002ff80      0x78c /usr/lib/gcl-2.6.7/unixport//libansi_gcl.a(gcl_cmpvar.o)
 .debug_frame   0x000000000003070c      0x524 /usr/lib/gcl-2.6.7/unixport//libansi_gcl.a(gcl_cmpif.o)
 .debug_frame   0x0000000000030c30      0x244 /usr/lib/gcl-2.6.7/unixport//libansi_gcl.a(gcl_cmpbind.o)
 .debug_frame   0x0000000000030e74      0x490 /usr/lib/gcl-2.6.7/unixport//libansi_gcl.a(gcl_cmploc.o)
 .debug_frame   0x0000000000031304      0x244 /usr/lib/gcl-2.6.7/unixport//libansi_gcl.a(gcl_cmplabel.o)
 .debug_frame   0x0000000000031548      0x2ac /usr/lib/gcl-2.6.7/unixport//libansi_gcl.a(gcl_cmpmap.o)
 .debug_frame   0x00000000000317f4      0xa34 /usr/lib/gcl-2.6.7/unixport//libansi_gcl.a(gcl_cmpinline.o)
 .debug_frame   0x0000000000032228      0x9ec /usr/lib/gcl-2.6.7/unixport//libansi_gcl.a(gcl_cmpeval.o)
 .debug_frame   0x0000000000032c14      0x7c8 /usr/lib/gcl-2.6.7/unixport//libansi_gcl.a(gcl_cmpcall.o)
 .debug_frame   0x00000000000333dc       0xcc /usr/lib/gcl-2.6.7/unixport//libansi_gcl.a(gcl_pcl_gazonk5.o)
 .debug_frame   0x00000000000334a8     0x14b4 /usr/lib/gcl-2.6.7/unixport//libansi_gcl.a(gcl_pcl_precom2.o)
 .debug_frame   0x000000000003495c      0xa70 /usr/lib/gcl-2.6.7/unixport//libansi_gcl.a(gcl_pcl_macros.o)
 .debug_frame   0x00000000000353cc     0x10f0 /usr/lib/gcl-2.6.7/unixport//libansi_gcl.a(gcl_pcl_fast_init.o)
 .debug_frame   0x00000000000364bc      0x60c /usr/lib/gcl-2.6.7/unixport//libansi_gcl.a(gcl_pcl_env.o)
 .debug_frame   0x0000000000036ac8      0xcbc /usr/lib/gcl-2.6.7/unixport//libansi_gcl.a(gcl_pcl_walk.o)
 .debug_frame   0x0000000000037784      0x4d4 /usr/lib/gcl-2.6.7/unixport//libansi_gcl.a(gcl_pcl_defcombin.o)
 .debug_frame   0x0000000000037c58     0x1eec /usr/lib/gcl-2.6.7/unixport//libansi_gcl.a(gcl_pcl_std_class.o)
 .debug_frame   0x0000000000039b44      0x798 /usr/lib/gcl-2.6.7/unixport//libansi_gcl.a(gcl_pcl_defclass.o)
 .debug_frame   0x000000000003a2dc      0x194 /usr/lib/gcl-2.6.7/unixport//libansi_gcl.a(gcl_pcl_fsc.o)
 .debug_frame   0x000000000003a470     0x109c /usr/lib/gcl-2.6.7/unixport//libansi_gcl.a(gcl_pcl_vector.o)
 .debug_frame   0x000000000003b50c       0x2c /usr/lib/gcl-2.6.7/unixport//libansi_gcl.a(gcl_pcl_precom1.o)
 .debug_frame   0x000000000003b538       0x2c /usr/lib/gcl-2.6.7/unixport//libansi_gcl.a(gcl_pcl_compat.o)
 .debug_frame   0x000000000003b564      0x3d8 /usr/lib/gcl-2.6.7/unixport//libansi_gcl.a(gcl_pcl_cpl.o)
 .debug_frame   0x000000000003b93c      0x500 /usr/lib/gcl-2.6.7/unixport//libansi_gcl.a(gcl_pcl_fngen.o)
 .debug_frame   0x000000000003be3c      0xa20 /usr/lib/gcl-2.6.7/unixport//libansi_gcl.a(gcl_pcl_slots_boot.o)
 .debug_frame   0x000000000003c85c       0xb4 /usr/lib/gcl-2.6.7/unixport//libansi_gcl.a(gcl_pcl_gazonk7.o)
 .debug_frame   0x000000000003c910       0x9c /usr/lib/gcl-2.6.7/unixport//libansi_gcl.a(gcl_pcl_gazonk3.o)
 .debug_frame   0x000000000003c9ac     0x1be4 /usr/lib/gcl-2.6.7/unixport//libansi_gcl.a(gcl_pcl_boot.o)
 .debug_frame   0x000000000003e590      0x5b8 /usr/lib/gcl-2.6.7/unixport//libansi_gcl.a(gcl_pcl_impl_low.o)
 .debug_frame   0x000000000003eb48      0x688 /usr/lib/gcl-2.6.7/unixport//libansi_gcl.a(gcl_pcl_dlisp.o)
 .debug_frame   0x000000000003f1d0      0x47c /usr/lib/gcl-2.6.7/unixport//libansi_gcl.a(gcl_pcl_init.o)
 .debug_frame   0x000000000003f64c      0x66c /usr/lib/gcl-2.6.7/unixport//libansi_gcl.a(gcl_pcl_dlisp2.o)
 .debug_frame   0x000000000003fcb8      0xda0 /usr/lib/gcl-2.6.7/unixport//libansi_gcl.a(gcl_pcl_cache.o)
 .debug_frame   0x0000000000040a58       0xb4 /usr/lib/gcl-2.6.7/unixport//libansi_gcl.a(gcl_pcl_gazonk6.o)
 .debug_frame   0x0000000000040b0c      0xd14 /usr/lib/gcl-2.6.7/unixport//libansi_gcl.a(gcl_pcl_defs.o)
 .debug_frame   0x0000000000041820      0x694 /usr/lib/gcl-2.6.7/unixport//libansi_gcl.a(gcl_pcl_low.o)
 .debug_frame   0x0000000000041eb4     0x1758 /usr/lib/gcl-2.6.7/unixport//libansi_gcl.a(gcl_pcl_generic_functions.o)
 .debug_frame   0x000000000004360c       0xb4 /usr/lib/gcl-2.6.7/unixport//libansi_gcl.a(gcl_pcl_gazonk4.o)
 .debug_frame   0x00000000000436c0      0x7f0 /usr/lib/gcl-2.6.7/unixport//libansi_gcl.a(gcl_pcl_iterate.o)
 .debug_frame   0x0000000000043eb0       0x9c /usr/lib/gcl-2.6.7/unixport//libansi_gcl.a(gcl_pcl_gazonk2.o)
 .debug_frame   0x0000000000043f4c     0x20b4 /usr/lib/gcl-2.6.7/unixport//libansi_gcl.a(gcl_pcl_methods.o)
 .debug_frame   0x0000000000046000      0x30c /usr/lib/gcl-2.6.7/unixport//libansi_gcl.a(gcl_pcl_fin.o)
 .debug_frame   0x000000000004630c       0x6c /usr/lib/gcl-2.6.7/unixport//libansi_gcl.a(gcl_pcl_gazonk1.o)
 .debug_frame   0x0000000000046378       0x6c /usr/lib/gcl-2.6.7/unixport//libansi_gcl.a(gcl_pcl_gazonk0.o)
 .debug_frame   0x00000000000463e4     0x2358 /usr/lib/gcl-2.6.7/unixport//libansi_gcl.a(gcl_pcl_dfun.o)
 .debug_frame   0x000000000004873c       0x64 /usr/lib/gcl-2.6.7/unixport//libansi_gcl.a(gcl_pcl_fixup.o)
 .debug_frame   0x00000000000487a0      0x690 /usr/lib/gcl-2.6.7/unixport//libansi_gcl.a(gcl_pcl_slots.o)
 .debug_frame   0x0000000000048e30      0x778 /usr/lib/gcl-2.6.7/unixport//libansi_gcl.a(gcl_pcl_combin.o)
 .debug_frame   0x00000000000495a8       0x4c /usr/lib/gcl-2.6.7/unixport//libansi_gcl.a(gcl_pcl_pkg.o)
 .debug_frame   0x00000000000495f4      0xb40 /usr/lib/gcl-2.6.7/unixport//libansi_gcl.a(gcl_pcl_braid.o)
 .debug_frame   0x000000000004a134      0x140 /usr/lib/gcl-2.6.7/unixport//libansi_gcl.a(gcl_pcl_ctypes.o)
 .debug_frame   0x000000000004a274      0x36c /usr/lib/gcl-2.6.7/unixport//libansi_gcl.a(gcl_clcs_install.o)
 .debug_frame   0x000000000004a5e0      0x44c /usr/lib/gcl-2.6.7/unixport//libansi_gcl.a(gcl_clcs_handler.o)
 .debug_frame   0x000000000004aa2c      0x22c /usr/lib/gcl-2.6.7/unixport//libansi_gcl.a(gcl_clcs_macros.o)
 .debug_frame   0x000000000004ac58      0x3e8 /usr/lib/gcl-2.6.7/unixport//libansi_gcl.a(gcl_clcs_conditions.o)
 .debug_frame   0x000000000004b040      0x84c /usr/lib/gcl-2.6.7/unixport//libansi_gcl.a(gcl_clcs_debugger.o)
 .debug_frame   0x000000000004b88c      0x418 /usr/lib/gcl-2.6.7/unixport//libansi_gcl.a(gcl_clcs_top_patches.o)
 .debug_frame   0x000000000004bca4     0x1db4 /usr/lib/gcl-2.6.7/unixport//libansi_gcl.a(gcl_clcs_condition_definitions.o)
 .debug_frame   0x000000000004da58      0x5cc /usr/lib/gcl-2.6.7/unixport//libansi_gcl.a(gcl_clcs_restart.o)
 .debug_frame   0x000000000004e024      0x2fc /usr/lib/gcl-2.6.7/unixport//libansi_gcl.a(gcl_clcs_precom.o)
 .debug_frame   0x000000000004e320      0x4c0 /usr/lib/gcl-2.6.7/unixport//libansi_gcl.a(gcl_clcs_kcl_cond.o)
 .debug_frame   0x000000000004e7e0      0x230 /usr/lib/gcl-2.6.7/unixport//libansi_gcl.a(num_sfun.o)
 .debug_frame   0x000000000004ea10       0xa0 /usr/lib/gcl-2.6.7/unixport//libansi_gcl.a(num_rand.o)
 .debug_frame   0x000000000004eab0       0xec /usr/lib/gcl-2.6.7/unixport//libansi_gcl.a(general-c.o)

.debug_str      0x0000000000000000    0x1db72
 *(.debug_str)
 .debug_str     0x0000000000000000      0x7ee ./user-init.o
                                        0xa59 (size before relaxing)
 .debug_str     0x00000000000007ee     0x202d /usr/lib/gcl-2.6.7/unixport//libansi_gcl.a(main.o)
                                       0x2db4 (size before relaxing)
 .debug_str     0x000000000000281b      0x289 /usr/lib/gcl-2.6.7/unixport//libansi_gcl.a(package.o)
                                       0x1080 (size before relaxing)
 .debug_str     0x0000000000002aa4      0x16b /usr/lib/gcl-2.6.7/unixport//libansi_gcl.a(gcl_readline.o)
                                        0xde3 (size before relaxing)
 .debug_str     0x0000000000002c0f      0x1a7 /usr/lib/gcl-2.6.7/unixport//libansi_gcl.a(symbol.o)
                                        0xf60 (size before relaxing)
 .debug_str     0x0000000000002db6       0xf3 /usr/lib/gcl-2.6.7/unixport//libansi_gcl.a(makefun.o)
                                        0xde8 (size before relaxing)
 .debug_str     0x0000000000002ea9      0x2f3 /usr/lib/gcl-2.6.7/unixport//libansi_gcl.a(string.o)
                                       0x1044 (size before relaxing)
 .debug_str     0x000000000000319c      0x3fb /usr/lib/gcl-2.6.7/unixport//libansi_gcl.a(print.o)
                                       0x163a (size before relaxing)
 .debug_str     0x0000000000003597       0xb4 /usr/lib/gcl-2.6.7/unixport//libansi_gcl.a(macros.o)
                                        0xe77 (size before relaxing)
 .debug_str     0x000000000000364b       0x7a /usr/lib/gcl-2.6.7/unixport//libansi_gcl.a(multival.o)
                                        0xcba (size before relaxing)
 .debug_str     0x00000000000036c5      0x844 /usr/lib/gcl-2.6.7/unixport//libansi_gcl.a(file.o)
                                       0x1d5f (size before relaxing)
 .debug_str     0x0000000000003f09       0xa0 /usr/lib/gcl-2.6.7/unixport//libansi_gcl.a(sys_ansi_gcl.o)
                                        0xdbf (size before relaxing)
 .debug_str     0x0000000000003fa9      0x231 /usr/lib/gcl-2.6.7/unixport//libansi_gcl.a(sfasl.o)
                                       0x1114 (size before relaxing)
 .debug_str     0x00000000000041da      0x245 /usr/lib/gcl-2.6.7/unixport//libansi_gcl.a(eval.o)
                                       0x1239 (size before relaxing)
 .debug_str     0x000000000000441f      0x55a /usr/lib/gcl-2.6.7/unixport//libansi_gcl.a(array.o)
                                       0x14b6 (size before relaxing)
 .debug_str     0x0000000000004979       0x6e /usr/lib/gcl-2.6.7/unixport//libansi_gcl.a(lex.o)
                                        0xcb8 (size before relaxing)
 .debug_str     0x00000000000049e7       0xc4 /usr/lib/gcl-2.6.7/unixport//libansi_gcl.a(earith.o)
                                        0xd9e (size before relaxing)
 .debug_str     0x0000000000004aab       0x81 /usr/lib/gcl-2.6.7/unixport//libansi_gcl.a(toplevel.o)
                                        0xe1a (size before relaxing)
 .debug_str     0x0000000000004b2c      0x22f /usr/lib/gcl-2.6.7/unixport//libansi_gcl.a(nsocket.o)
                                       0x105b (size before relaxing)
 .debug_str     0x0000000000004d5b      0x49e /usr/lib/gcl-2.6.7/unixport//libansi_gcl.a(list.o)
                                       0x16fe (size before relaxing)
 .debug_str     0x00000000000051f9      0x168 /usr/lib/gcl-2.6.7/unixport//libansi_gcl.a(structure.o)
                                        0xf03 (size before relaxing)
 .debug_str     0x0000000000005361      0x1e5 /usr/lib/gcl-2.6.7/unixport//libansi_gcl.a(unixfsys.o)
                                        0xf29 (size before relaxing)
 .debug_str     0x0000000000005546       0x53 /usr/lib/gcl-2.6.7/unixport//libansi_gcl.a(unixsys.o)
                                        0xd51 (size before relaxing)
 .debug_str     0x0000000000005599      0x384 /usr/lib/gcl-2.6.7/unixport//libansi_gcl.a(predicate.o)
                                       0x12d8 (size before relaxing)
 .debug_str     0x000000000000591d      0x124 /usr/lib/gcl-2.6.7/unixport//libansi_gcl.a(number.o)
                                        0xdf2 (size before relaxing)
 .debug_str     0x0000000000005a41      0x178 /usr/lib/gcl-2.6.7/unixport//libansi_gcl.a(cmpaux.o)
                                       0x10ea (size before relaxing)
 .debug_str     0x0000000000005bb9      0x1f0 /usr/lib/gcl-2.6.7/unixport//libansi_gcl.a(num_log.o)
                                        0xf48 (size before relaxing)
 .debug_str     0x0000000000005da9       0xa7 /usr/lib/gcl-2.6.7/unixport//libansi_gcl.a(sequence.o)
                                        0xde4 (size before relaxing)
 .debug_str     0x0000000000005e50      0x22c /usr/lib/gcl-2.6.7/unixport//libansi_gcl.a(pathname.o)
                                       0x10da (size before relaxing)
 .debug_str     0x000000000000607c      0x24f /usr/lib/gcl-2.6.7/unixport//libansi_gcl.a(unixsave.o)
                                       0x1026 (size before relaxing)
 .debug_str     0x00000000000062cb      0x222 /usr/lib/gcl-2.6.7/unixport//libansi_gcl.a(num_co.o)
                                        0xedc (size before relaxing)
 .debug_str     0x00000000000064ed      0x1a4 /usr/lib/gcl-2.6.7/unixport//libansi_gcl.a(usig2.o)
                                       0x13a4 (size before relaxing)
 .debug_str     0x0000000000006691       0x7a /usr/lib/gcl-2.6.7/unixport//libansi_gcl.a(num_pred.o)
                                        0xcb8 (size before relaxing)
 .debug_str     0x000000000000670b       0xb1 /usr/lib/gcl-2.6.7/unixport//libansi_gcl.a(let.o)
                                        0xdc3 (size before relaxing)
 .debug_str     0x00000000000067bc      0x25d /usr/lib/gcl-2.6.7/unixport//libansi_gcl.a(bind.o)
                                       0x1085 (size before relaxing)
 .debug_str     0x0000000000006a19       0x46 /usr/lib/gcl-2.6.7/unixport//libansi_gcl.a(mapfun.o)
                                        0xc6c (size before relaxing)
 .debug_str     0x0000000000006a5f      0x21e /usr/lib/gcl-2.6.7/unixport//libansi_gcl.a(typespec.o)
                                       0x17c2 (size before relaxing)
 .debug_str     0x0000000000006c7d      0x26c /usr/lib/gcl-2.6.7/unixport//libansi_gcl.a(funlink.o)
                                       0x1210 (size before relaxing)
 .debug_str     0x0000000000006ee9       0x13 /usr/lib/gcl-2.6.7/unixport//libansi_gcl.a(new_init.o)
                                       0x1aef (size before relaxing)
 .debug_str     0x0000000000006efc       0x99 /usr/lib/gcl-2.6.7/unixport//libansi_gcl.a(utils.o)
                                        0xd01 (size before relaxing)
 .debug_str     0x0000000000006f95      0x6b2 /usr/lib/gcl-2.6.7/unixport//libansi_gcl.a(read.o)
                                       0x18ab (size before relaxing)
 .debug_str     0x0000000000007647       0x77 /usr/lib/gcl-2.6.7/unixport//libansi_gcl.a(prog.o)
                                        0xe5b (size before relaxing)
 .debug_str     0x00000000000076be       0x54 /usr/lib/gcl-2.6.7/unixport//libansi_gcl.a(catch.o)
                                        0xe6f (size before relaxing)
 .debug_str     0x0000000000007712       0x63 /usr/lib/gcl-2.6.7/unixport//libansi_gcl.a(iteration.o)
                                        0xe5c (size before relaxing)
 .debug_str     0x0000000000007775      0x59f /usr/lib/gcl-2.6.7/unixport//libansi_gcl.a(error.o)
                                       0x173f (size before relaxing)
 .debug_str     0x0000000000007d14      0x1b5 /usr/lib/gcl-2.6.7/unixport//libansi_gcl.a(unixtime.o)
                                        0xee0 (size before relaxing)
 .debug_str     0x0000000000007ec9      0x502 /usr/lib/gcl-2.6.7/unixport//libansi_gcl.a(format.o)
                                       0x1600 (size before relaxing)
 .debug_str     0x00000000000083cb      0x217 /usr/lib/gcl-2.6.7/unixport//libansi_gcl.a(big.o)
                                        0xf6d (size before relaxing)
 .debug_str     0x00000000000085e2      0x1a6 /usr/lib/gcl-2.6.7/unixport//libansi_gcl.a(hash.o)
                                        0xf24 (size before relaxing)
 .debug_str     0x0000000000008788       0xe1 /usr/lib/gcl-2.6.7/unixport//libansi_gcl.a(num_comp.o)
                                        0xd19 (size before relaxing)
 .debug_str     0x0000000000008869      0x19a /usr/lib/gcl-2.6.7/unixport//libansi_gcl.a(gmp_wrappers.o)
                                        0xca7 (size before relaxing)
 .debug_str     0x0000000000008a03       0x34 /usr/lib/gcl-2.6.7/unixport//libansi_gcl.a(unixfasl.o)
                                        0xb4a (size before relaxing)
 .debug_str     0x0000000000008a37       0x80 /usr/lib/gcl-2.6.7/unixport//libansi_gcl.a(reference.o)
                                        0xd0d (size before relaxing)
 .debug_str     0x0000000000008ab7      0x55f /usr/lib/gcl-2.6.7/unixport//libansi_gcl.a(fat_string.o)
                                       0x1808 (size before relaxing)
 .debug_str     0x0000000000009016      0x22f /usr/lib/gcl-2.6.7/unixport//libansi_gcl.a(character.o)
                                        0xf62 (size before relaxing)
 .debug_str     0x0000000000009245      0x4ce /usr/lib/gcl-2.6.7/unixport//libansi_gcl.a(alloc.o)
                                       0x16b5 (size before relaxing)
 .debug_str     0x0000000000009713      0x2d8 /usr/lib/gcl-2.6.7/unixport//libansi_gcl.a(regexpr.o)
                                       0x112c (size before relaxing)
 .debug_str     0x00000000000099eb       0x88 /usr/lib/gcl-2.6.7/unixport//libansi_gcl.a(usig.o)
                                        0xda8 (size before relaxing)
 .debug_str     0x0000000000009a73      0x529 /usr/lib/gcl-2.6.7/unixport//libansi_gcl.a(gbc.o)
                                       0x1a17 (size before relaxing)
 .debug_str     0x0000000000009f9c      0x1aa /usr/lib/gcl-2.6.7/unixport//libansi_gcl.a(cfun.o)
                                        0xf4f (size before relaxing)
 .debug_str     0x000000000000a146       0x59 /usr/lib/gcl-2.6.7/unixport//libansi_gcl.a(nfunlink.o)
                                        0xd84 (size before relaxing)
 .debug_str     0x000000000000a19f       0x67 /usr/lib/gcl-2.6.7/unixport//libansi_gcl.a(backq.o)
                                        0xdb4 (size before relaxing)
 .debug_str     0x000000000000a206       0x1d /usr/lib/gcl-2.6.7/unixport//libansi_gcl.a(bds.o)
                                        0xadc (size before relaxing)
 .debug_str     0x000000000000a223      0x110 /usr/lib/gcl-2.6.7/unixport//libansi_gcl.a(run_process.o)
                                        0xf7a (size before relaxing)
 .debug_str     0x000000000000a333      0x11e /usr/lib/gcl-2.6.7/unixport//libansi_gcl.a(assignment.o)
                                        0xf89 (size before relaxing)
 .debug_str     0x000000000000a451       0x5d /usr/lib/gcl-2.6.7/unixport//libansi_gcl.a(conditional.o)
                                        0xc85 (size before relaxing)
 .debug_str     0x000000000000a4ae       0x35 /usr/lib/gcl-2.6.7/unixport//libansi_gcl.a(block.o)
                                        0xd97 (size before relaxing)
 .debug_str     0x000000000000a4e3       0x27 /usr/lib/gcl-2.6.7/unixport//libansi_gcl.a(frame.o)
                                        0xc6c (size before relaxing)
 .debug_str     0x000000000000a50a       0xff /usr/lib/gcl-2.6.7/unixport//libansi_gcl.a(num_arith.o)
                                        0xd6b (size before relaxing)
 .debug_str     0x000000000000a609      0x57c /usr/lib/gcl-2.6.7/unixport//libansi_gcl.a(sockets.o)
                                       0x14b4 (size before relaxing)
 .debug_str     0x000000000000ab85      0x2d3 /usr/lib/gcl-2.6.7/unixport//libansi_gcl.a(gcl_numlib.o)
                                        0xf8d (size before relaxing)
 .debug_str     0x000000000000ae58      0x19e /usr/lib/gcl-2.6.7/unixport//libansi_gcl.a(gcl_destructuring_bind.o)
                                       0x105e (size before relaxing)
 .debug_str     0x000000000000aff6      0x108 /usr/lib/gcl-2.6.7/unixport//libansi_gcl.a(gcl_listlib.o)
                                       0x10bb (size before relaxing)
 .debug_str     0x000000000000b0fe       0x2a /usr/lib/gcl-2.6.7/unixport//libansi_gcl.a(gcl_module.o)
                                        0xbdc (size before relaxing)
 .debug_str     0x000000000000b128      0xafc /usr/lib/gcl-2.6.7/unixport//libansi_gcl.a(gcl_top.o)
                                       0x1ca9 (size before relaxing)
 .debug_str     0x000000000000bc24      0x5bc /usr/lib/gcl-2.6.7/unixport//libansi_gcl.a(gcl_predlib.o)
                                       0x17d7 (size before relaxing)
 .debug_str     0x000000000000c1e0      0x146 /usr/lib/gcl-2.6.7/unixport//libansi_gcl.a(gcl_iolib.o)
                                       0x1009 (size before relaxing)
 .debug_str     0x000000000000c326       0x5f /usr/lib/gcl-2.6.7/unixport//libansi_gcl.a(gcl_serror.o)
                                        0xe67 (size before relaxing)
 .debug_str     0x000000000000c385      0x412 /usr/lib/gcl-2.6.7/unixport//libansi_gcl.a(gcl_defstruct.o)
                                       0x1872 (size before relaxing)
 .debug_str     0x000000000000c797      0x93a /usr/lib/gcl-2.6.7/unixport//libansi_gcl.a(gcl_debug.o)
                                       0x200b (size before relaxing)
 .debug_str     0x000000000000d0d1       0xc8 /usr/lib/gcl-2.6.7/unixport//libansi_gcl.a(gcl_arraylib.o)
                                       0x1174 (size before relaxing)
 .debug_str     0x000000000000d199       0xa7 /usr/lib/gcl-2.6.7/unixport//libansi_gcl.a(gcl_packlib.o)
                                       0x10d8 (size before relaxing)
 .debug_str     0x000000000000d240       0x30 /usr/lib/gcl-2.6.7/unixport//libansi_gcl.a(gcl_seq.o)
                                        0xdd8 (size before relaxing)
 .debug_str     0x000000000000d270       0x6f /usr/lib/gcl-2.6.7/unixport//libansi_gcl.a(gcl_defpackage.o)
                                       0x10a0 (size before relaxing)
 .debug_str     0x000000000000d2df      0x29e /usr/lib/gcl-2.6.7/unixport//libansi_gcl.a(gcl_info.o)
                                       0x1906 (size before relaxing)
 .debug_str     0x000000000000d57d       0x63 /usr/lib/gcl-2.6.7/unixport//libansi_gcl.a(gcl_trace.o)
                                       0x1139 (size before relaxing)
 .debug_str     0x000000000000d5e0      0x6a4 /usr/lib/gcl-2.6.7/unixport//libansi_gcl.a(gcl_sloop.o)
                                       0x22dd (size before relaxing)
 .debug_str     0x000000000000dc84       0x6b /usr/lib/gcl-2.6.7/unixport//libansi_gcl.a(gcl_mislib.o)
                                        0xdaa (size before relaxing)
 .debug_str     0x000000000000dcef       0xa2 /usr/lib/gcl-2.6.7/unixport//libansi_gcl.a(gcl_defmacro.o)
                                        0xf50 (size before relaxing)
 .debug_str     0x000000000000dd91       0x25 /usr/lib/gcl-2.6.7/unixport//libansi_gcl.a(gcl_evalmacros.o)
                                        0xecc (size before relaxing)
 .debug_str     0x000000000000ddb6      0x550 /usr/lib/gcl-2.6.7/unixport//libansi_gcl.a(gcl_seqlib.o)
                                       0x2366 (size before relaxing)
 .debug_str     0x000000000000e306      0xeae /usr/lib/gcl-2.6.7/unixport//libansi_gcl.a(gcl_loop.o)
                                       0x2dbe (size before relaxing)
 .debug_str     0x000000000000f1b4      0x1fb /usr/lib/gcl-2.6.7/unixport//libansi_gcl.a(gcl_describe.o)
                                       0x17ad (size before relaxing)
 .debug_str     0x000000000000f3af       0x7f /usr/lib/gcl-2.6.7/unixport//libansi_gcl.a(gcl_setf.o)
                                       0x1536 (size before relaxing)
 .debug_str     0x000000000000f42e       0x5e /usr/lib/gcl-2.6.7/unixport//libansi_gcl.a(gcl_make_defpackage.o)
                                        0xc0a (size before relaxing)
 .debug_str     0x000000000000f48c       0x3f /usr/lib/gcl-2.6.7/unixport//libansi_gcl.a(gcl_assert.o)
                                        0xdee (size before relaxing)
 .debug_str     0x000000000000f4cb      0xa04 /usr/lib/gcl-2.6.7/unixport//libansi_gcl.a(gcl_defentry_events.o)
                                       0x1437 (size before relaxing)
 .debug_str     0x000000000000fecf       0x23 /usr/lib/gcl-2.6.7/unixport//libansi_gcl.a(gcl_keysymdef.o)
                                        0x284 (size before relaxing)
 .debug_str     0x000000000000fef2       0x27 /usr/lib/gcl-2.6.7/unixport//libansi_gcl.a(gcl_XStruct_l_3.o)
                                        0xf9d (size before relaxing)
 .debug_str     0x000000000000ff19       0x72 /usr/lib/gcl-2.6.7/unixport//libansi_gcl.a(gcl_tohtml.o)
                                       0x1253 (size before relaxing)
 .debug_str     0x000000000000ff8b     0x2132 /usr/lib/gcl-2.6.7/unixport//libansi_gcl.a(Events.o)
                                       0x3f37 (size before relaxing)
 .debug_str     0x00000000000120bd       0x1b /usr/lib/gcl-2.6.7/unixport//libansi_gcl.a(gcl_Xutil.o)
                                        0xa5d (size before relaxing)
 .debug_str     0x00000000000120d8     0x1346 /usr/lib/gcl-2.6.7/unixport//libansi_gcl.a(XStruct-4.o)
                                       0x2853 (size before relaxing)
 .debug_str     0x000000000001341e       0x19 /usr/lib/gcl-2.6.7/unixport//libansi_gcl.a(gcl_Xlib.o)
                                        0xebb (size before relaxing)
 .debug_str     0x0000000000013437       0x1f /usr/lib/gcl-2.6.7/unixport//libansi_gcl.a(gcl_Xstruct.o)
                                        0xccf (size before relaxing)
 .debug_str     0x0000000000013456     0x1b50 /usr/lib/gcl-2.6.7/unixport//libansi_gcl.a(XStruct-2.o)
                                       0x2fc5 (size before relaxing)
 .debug_str     0x0000000000014fa6       0x1b /usr/lib/gcl-2.6.7/unixport//libansi_gcl.a(gcl_XAtom.o)
                                        0x27c (size before relaxing)
 .debug_str     0x0000000000014fc1       0x17 /usr/lib/gcl-2.6.7/unixport//libansi_gcl.a(gcl_X10.o)
                                        0x278 (size before relaxing)
 .debug_str     0x0000000000014fd8       0xa4 /usr/lib/gcl-2.6.7/unixport//libansi_gcl.a(Xutil-2.o)
                                        0x140 (size before relaxing)
 .debug_str     0x000000000001507c       0x90 /usr/lib/gcl-2.6.7/unixport//libansi_gcl.a(gcl_Xinit.o)
                                        0xb70 (size before relaxing)
 .debug_str     0x000000000001510c       0x31 /usr/lib/gcl-2.6.7/unixport//libansi_gcl.a(gcl_index.o)
                                        0xbcc (size before relaxing)
 .debug_str     0x000000000001513d     0x2b87 /usr/lib/gcl-2.6.7/unixport//libansi_gcl.a(gcl_dwtrans.o)
                                       0x500a (size before relaxing)
 .debug_str     0x0000000000017cc4       0x70 /usr/lib/gcl-2.6.7/unixport//libansi_gcl.a(gcl_general.o)
                                        0xb62 (size before relaxing)
 .debug_str     0x0000000000017d34       0x13 /usr/lib/gcl-2.6.7/unixport//libansi_gcl.a(gcl_X.o)
                                        0x274 (size before relaxing)
 .debug_str     0x0000000000017d47      0x114 /usr/lib/gcl-2.6.7/unixport//libansi_gcl.a(gcl_cmplet.o)
                                       0x1287 (size before relaxing)
 .debug_str     0x0000000000017e5b       0x3e /usr/lib/gcl-2.6.7/unixport//libansi_gcl.a(gcl_cmpflet.o)
                                       0x117e (size before relaxing)
 .debug_str     0x0000000000017e99      0x25c /usr/lib/gcl-2.6.7/unixport//libansi_gcl.a(gcl_cmpfun.o)
                                       0x1fc9 (size before relaxing)
 .debug_str     0x00000000000180f5       0x25 /usr/lib/gcl-2.6.7/unixport//libansi_gcl.a(gcl_cmpspecial.o)
                                        0xe75 (size before relaxing)
 .debug_str     0x000000000001811a       0x2c /usr/lib/gcl-2.6.7/unixport//libansi_gcl.a(gcl_cmputil.o)
                                        0xe9a (size before relaxing)
 .debug_str     0x0000000000018146       0x73 /usr/lib/gcl-2.6.7/unixport//libansi_gcl.a(gcl_cmptag.o)
                                       0x12fd (size before relaxing)
 .debug_str     0x00000000000181b9       0x72 /usr/lib/gcl-2.6.7/unixport//libansi_gcl.a(gcl_cmpblock.o)
                                        0xe9a (size before relaxing)
 .debug_str     0x000000000001822b       0x35 /usr/lib/gcl-2.6.7/unixport//libansi_gcl.a(gcl_cmpwt.o)
                                        0xea3 (size before relaxing)
 .debug_str     0x0000000000018260      0x1bd /usr/lib/gcl-2.6.7/unixport//libansi_gcl.a(gcl_cmplam.o)
                                       0x1dbe (size before relaxing)
 .debug_str     0x000000000001841d       0x1b /usr/lib/gcl-2.6.7/unixport//libansi_gcl.a(gcl_cmpvs.o)
                                        0xc2b (size before relaxing)
 .debug_str     0x0000000000018438       0x60 /usr/lib/gcl-2.6.7/unixport//libansi_gcl.a(gcl_cmpenv.o)
                                       0x18a3 (size before relaxing)
 .debug_str     0x0000000000018498       0x43 /usr/lib/gcl-2.6.7/unixport//libansi_gcl.a(gcl_cmpcatch.o)
                                        0xbeb (size before relaxing)
 .debug_str     0x00000000000184db       0x2e /usr/lib/gcl-2.6.7/unixport//libansi_gcl.a(gcl_cmpmulti.o)
                                       0x1095 (size before relaxing)
 .debug_str     0x0000000000018509       0x90 /usr/lib/gcl-2.6.7/unixport//libansi_gcl.a(gcl_cmpmain.o)
                                       0x174f (size before relaxing)
 .debug_str     0x0000000000018599      0x913 /usr/lib/gcl-2.6.7/unixport//libansi_gcl.a(gcl_cmptop.o)
                                       0x30c6 (size before relaxing)
 .debug_str     0x0000000000018eac       0x1f /usr/lib/gcl-2.6.7/unixport//libansi_gcl.a(gcl_cmptype.o)
                                        0xe81 (size before relaxing)
 .debug_str     0x0000000000018ecb       0x4f /usr/lib/gcl-2.6.7/unixport//libansi_gcl.a(gcl_cmpvar.o)
                                       0x1614 (size before relaxing)
 .debug_str     0x0000000000018f1a       0x32 /usr/lib/gcl-2.6.7/unixport//libansi_gcl.a(gcl_cmpif.o)
                                       0x1340 (size before relaxing)
 .debug_str     0x0000000000018f4c       0x30 /usr/lib/gcl-2.6.7/unixport//libansi_gcl.a(gcl_cmpbind.o)
                                        0xd98 (size before relaxing)
 .debug_str     0x0000000000018f7c       0x5e /usr/lib/gcl-2.6.7/unixport//libansi_gcl.a(gcl_cmploc.o)
                                        0xe9c (size before relaxing)
 .debug_str     0x0000000000018fda       0x21 /usr/lib/gcl-2.6.7/unixport//libansi_gcl.a(gcl_cmplabel.o)
                                        0xdeb (size before relaxing)
 .debug_str     0x0000000000018ffb       0x1d /usr/lib/gcl-2.6.7/unixport//libansi_gcl.a(gcl_cmpmap.o)
                                        0xfb0 (size before relaxing)
 .debug_str     0x0000000000019018       0x45 /usr/lib/gcl-2.6.7/unixport//libansi_gcl.a(gcl_cmpinline.o)
                                       0x1a89 (size before relaxing)
 .debug_str     0x000000000001905d       0xbd /usr/lib/gcl-2.6.7/unixport//libansi_gcl.a(gcl_cmpeval.o)
                                       0x1ab7 (size before relaxing)
 .debug_str     0x000000000001911a       0x5a /usr/lib/gcl-2.6.7/unixport//libansi_gcl.a(gcl_cmpcall.o)
                                       0x173d (size before relaxing)
 .debug_str     0x0000000000019174       0x6e /usr/lib/gcl-2.6.7/unixport//libansi_gcl.a(gcl_pcl_gazonk5.o)
                                        0xc2c (size before relaxing)
 .debug_str     0x00000000000191e2      0xf9f /usr/lib/gcl-2.6.7/unixport//libansi_gcl.a(gcl_pcl_precom2.o)
                                       0x38d8 (size before relaxing)
 .debug_str     0x000000000001a181       0xcb /usr/lib/gcl-2.6.7/unixport//libansi_gcl.a(gcl_pcl_macros.o)
                                       0x16b4 (size before relaxing)
 .debug_str     0x000000000001a24c      0x38b /usr/lib/gcl-2.6.7/unixport//libansi_gcl.a(gcl_pcl_fast_init.o)
                                       0x29be (size before relaxing)
 .debug_str     0x000000000001a5d7      0x16f /usr/lib/gcl-2.6.7/unixport//libansi_gcl.a(gcl_pcl_env.o)
                                       0x141a (size before relaxing)
 .debug_str     0x000000000001a746       0x6b /usr/lib/gcl-2.6.7/unixport//libansi_gcl.a(gcl_pcl_walk.o)
                                       0x1fdb (size before relaxing)
 .debug_str     0x000000000001a7b1       0x9a /usr/lib/gcl-2.6.7/unixport//libansi_gcl.a(gcl_pcl_defcombin.o)
                                       0x12c6 (size before relaxing)
 .debug_str     0x000000000001a84b      0xbc8 /usr/lib/gcl-2.6.7/unixport//libansi_gcl.a(gcl_pcl_std_class.o)
                                       0x43b9 (size before relaxing)
 .debug_str     0x000000000001b413       0x61 /usr/lib/gcl-2.6.7/unixport//libansi_gcl.a(gcl_pcl_defclass.o)
                                       0x15af (size before relaxing)
 .debug_str     0x000000000001b474       0x7c /usr/lib/gcl-2.6.7/unixport//libansi_gcl.a(gcl_pcl_fsc.o)
                                        0xb3e (size before relaxing)
 .debug_str     0x000000000001b4f0      0x130 /usr/lib/gcl-2.6.7/unixport//libansi_gcl.a(gcl_pcl_vector.o)
                                       0x2a75 (size before relaxing)
 .debug_str     0x000000000001b620       0x55 /usr/lib/gcl-2.6.7/unixport//libansi_gcl.a(gcl_pcl_precom1.o)
                                        0x291 (size before relaxing)
 .debug_str     0x000000000001b675       0x53 /usr/lib/gcl-2.6.7/unixport//libansi_gcl.a(gcl_pcl_compat.o)
                                        0x28f (size before relaxing)
 .debug_str     0x000000000001b6c8       0x6b /usr/lib/gcl-2.6.7/unixport//libansi_gcl.a(gcl_pcl_cpl.o)
                                       0x11af (size before relaxing)
 .debug_str     0x000000000001b733       0x60 /usr/lib/gcl-2.6.7/unixport//libansi_gcl.a(gcl_pcl_fngen.o)
                                        0xf17 (size before relaxing)
 .debug_str     0x000000000001b793       0xe0 /usr/lib/gcl-2.6.7/unixport//libansi_gcl.a(gcl_pcl_slots_boot.o)
                                       0x166d (size before relaxing)
 .debug_str     0x000000000001b873       0x2f /usr/lib/gcl-2.6.7/unixport//libansi_gcl.a(gcl_pcl_gazonk7.o)
                                        0xc1d (size before relaxing)
 .debug_str     0x000000000001b8a2       0x27 /usr/lib/gcl-2.6.7/unixport//libansi_gcl.a(gcl_pcl_gazonk3.o)
                                        0xc30 (size before relaxing)
 .debug_str     0x000000000001b8c9      0xab2 /usr/lib/gcl-2.6.7/unixport//libansi_gcl.a(gcl_pcl_boot.o)
                                       0x4253 (size before relaxing)
 .debug_str     0x000000000001c37b       0xe2 /usr/lib/gcl-2.6.7/unixport//libansi_gcl.a(gcl_pcl_impl_low.o)
                                       0x128e (size before relaxing)
 .debug_str     0x000000000001c45d       0x91 /usr/lib/gcl-2.6.7/unixport//libansi_gcl.a(gcl_pcl_dlisp.o)
                                       0x135b (size before relaxing)
 .debug_str     0x000000000001c4ee       0xd1 /usr/lib/gcl-2.6.7/unixport//libansi_gcl.a(gcl_pcl_init.o)
                                       0x11b3 (size before relaxing)
 .debug_str     0x000000000001c5bf       0xa4 /usr/lib/gcl-2.6.7/unixport//libansi_gcl.a(gcl_pcl_dlisp2.o)
                                       0x14dd (size before relaxing)
 .debug_str     0x000000000001c663      0x4c8 /usr/lib/gcl-2.6.7/unixport//libansi_gcl.a(gcl_pcl_cache.o)
                                       0x3dc5 (size before relaxing)
 .debug_str     0x000000000001cb2b       0x27 /usr/lib/gcl-2.6.7/unixport//libansi_gcl.a(gcl_pcl_gazonk6.o)
                                        0xc03 (size before relaxing)
 .debug_str     0x000000000001cb52       0x9e /usr/lib/gcl-2.6.7/unixport//libansi_gcl.a(gcl_pcl_defs.o)
                                       0x13dc (size before relaxing)
 .debug_str     0x000000000001cbf0       0x4d /usr/lib/gcl-2.6.7/unixport//libansi_gcl.a(gcl_pcl_low.o)
                                        0xf44 (size before relaxing)
 .debug_str     0x000000000001cc3d       0x78 /usr/lib/gcl-2.6.7/unixport//libansi_gcl.a(gcl_pcl_generic_functions.o)
                                        0xcad (size before relaxing)
 .debug_str     0x000000000001ccb5       0x27 /usr/lib/gcl-2.6.7/unixport//libansi_gcl.a(gcl_pcl_gazonk4.o)
                                        0xc03 (size before relaxing)
 .debug_str     0x000000000001ccdc       0x55 /usr/lib/gcl-2.6.7/unixport//libansi_gcl.a(gcl_pcl_iterate.o)
                                       0x1ae0 (size before relaxing)
 .debug_str     0x000000000001cd31       0x27 /usr/lib/gcl-2.6.7/unixport//libansi_gcl.a(gcl_pcl_gazonk2.o)
                                        0xc3f (size before relaxing)
 .debug_str     0x000000000001cd58      0x3f0 /usr/lib/gcl-2.6.7/unixport//libansi_gcl.a(gcl_pcl_methods.o)
                                       0x446b (size before relaxing)
 .debug_str     0x000000000001d148       0x95 /usr/lib/gcl-2.6.7/unixport//libansi_gcl.a(gcl_pcl_fin.o)
                                        0xd58 (size before relaxing)
 .debug_str     0x000000000001d1dd       0x27 /usr/lib/gcl-2.6.7/unixport//libansi_gcl.a(gcl_pcl_gazonk1.o)
                                        0xbe7 (size before relaxing)
 .debug_str     0x000000000001d204       0x27 /usr/lib/gcl-2.6.7/unixport//libansi_gcl.a(gcl_pcl_gazonk0.o)
                                        0xbe7 (size before relaxing)
 .debug_str     0x000000000001d22b      0x290 /usr/lib/gcl-2.6.7/unixport//libansi_gcl.a(gcl_pcl_dfun.o)
                                       0x4154 (size before relaxing)
 .debug_str     0x000000000001d4bb       0x51 /usr/lib/gcl-2.6.7/unixport//libansi_gcl.a(gcl_pcl_fixup.o)
                                        0xa73 (size before relaxing)
 .debug_str     0x000000000001d50c       0xd3 /usr/lib/gcl-2.6.7/unixport//libansi_gcl.a(gcl_pcl_slots.o)
                                       0x1251 (size before relaxing)
 .debug_str     0x000000000001d5df       0x60 /usr/lib/gcl-2.6.7/unixport//libansi_gcl.a(gcl_pcl_combin.o)
                                       0x1359 (size before relaxing)
 .debug_str     0x000000000001d63f       0x4d /usr/lib/gcl-2.6.7/unixport//libansi_gcl.a(gcl_pcl_pkg.o)
                                        0xaf3 (size before relaxing)
 .debug_str     0x000000000001d68c       0x8c /usr/lib/gcl-2.6.7/unixport//libansi_gcl.a(gcl_pcl_braid.o)
                                       0x1ceb (size before relaxing)
 .debug_str     0x000000000001d718       0x53 /usr/lib/gcl-2.6.7/unixport//libansi_gcl.a(gcl_pcl_ctypes.o)
                                        0xa77 (size before relaxing)
 .debug_str     0x000000000001d76b       0x4c /usr/lib/gcl-2.6.7/unixport//libansi_gcl.a(gcl_clcs_install.o)
                                        0xeb4 (size before relaxing)
 .debug_str     0x000000000001d7b7       0x29 /usr/lib/gcl-2.6.7/unixport//libansi_gcl.a(gcl_clcs_handler.o)
                                        0xfad (size before relaxing)
 .debug_str     0x000000000001d7e0       0x27 /usr/lib/gcl-2.6.7/unixport//libansi_gcl.a(gcl_clcs_macros.o)
                                        0xcd5 (size before relaxing)
 .debug_str     0x000000000001d807       0x41 /usr/lib/gcl-2.6.7/unixport//libansi_gcl.a(gcl_clcs_conditions.o)
                                        0xd5e (size before relaxing)
 .debug_str     0x000000000001d848       0x2b /usr/lib/gcl-2.6.7/unixport//libansi_gcl.a(gcl_clcs_debugger.o)
                                       0x115e (size before relaxing)
 .debug_str     0x000000000001d873       0x31 /usr/lib/gcl-2.6.7/unixport//libansi_gcl.a(gcl_clcs_top_patches.o)
                                        0xfa8 (size before relaxing)
 .debug_str     0x000000000001d8a4       0x80 /usr/lib/gcl-2.6.7/unixport//libansi_gcl.a(gcl_clcs_condition_definitions.o)
                                       0x1ac4 (size before relaxing)
 .debug_str     0x000000000001d924       0x29 /usr/lib/gcl-2.6.7/unixport//libansi_gcl.a(gcl_clcs_restart.o)
                                       0x111d (size before relaxing)
 .debug_str     0x000000000001d94d       0x27 /usr/lib/gcl-2.6.7/unixport//libansi_gcl.a(gcl_clcs_precom.o)
                                        0xcce (size before relaxing)
 .debug_str     0x000000000001d974       0x2b /usr/lib/gcl-2.6.7/unixport//libansi_gcl.a(gcl_clcs_kcl_cond.o)
                                        0xeee (size before relaxing)
 .debug_str     0x000000000001d99f       0xf5 /usr/lib/gcl-2.6.7/unixport//libansi_gcl.a(num_sfun.o)
                                        0xd6d (size before relaxing)
 .debug_str     0x000000000001da94       0x63 /usr/lib/gcl-2.6.7/unixport//libansi_gcl.a(num_rand.o)
                                        0xcb9 (size before relaxing)
 .debug_str     0x000000000001daf7       0x7b /usr/lib/gcl-2.6.7/unixport//libansi_gcl.a(general-c.o)
                                        0x13d (size before relaxing)

.debug_loc      0x0000000000000000   0x1b0eea
 *(.debug_loc)
 .debug_loc     0x0000000000000000       0x58 ./user-init.o
 .debug_loc     0x0000000000000058      0x9ec /usr/lib/gcl-2.6.7/unixport//libansi_gcl.a(main.o)
 .debug_loc     0x0000000000000a44     0x1cfd /usr/lib/gcl-2.6.7/unixport//libansi_gcl.a(package.o)
 .debug_loc     0x0000000000002741      0x4e0 /usr/lib/gcl-2.6.7/unixport//libansi_gcl.a(gcl_readline.o)
 .debug_loc     0x0000000000002c21     0x1265 /usr/lib/gcl-2.6.7/unixport//libansi_gcl.a(symbol.o)
 .debug_loc     0x0000000000003e86      0x48f /usr/lib/gcl-2.6.7/unixport//libansi_gcl.a(makefun.o)
 .debug_loc     0x0000000000004315     0x12e8 /usr/lib/gcl-2.6.7/unixport//libansi_gcl.a(string.o)
 .debug_loc     0x00000000000055fd     0x2550 /usr/lib/gcl-2.6.7/unixport//libansi_gcl.a(print.o)
 .debug_loc     0x0000000000007b4d      0x5a3 /usr/lib/gcl-2.6.7/unixport//libansi_gcl.a(macros.o)
 .debug_loc     0x00000000000080f0      0x361 /usr/lib/gcl-2.6.7/unixport//libansi_gcl.a(multival.o)
 .debug_loc     0x0000000000008451     0x27ca /usr/lib/gcl-2.6.7/unixport//libansi_gcl.a(file.o)
 .debug_loc     0x000000000000ac1b      0x3b3 /usr/lib/gcl-2.6.7/unixport//libansi_gcl.a(sys_ansi_gcl.o)
 .debug_loc     0x000000000000afce     0x1243 /usr/lib/gcl-2.6.7/unixport//libansi_gcl.a(sfasl.o)
 .debug_loc     0x000000000000c211     0x22d7 /usr/lib/gcl-2.6.7/unixport//libansi_gcl.a(eval.o)
 .debug_loc     0x000000000000e4e8     0x251c /usr/lib/gcl-2.6.7/unixport//libansi_gcl.a(array.o)
 .debug_loc     0x0000000000010a04      0x2e4 /usr/lib/gcl-2.6.7/unixport//libansi_gcl.a(lex.o)
 .debug_loc     0x0000000000010ce8      0x896 /usr/lib/gcl-2.6.7/unixport//libansi_gcl.a(earith.o)
 .debug_loc     0x000000000001157e      0x51d /usr/lib/gcl-2.6.7/unixport//libansi_gcl.a(toplevel.o)
 .debug_loc     0x0000000000011a9b      0xb39 /usr/lib/gcl-2.6.7/unixport//libansi_gcl.a(nsocket.o)
 .debug_loc     0x00000000000125d4     0x3440 /usr/lib/gcl-2.6.7/unixport//libansi_gcl.a(list.o)
 .debug_loc     0x0000000000015a14      0xbd1 /usr/lib/gcl-2.6.7/unixport//libansi_gcl.a(structure.o)
 .debug_loc     0x00000000000165e5      0x898 /usr/lib/gcl-2.6.7/unixport//libansi_gcl.a(unixfsys.o)
 .debug_loc     0x0000000000016e7d      0x2b5 /usr/lib/gcl-2.6.7/unixport//libansi_gcl.a(unixsys.o)
 .debug_loc     0x0000000000017132     0x1e2e /usr/lib/gcl-2.6.7/unixport//libansi_gcl.a(predicate.o)
 .debug_loc     0x0000000000018f60      0x5e4 /usr/lib/gcl-2.6.7/unixport//libansi_gcl.a(number.o)
 .debug_loc     0x0000000000019544      0xbeb /usr/lib/gcl-2.6.7/unixport//libansi_gcl.a(cmpaux.o)
 .debug_loc     0x000000000001a12f     0x138e /usr/lib/gcl-2.6.7/unixport//libansi_gcl.a(num_log.o)
 .debug_loc     0x000000000001b4bd      0xde0 /usr/lib/gcl-2.6.7/unixport//libansi_gcl.a(sequence.o)
 .debug_loc     0x000000000001c29d      0xdb9 /usr/lib/gcl-2.6.7/unixport//libansi_gcl.a(pathname.o)
 .debug_loc     0x000000000001d056      0x4fc /usr/lib/gcl-2.6.7/unixport//libansi_gcl.a(unixsave.o)
 .debug_loc     0x000000000001d552     0x131c /usr/lib/gcl-2.6.7/unixport//libansi_gcl.a(num_co.o)
 .debug_loc     0x000000000001e86e      0x3ee /usr/lib/gcl-2.6.7/unixport//libansi_gcl.a(usig2.o)
 .debug_loc     0x000000000001ec5c      0x44d /usr/lib/gcl-2.6.7/unixport//libansi_gcl.a(num_pred.o)
 .debug_loc     0x000000000001f0a9      0x8af /usr/lib/gcl-2.6.7/unixport//libansi_gcl.a(let.o)
 .debug_loc     0x000000000001f958     0x22ff /usr/lib/gcl-2.6.7/unixport//libansi_gcl.a(bind.o)
 .debug_loc     0x0000000000021c57      0x721 /usr/lib/gcl-2.6.7/unixport//libansi_gcl.a(mapfun.o)
 .debug_loc     0x0000000000022378      0x901 /usr/lib/gcl-2.6.7/unixport//libansi_gcl.a(typespec.o)
 .debug_loc     0x0000000000022c79     0x2774 /usr/lib/gcl-2.6.7/unixport//libansi_gcl.a(funlink.o)
 .debug_loc     0x00000000000253ed       0x2c /usr/lib/gcl-2.6.7/unixport//libansi_gcl.a(new_init.o)
 .debug_loc     0x0000000000025419      0x449 /usr/lib/gcl-2.6.7/unixport//libansi_gcl.a(utils.o)
 .debug_loc     0x0000000000025862     0x3136 /usr/lib/gcl-2.6.7/unixport//libansi_gcl.a(read.o)
 .debug_loc     0x0000000000028998      0x870 /usr/lib/gcl-2.6.7/unixport//libansi_gcl.a(prog.o)
 .debug_loc     0x0000000000029208      0x495 /usr/lib/gcl-2.6.7/unixport//libansi_gcl.a(catch.o)
 .debug_loc     0x000000000002969d      0xe1d /usr/lib/gcl-2.6.7/unixport//libansi_gcl.a(iteration.o)
 .debug_loc     0x000000000002a4ba     0x1c9d /usr/lib/gcl-2.6.7/unixport//libansi_gcl.a(error.o)
 .debug_loc     0x000000000002c157      0x360 /usr/lib/gcl-2.6.7/unixport//libansi_gcl.a(unixtime.o)
 .debug_loc     0x000000000002c4b7     0x463e /usr/lib/gcl-2.6.7/unixport//libansi_gcl.a(format.o)
 .debug_loc     0x0000000000030af5      0xd3f /usr/lib/gcl-2.6.7/unixport//libansi_gcl.a(big.o)
 .debug_loc     0x0000000000031834      0xd60 /usr/lib/gcl-2.6.7/unixport//libansi_gcl.a(hash.o)
 .debug_loc     0x0000000000032594      0x4d8 /usr/lib/gcl-2.6.7/unixport//libansi_gcl.a(num_comp.o)
 .debug_loc     0x0000000000032a6c     0x1b47 /usr/lib/gcl-2.6.7/unixport//libansi_gcl.a(gmp_wrappers.o)
 .debug_loc     0x00000000000345b3       0x91 /usr/lib/gcl-2.6.7/unixport//libansi_gcl.a(unixfasl.o)
 .debug_loc     0x0000000000034644      0x429 /usr/lib/gcl-2.6.7/unixport//libansi_gcl.a(reference.o)
 .debug_loc     0x0000000000034a6d     0x21c6 /usr/lib/gcl-2.6.7/unixport//libansi_gcl.a(fat_string.o)
 .debug_loc     0x0000000000036c33     0x10cd /usr/lib/gcl-2.6.7/unixport//libansi_gcl.a(character.o)
 .debug_loc     0x0000000000037d00     0x1c67 /usr/lib/gcl-2.6.7/unixport//libansi_gcl.a(alloc.o)
 .debug_loc     0x0000000000039967     0x1878 /usr/lib/gcl-2.6.7/unixport//libansi_gcl.a(regexpr.o)
 .debug_loc     0x000000000003b1df      0x2cc /usr/lib/gcl-2.6.7/unixport//libansi_gcl.a(usig.o)
 .debug_loc     0x000000000003b4ab     0x4906 /usr/lib/gcl-2.6.7/unixport//libansi_gcl.a(gbc.o)
 .debug_loc     0x000000000003fdb1      0xc50 /usr/lib/gcl-2.6.7/unixport//libansi_gcl.a(cfun.o)
 .debug_loc     0x0000000000040a01      0x583 /usr/lib/gcl-2.6.7/unixport//libansi_gcl.a(nfunlink.o)
 .debug_loc     0x0000000000040f84      0x501 /usr/lib/gcl-2.6.7/unixport//libansi_gcl.a(backq.o)
 .debug_loc     0x0000000000041485       0x57 /usr/lib/gcl-2.6.7/unixport//libansi_gcl.a(bds.o)
 .debug_loc     0x00000000000414dc      0x508 /usr/lib/gcl-2.6.7/unixport//libansi_gcl.a(run_process.o)
 .debug_loc     0x00000000000419e4     0x11c9 /usr/lib/gcl-2.6.7/unixport//libansi_gcl.a(assignment.o)
 .debug_loc     0x0000000000042bad      0x4b0 /usr/lib/gcl-2.6.7/unixport//libansi_gcl.a(conditional.o)
 .debug_loc     0x000000000004305d      0x3db /usr/lib/gcl-2.6.7/unixport//libansi_gcl.a(block.o)
 .debug_loc     0x0000000000043438      0x18c /usr/lib/gcl-2.6.7/unixport//libansi_gcl.a(frame.o)
 .debug_loc     0x00000000000435c4     0x13d6 /usr/lib/gcl-2.6.7/unixport//libansi_gcl.a(num_arith.o)
 .debug_loc     0x000000000004499a     0x1364 /usr/lib/gcl-2.6.7/unixport//libansi_gcl.a(sockets.o)
 .debug_loc     0x0000000000045cfe     0x1844 /usr/lib/gcl-2.6.7/unixport//libansi_gcl.a(gcl_numlib.o)
 .debug_loc     0x0000000000047542     0x126e /usr/lib/gcl-2.6.7/unixport//libansi_gcl.a(gcl_destructuring_bind.o)
 .debug_loc     0x00000000000487b0     0x19fd /usr/lib/gcl-2.6.7/unixport//libansi_gcl.a(gcl_listlib.o)
 .debug_loc     0x000000000004a1ad      0x334 /usr/lib/gcl-2.6.7/unixport//libansi_gcl.a(gcl_module.o)
 .debug_loc     0x000000000004a4e1     0x4722 /usr/lib/gcl-2.6.7/unixport//libansi_gcl.a(gcl_top.o)
 .debug_loc     0x000000000004ec03     0x450f /usr/lib/gcl-2.6.7/unixport//libansi_gcl.a(gcl_predlib.o)
 .debug_loc     0x0000000000053112     0x1aa6 /usr/lib/gcl-2.6.7/unixport//libansi_gcl.a(gcl_iolib.o)
 .debug_loc     0x0000000000054bb8     0x17d8 /usr/lib/gcl-2.6.7/unixport//libansi_gcl.a(gcl_serror.o)
 .debug_loc     0x0000000000056390     0x3dfe /usr/lib/gcl-2.6.7/unixport//libansi_gcl.a(gcl_defstruct.o)
 .debug_loc     0x000000000005a18e     0x5504 /usr/lib/gcl-2.6.7/unixport//libansi_gcl.a(gcl_debug.o)
 .debug_loc     0x000000000005f692     0x228e /usr/lib/gcl-2.6.7/unixport//libansi_gcl.a(gcl_arraylib.o)
 .debug_loc     0x0000000000061920     0x189a /usr/lib/gcl-2.6.7/unixport//libansi_gcl.a(gcl_packlib.o)
 .debug_loc     0x00000000000631ba     0x14b0 /usr/lib/gcl-2.6.7/unixport//libansi_gcl.a(gcl_seq.o)
 .debug_loc     0x000000000006466a     0x16f3 /usr/lib/gcl-2.6.7/unixport//libansi_gcl.a(gcl_defpackage.o)
 .debug_loc     0x0000000000065d5d     0x2fc1 /usr/lib/gcl-2.6.7/unixport//libansi_gcl.a(gcl_info.o)
 .debug_loc     0x0000000000068d1e     0x16a0 /usr/lib/gcl-2.6.7/unixport//libansi_gcl.a(gcl_trace.o)
 .debug_loc     0x000000000006a3be     0x58e4 /usr/lib/gcl-2.6.7/unixport//libansi_gcl.a(gcl_sloop.o)
 .debug_loc     0x000000000006fca2      0xd9b /usr/lib/gcl-2.6.7/unixport//libansi_gcl.a(gcl_mislib.o)
 .debug_loc     0x0000000000070a3d     0x1475 /usr/lib/gcl-2.6.7/unixport//libansi_gcl.a(gcl_defmacro.o)
 .debug_loc     0x0000000000071eb2     0x27d9 /usr/lib/gcl-2.6.7/unixport//libansi_gcl.a(gcl_evalmacros.o)
 .debug_loc     0x000000000007468b     0x5928 /usr/lib/gcl-2.6.7/unixport//libansi_gcl.a(gcl_seqlib.o)
 .debug_loc     0x0000000000079fb3     0x8896 /usr/lib/gcl-2.6.7/unixport//libansi_gcl.a(gcl_loop.o)
 .debug_loc     0x0000000000082849     0x266a /usr/lib/gcl-2.6.7/unixport//libansi_gcl.a(gcl_describe.o)
 .debug_loc     0x0000000000084eb3     0x3f84 /usr/lib/gcl-2.6.7/unixport//libansi_gcl.a(gcl_setf.o)
 .debug_loc     0x0000000000088e37      0x6a7 /usr/lib/gcl-2.6.7/unixport//libansi_gcl.a(gcl_make_defpackage.o)
 .debug_loc     0x00000000000894de     0x1e25 /usr/lib/gcl-2.6.7/unixport//libansi_gcl.a(gcl_assert.o)
 .debug_loc     0x000000000008b303     0xc4ca /usr/lib/gcl-2.6.7/unixport//libansi_gcl.a(gcl_defentry_events.o)
 .debug_loc     0x00000000000977cd       0x2c /usr/lib/gcl-2.6.7/unixport//libansi_gcl.a(gcl_keysymdef.o)
 .debug_loc     0x00000000000977f9     0x77c0 /usr/lib/gcl-2.6.7/unixport//libansi_gcl.a(gcl_XStruct_l_3.o)
 .debug_loc     0x000000000009efb9     0x14be /usr/lib/gcl-2.6.7/unixport//libansi_gcl.a(gcl_tohtml.o)
 .debug_loc     0x00000000000a0477     0x669c /usr/lib/gcl-2.6.7/unixport//libansi_gcl.a(Events.o)
 .debug_loc     0x00000000000a6b13     0x1958 /usr/lib/gcl-2.6.7/unixport//libansi_gcl.a(gcl_Xutil.o)
 .debug_loc     0x00000000000a846b     0x3e64 /usr/lib/gcl-2.6.7/unixport//libansi_gcl.a(XStruct-4.o)
 .debug_loc     0x00000000000ac2cf     0x687c /usr/lib/gcl-2.6.7/unixport//libansi_gcl.a(gcl_Xlib.o)
 .debug_loc     0x00000000000b2b4b     0x490a /usr/lib/gcl-2.6.7/unixport//libansi_gcl.a(gcl_Xstruct.o)
 .debug_loc     0x00000000000b7455     0x25d0 /usr/lib/gcl-2.6.7/unixport//libansi_gcl.a(XStruct-2.o)
 .debug_loc     0x00000000000b9a25       0x2c /usr/lib/gcl-2.6.7/unixport//libansi_gcl.a(gcl_XAtom.o)
 .debug_loc     0x00000000000b9a51       0x2c /usr/lib/gcl-2.6.7/unixport//libansi_gcl.a(gcl_X10.o)
 .debug_loc     0x00000000000b9a7d      0x160 /usr/lib/gcl-2.6.7/unixport//libansi_gcl.a(Xutil-2.o)
 .debug_loc     0x00000000000b9bdd      0x3dd /usr/lib/gcl-2.6.7/unixport//libansi_gcl.a(gcl_Xinit.o)
 .debug_loc     0x00000000000b9fba      0x3e7 /usr/lib/gcl-2.6.7/unixport//libansi_gcl.a(gcl_index.o)
 .debug_loc     0x00000000000ba3a1    0x10bb8 /usr/lib/gcl-2.6.7/unixport//libansi_gcl.a(gcl_dwtrans.o)
 .debug_loc     0x00000000000caf59      0x66f /usr/lib/gcl-2.6.7/unixport//libansi_gcl.a(gcl_general.o)
 .debug_loc     0x00000000000cb5c8       0x2c /usr/lib/gcl-2.6.7/unixport//libansi_gcl.a(gcl_X.o)
 .debug_loc     0x00000000000cb5f4     0x1c7e /usr/lib/gcl-2.6.7/unixport//libansi_gcl.a(gcl_cmplet.o)
 .debug_loc     0x00000000000cd272     0x1893 /usr/lib/gcl-2.6.7/unixport//libansi_gcl.a(gcl_cmpflet.o)
 .debug_loc     0x00000000000ceb05     0x514c /usr/lib/gcl-2.6.7/unixport//libansi_gcl.a(gcl_cmpfun.o)
 .debug_loc     0x00000000000d3c51      0xf0c /usr/lib/gcl-2.6.7/unixport//libansi_gcl.a(gcl_cmpspecial.o)
 .debug_loc     0x00000000000d4b5d     0x151d /usr/lib/gcl-2.6.7/unixport//libansi_gcl.a(gcl_cmputil.o)
 .debug_loc     0x00000000000d607a     0x1c2c /usr/lib/gcl-2.6.7/unixport//libansi_gcl.a(gcl_cmptag.o)
 .debug_loc     0x00000000000d7ca6      0xdda /usr/lib/gcl-2.6.7/unixport//libansi_gcl.a(gcl_cmpblock.o)
 .debug_loc     0x00000000000d8a80     0x10d9 /usr/lib/gcl-2.6.7/unixport//libansi_gcl.a(gcl_cmpwt.o)
 .debug_loc     0x00000000000d9b59     0x42c7 /usr/lib/gcl-2.6.7/unixport//libansi_gcl.a(gcl_cmplam.o)
 .debug_loc     0x00000000000dde20      0x39e /usr/lib/gcl-2.6.7/unixport//libansi_gcl.a(gcl_cmpvs.o)
 .debug_loc     0x00000000000de1be     0x3b0f /usr/lib/gcl-2.6.7/unixport//libansi_gcl.a(gcl_cmpenv.o)
 .debug_loc     0x00000000000e1ccd      0x769 /usr/lib/gcl-2.6.7/unixport//libansi_gcl.a(gcl_cmpcatch.o)
 .debug_loc     0x00000000000e2436     0x1418 /usr/lib/gcl-2.6.7/unixport//libansi_gcl.a(gcl_cmpmulti.o)
 .debug_loc     0x00000000000e384e     0x3d5c /usr/lib/gcl-2.6.7/unixport//libansi_gcl.a(gcl_cmpmain.o)
 .debug_loc     0x00000000000e75aa     0x8604 /usr/lib/gcl-2.6.7/unixport//libansi_gcl.a(gcl_cmptop.o)
 .debug_loc     0x00000000000efbae      0xb3d /usr/lib/gcl-2.6.7/unixport//libansi_gcl.a(gcl_cmptype.o)
 .debug_loc     0x00000000000f06eb     0x29d8 /usr/lib/gcl-2.6.7/unixport//libansi_gcl.a(gcl_cmpvar.o)
 .debug_loc     0x00000000000f30c3     0x2033 /usr/lib/gcl-2.6.7/unixport//libansi_gcl.a(gcl_cmpif.o)
 .debug_loc     0x00000000000f50f6      0xa74 /usr/lib/gcl-2.6.7/unixport//libansi_gcl.a(gcl_cmpbind.o)
 .debug_loc     0x00000000000f5b6a      0xef4 /usr/lib/gcl-2.6.7/unixport//libansi_gcl.a(gcl_cmploc.o)
 .debug_loc     0x00000000000f6a5e      0xd81 /usr/lib/gcl-2.6.7/unixport//libansi_gcl.a(gcl_cmplabel.o)
 .debug_loc     0x00000000000f77df     0x1111 /usr/lib/gcl-2.6.7/unixport//libansi_gcl.a(gcl_cmpmap.o)
 .debug_loc     0x00000000000f88f0     0x42d8 /usr/lib/gcl-2.6.7/unixport//libansi_gcl.a(gcl_cmpinline.o)
 .debug_loc     0x00000000000fcbc8     0x3d8c /usr/lib/gcl-2.6.7/unixport//libansi_gcl.a(gcl_cmpeval.o)
 .debug_loc     0x0000000000100954     0x3502 /usr/lib/gcl-2.6.7/unixport//libansi_gcl.a(gcl_cmpcall.o)
 .debug_loc     0x0000000000103e56      0x409 /usr/lib/gcl-2.6.7/unixport//libansi_gcl.a(gcl_pcl_gazonk5.o)
 .debug_loc     0x000000000010425f     0xe4f2 /usr/lib/gcl-2.6.7/unixport//libansi_gcl.a(gcl_pcl_precom2.o)
 .debug_loc     0x0000000000112751     0x4cf6 /usr/lib/gcl-2.6.7/unixport//libansi_gcl.a(gcl_pcl_macros.o)
 .debug_loc     0x0000000000117447     0x8c6c /usr/lib/gcl-2.6.7/unixport//libansi_gcl.a(gcl_pcl_fast_init.o)
 .debug_loc     0x00000000001200b3     0x23cf /usr/lib/gcl-2.6.7/unixport//libansi_gcl.a(gcl_pcl_env.o)
 .debug_loc     0x0000000000122482     0x589f /usr/lib/gcl-2.6.7/unixport//libansi_gcl.a(gcl_pcl_walk.o)
 .debug_loc     0x0000000000127d21     0x1f24 /usr/lib/gcl-2.6.7/unixport//libansi_gcl.a(gcl_pcl_defcombin.o)
 .debug_loc     0x0000000000129c45     0xadb1 /usr/lib/gcl-2.6.7/unixport//libansi_gcl.a(gcl_pcl_std_class.o)
 .debug_loc     0x00000000001349f6     0x2c03 /usr/lib/gcl-2.6.7/unixport//libansi_gcl.a(gcl_pcl_defclass.o)
 .debug_loc     0x00000000001375f9      0x365 /usr/lib/gcl-2.6.7/unixport//libansi_gcl.a(gcl_pcl_fsc.o)
 .debug_loc     0x000000000013795e     0x7e8e /usr/lib/gcl-2.6.7/unixport//libansi_gcl.a(gcl_pcl_vector.o)
 .debug_loc     0x000000000013f7ec       0x2c /usr/lib/gcl-2.6.7/unixport//libansi_gcl.a(gcl_pcl_precom1.o)
 .debug_loc     0x000000000013f818       0x2c /usr/lib/gcl-2.6.7/unixport//libansi_gcl.a(gcl_pcl_compat.o)
 .debug_loc     0x000000000013f844     0x1bb2 /usr/lib/gcl-2.6.7/unixport//libansi_gcl.a(gcl_pcl_cpl.o)
 .debug_loc     0x00000000001413f6     0x1557 /usr/lib/gcl-2.6.7/unixport//libansi_gcl.a(gcl_pcl_fngen.o)
 .debug_loc     0x000000000014294d     0x411c /usr/lib/gcl-2.6.7/unixport//libansi_gcl.a(gcl_pcl_slots_boot.o)
 .debug_loc     0x0000000000146a69      0x35c /usr/lib/gcl-2.6.7/unixport//libansi_gcl.a(gcl_pcl_gazonk7.o)
 .debug_loc     0x0000000000146dc5      0x5d3 /usr/lib/gcl-2.6.7/unixport//libansi_gcl.a(gcl_pcl_gazonk3.o)
 .debug_loc     0x0000000000147398     0xccc2 /usr/lib/gcl-2.6.7/unixport//libansi_gcl.a(gcl_pcl_boot.o)
 .debug_loc     0x000000000015405a     0x200f /usr/lib/gcl-2.6.7/unixport//libansi_gcl.a(gcl_pcl_impl_low.o)
 .debug_loc     0x0000000000156069     0x2a51 /usr/lib/gcl-2.6.7/unixport//libansi_gcl.a(gcl_pcl_dlisp.o)
 .debug_loc     0x0000000000158aba     0x1a5b /usr/lib/gcl-2.6.7/unixport//libansi_gcl.a(gcl_pcl_init.o)
 .debug_loc     0x000000000015a515     0x3c03 /usr/lib/gcl-2.6.7/unixport//libansi_gcl.a(gcl_pcl_dlisp2.o)
 .debug_loc     0x000000000015e118     0xa823 /usr/lib/gcl-2.6.7/unixport//libansi_gcl.a(gcl_pcl_cache.o)
 .debug_loc     0x000000000016893b      0x424 /usr/lib/gcl-2.6.7/unixport//libansi_gcl.a(gcl_pcl_gazonk6.o)
 .debug_loc     0x0000000000168d5f     0x42d8 /usr/lib/gcl-2.6.7/unixport//libansi_gcl.a(gcl_pcl_defs.o)
 .debug_loc     0x000000000016d037     0x244c /usr/lib/gcl-2.6.7/unixport//libansi_gcl.a(gcl_pcl_low.o)
 .debug_loc     0x000000000016f483     0x73bc /usr/lib/gcl-2.6.7/unixport//libansi_gcl.a(gcl_pcl_generic_functions.o)
 .debug_loc     0x000000000017683f      0x32b /usr/lib/gcl-2.6.7/unixport//libansi_gcl.a(gcl_pcl_gazonk4.o)
 .debug_loc     0x0000000000176b6a     0x455e /usr/lib/gcl-2.6.7/unixport//libansi_gcl.a(gcl_pcl_iterate.o)
 .debug_loc     0x000000000017b0c8      0x7a2 /usr/lib/gcl-2.6.7/unixport//libansi_gcl.a(gcl_pcl_gazonk2.o)
 .debug_loc     0x000000000017b86a     0xbd8f /usr/lib/gcl-2.6.7/unixport//libansi_gcl.a(gcl_pcl_methods.o)
 .debug_loc     0x00000000001875f9      0xdcb /usr/lib/gcl-2.6.7/unixport//libansi_gcl.a(gcl_pcl_fin.o)
 .debug_loc     0x00000000001883c4      0x240 /usr/lib/gcl-2.6.7/unixport//libansi_gcl.a(gcl_pcl_gazonk1.o)
 .debug_loc     0x0000000000188604      0x240 /usr/lib/gcl-2.6.7/unixport//libansi_gcl.a(gcl_pcl_gazonk0.o)
 .debug_loc     0x0000000000188844     0xd530 /usr/lib/gcl-2.6.7/unixport//libansi_gcl.a(gcl_pcl_dfun.o)
 .debug_loc     0x0000000000195d74       0xbd /usr/lib/gcl-2.6.7/unixport//libansi_gcl.a(gcl_pcl_fixup.o)
 .debug_loc     0x0000000000195e31     0x1e34 /usr/lib/gcl-2.6.7/unixport//libansi_gcl.a(gcl_pcl_slots.o)
 .debug_loc     0x0000000000197c65     0x2947 /usr/lib/gcl-2.6.7/unixport//libansi_gcl.a(gcl_pcl_combin.o)
 .debug_loc     0x000000000019a5ac      0x142 /usr/lib/gcl-2.6.7/unixport//libansi_gcl.a(gcl_pcl_pkg.o)
 .debug_loc     0x000000000019a6ee     0x431e /usr/lib/gcl-2.6.7/unixport//libansi_gcl.a(gcl_pcl_braid.o)
 .debug_loc     0x000000000019ea0c      0x544 /usr/lib/gcl-2.6.7/unixport//libansi_gcl.a(gcl_pcl_ctypes.o)
 .debug_loc     0x000000000019ef50     0x146c /usr/lib/gcl-2.6.7/unixport//libansi_gcl.a(gcl_clcs_install.o)
 .debug_loc     0x00000000001a03bc     0x1802 /usr/lib/gcl-2.6.7/unixport//libansi_gcl.a(gcl_clcs_handler.o)
 .debug_loc     0x00000000001a1bbe      0xe68 /usr/lib/gcl-2.6.7/unixport//libansi_gcl.a(gcl_clcs_macros.o)
 .debug_loc     0x00000000001a2a26      0xceb /usr/lib/gcl-2.6.7/unixport//libansi_gcl.a(gcl_clcs_conditions.o)
 .debug_loc     0x00000000001a3711     0x1c0b /usr/lib/gcl-2.6.7/unixport//libansi_gcl.a(gcl_clcs_debugger.o)
 .debug_loc     0x00000000001a531c     0x1341 /usr/lib/gcl-2.6.7/unixport//libansi_gcl.a(gcl_clcs_top_patches.o)
 .debug_loc     0x00000000001a665d     0x5fdb /usr/lib/gcl-2.6.7/unixport//libansi_gcl.a(gcl_clcs_condition_definitions.o)
 .debug_loc     0x00000000001ac638     0x1b85 /usr/lib/gcl-2.6.7/unixport//libansi_gcl.a(gcl_clcs_restart.o)
 .debug_loc     0x00000000001ae1bd      0xaae /usr/lib/gcl-2.6.7/unixport//libansi_gcl.a(gcl_clcs_precom.o)
 .debug_loc     0x00000000001aec6b     0x139b /usr/lib/gcl-2.6.7/unixport//libansi_gcl.a(gcl_clcs_kcl_cond.o)
 .debug_loc     0x00000000001b0006      0xb62 /usr/lib/gcl-2.6.7/unixport//libansi_gcl.a(num_sfun.o)
 .debug_loc     0x00000000001b0b68      0x1f6 /usr/lib/gcl-2.6.7/unixport//libansi_gcl.a(num_rand.o)
 .debug_loc     0x00000000001b0d5e      0x18c /usr/lib/gcl-2.6.7/unixport//libansi_gcl.a(general-c.o)

.debug_macinfo
 *(.debug_macinfo)

.debug_weaknames
 *(.debug_weaknames)

.debug_funcnames
 *(.debug_funcnames)

.debug_typenames
 *(.debug_typenames)

.debug_varnames
 *(.debug_varnames)

.debug_pubtypes
 *(.debug_pubtypes)

.debug_ranges   0x0000000000000000    0x62688
 *(.debug_ranges)
 .debug_ranges  0x0000000000000000      0x2a0 /usr/lib/gcl-2.6.7/unixport//libansi_gcl.a(main.o)
 .debug_ranges  0x00000000000002a0      0x540 /usr/lib/gcl-2.6.7/unixport//libansi_gcl.a(package.o)
 .debug_ranges  0x00000000000007e0       0x40 /usr/lib/gcl-2.6.7/unixport//libansi_gcl.a(gcl_readline.o)
 .debug_ranges  0x0000000000000820      0x150 /usr/lib/gcl-2.6.7/unixport//libansi_gcl.a(symbol.o)
 .debug_ranges  0x0000000000000970       0x70 /usr/lib/gcl-2.6.7/unixport//libansi_gcl.a(makefun.o)
 .debug_ranges  0x00000000000009e0      0x130 /usr/lib/gcl-2.6.7/unixport//libansi_gcl.a(string.o)
 .debug_ranges  0x0000000000000b10      0x230 /usr/lib/gcl-2.6.7/unixport//libansi_gcl.a(print.o)
 .debug_ranges  0x0000000000000d40       0x68 /usr/lib/gcl-2.6.7/unixport//libansi_gcl.a(macros.o)
 .debug_ranges  0x0000000000000da8       0xe0 /usr/lib/gcl-2.6.7/unixport//libansi_gcl.a(multival.o)
 .debug_ranges  0x0000000000000e88      0x528 /usr/lib/gcl-2.6.7/unixport//libansi_gcl.a(file.o)
 .debug_ranges  0x00000000000013b0       0x40 /usr/lib/gcl-2.6.7/unixport//libansi_gcl.a(sys_ansi_gcl.o)
 .debug_ranges  0x00000000000013f0      0x318 /usr/lib/gcl-2.6.7/unixport//libansi_gcl.a(sfasl.o)
 .debug_ranges  0x0000000000001708      0x5a8 /usr/lib/gcl-2.6.7/unixport//libansi_gcl.a(eval.o)
 .debug_ranges  0x0000000000001cb0      0x330 /usr/lib/gcl-2.6.7/unixport//libansi_gcl.a(array.o)
 .debug_ranges  0x0000000000001fe0       0x60 /usr/lib/gcl-2.6.7/unixport//libansi_gcl.a(lex.o)
 .debug_ranges  0x0000000000002040      0x198 /usr/lib/gcl-2.6.7/unixport//libansi_gcl.a(earith.o)
 .debug_ranges  0x00000000000021d8      0x1f8 /usr/lib/gcl-2.6.7/unixport//libansi_gcl.a(toplevel.o)
 .debug_ranges  0x00000000000023d0      0x180 /usr/lib/gcl-2.6.7/unixport//libansi_gcl.a(nsocket.o)
 .debug_ranges  0x0000000000002550      0x608 /usr/lib/gcl-2.6.7/unixport//libansi_gcl.a(list.o)
 .debug_ranges  0x0000000000002b58      0x138 /usr/lib/gcl-2.6.7/unixport//libansi_gcl.a(structure.o)
 .debug_ranges  0x0000000000002c90      0x100 /usr/lib/gcl-2.6.7/unixport//libansi_gcl.a(unixfsys.o)
 .debug_ranges  0x0000000000002d90       0xa0 /usr/lib/gcl-2.6.7/unixport//libansi_gcl.a(unixsys.o)
 .debug_ranges  0x0000000000002e30      0x110 /usr/lib/gcl-2.6.7/unixport//libansi_gcl.a(predicate.o)
 .debug_ranges  0x0000000000002f40       0x18 /usr/lib/gcl-2.6.7/unixport//libansi_gcl.a(number.o)
 .debug_ranges  0x0000000000002f58       0x30 /usr/lib/gcl-2.6.7/unixport//libansi_gcl.a(cmpaux.o)
 .debug_ranges  0x0000000000002f88      0x1d0 /usr/lib/gcl-2.6.7/unixport//libansi_gcl.a(num_log.o)
 .debug_ranges  0x0000000000003158      0x140 /usr/lib/gcl-2.6.7/unixport//libansi_gcl.a(sequence.o)
 .debug_ranges  0x0000000000003298       0xb8 /usr/lib/gcl-2.6.7/unixport//libansi_gcl.a(pathname.o)
 .debug_ranges  0x0000000000003350      0x158 /usr/lib/gcl-2.6.7/unixport//libansi_gcl.a(unixsave.o)
 .debug_ranges  0x00000000000034a8      0x250 /usr/lib/gcl-2.6.7/unixport//libansi_gcl.a(num_co.o)
 .debug_ranges  0x00000000000036f8      0x110 /usr/lib/gcl-2.6.7/unixport//libansi_gcl.a(usig2.o)
 .debug_ranges  0x0000000000003808      0x380 /usr/lib/gcl-2.6.7/unixport//libansi_gcl.a(let.o)
 .debug_ranges  0x0000000000003b88      0x650 /usr/lib/gcl-2.6.7/unixport//libansi_gcl.a(bind.o)
 .debug_ranges  0x00000000000041d8      0x240 /usr/lib/gcl-2.6.7/unixport//libansi_gcl.a(mapfun.o)
 .debug_ranges  0x0000000000004418      0x250 /usr/lib/gcl-2.6.7/unixport//libansi_gcl.a(funlink.o)
 .debug_ranges  0x0000000000004668       0x50 /usr/lib/gcl-2.6.7/unixport//libansi_gcl.a(utils.o)
 .debug_ranges  0x00000000000046b8      0x5c8 /usr/lib/gcl-2.6.7/unixport//libansi_gcl.a(read.o)
 .debug_ranges  0x0000000000004c80      0x320 /usr/lib/gcl-2.6.7/unixport//libansi_gcl.a(prog.o)
 .debug_ranges  0x0000000000004fa0      0x160 /usr/lib/gcl-2.6.7/unixport//libansi_gcl.a(catch.o)
 .debug_ranges  0x0000000000005100      0x588 /usr/lib/gcl-2.6.7/unixport//libansi_gcl.a(iteration.o)
 .debug_ranges  0x0000000000005688      0x368 /usr/lib/gcl-2.6.7/unixport//libansi_gcl.a(error.o)
 .debug_ranges  0x00000000000059f0       0x90 /usr/lib/gcl-2.6.7/unixport//libansi_gcl.a(unixtime.o)
 .debug_ranges  0x0000000000005a80      0x6e8 /usr/lib/gcl-2.6.7/unixport//libansi_gcl.a(format.o)
 .debug_ranges  0x0000000000006168      0x150 /usr/lib/gcl-2.6.7/unixport//libansi_gcl.a(big.o)
 .debug_ranges  0x00000000000062b8      0x1a0 /usr/lib/gcl-2.6.7/unixport//libansi_gcl.a(hash.o)
 .debug_ranges  0x0000000000006458       0x70 /usr/lib/gcl-2.6.7/unixport//libansi_gcl.a(gmp_wrappers.o)
 .debug_ranges  0x00000000000064c8       0xc0 /usr/lib/gcl-2.6.7/unixport//libansi_gcl.a(reference.o)
 .debug_ranges  0x0000000000006588      0x760 /usr/lib/gcl-2.6.7/unixport//libansi_gcl.a(fat_string.o)
 .debug_ranges  0x0000000000006ce8       0x98 /usr/lib/gcl-2.6.7/unixport//libansi_gcl.a(character.o)
 .debug_ranges  0x0000000000006d80      0x5e8 /usr/lib/gcl-2.6.7/unixport//libansi_gcl.a(alloc.o)
 .debug_ranges  0x0000000000007368      0xa40 /usr/lib/gcl-2.6.7/unixport//libansi_gcl.a(regexpr.o)
 .debug_ranges  0x0000000000007da8       0x40 /usr/lib/gcl-2.6.7/unixport//libansi_gcl.a(usig.o)
 .debug_ranges  0x0000000000007de8      0x920 /usr/lib/gcl-2.6.7/unixport//libansi_gcl.a(gbc.o)
 .debug_ranges  0x0000000000008708       0xb0 /usr/lib/gcl-2.6.7/unixport//libansi_gcl.a(cfun.o)
 .debug_ranges  0x00000000000087b8       0xa8 /usr/lib/gcl-2.6.7/unixport//libansi_gcl.a(nfunlink.o)
 .debug_ranges  0x0000000000008860       0x40 /usr/lib/gcl-2.6.7/unixport//libansi_gcl.a(backq.o)
 .debug_ranges  0x00000000000088a0       0x30 /usr/lib/gcl-2.6.7/unixport//libansi_gcl.a(run_process.o)
 .debug_ranges  0x00000000000088d0      0x510 /usr/lib/gcl-2.6.7/unixport//libansi_gcl.a(assignment.o)
 .debug_ranges  0x0000000000008de0      0x2a0 /usr/lib/gcl-2.6.7/unixport//libansi_gcl.a(conditional.o)
 .debug_ranges  0x0000000000009080      0x198 /usr/lib/gcl-2.6.7/unixport//libansi_gcl.a(block.o)
 .debug_ranges  0x0000000000009218      0x130 /usr/lib/gcl-2.6.7/unixport//libansi_gcl.a(num_arith.o)
 .debug_ranges  0x0000000000009348      0x2c0 /usr/lib/gcl-2.6.7/unixport//libansi_gcl.a(sockets.o)
 .debug_ranges  0x0000000000009608      0x1d8 /usr/lib/gcl-2.6.7/unixport//libansi_gcl.a(gcl_numlib.o)
 .debug_ranges  0x00000000000097e0      0x5b8 /usr/lib/gcl-2.6.7/unixport//libansi_gcl.a(gcl_destructuring_bind.o)
 .debug_ranges  0x0000000000009d98      0x740 /usr/lib/gcl-2.6.7/unixport//libansi_gcl.a(gcl_listlib.o)
 .debug_ranges  0x000000000000a4d8       0xc8 /usr/lib/gcl-2.6.7/unixport//libansi_gcl.a(gcl_module.o)
 .debug_ranges  0x000000000000a5a0     0x13e0 /usr/lib/gcl-2.6.7/unixport//libansi_gcl.a(gcl_top.o)
 .debug_ranges  0x000000000000b980      0xe88 /usr/lib/gcl-2.6.7/unixport//libansi_gcl.a(gcl_predlib.o)
 .debug_ranges  0x000000000000c808      0xc38 /usr/lib/gcl-2.6.7/unixport//libansi_gcl.a(gcl_iolib.o)
 .debug_ranges  0x000000000000d440      0x620 /usr/lib/gcl-2.6.7/unixport//libansi_gcl.a(gcl_serror.o)
 .debug_ranges  0x000000000000da60     0x1028 /usr/lib/gcl-2.6.7/unixport//libansi_gcl.a(gcl_defstruct.o)
 .debug_ranges  0x000000000000ea88     0x1b70 /usr/lib/gcl-2.6.7/unixport//libansi_gcl.a(gcl_debug.o)
 .debug_ranges  0x00000000000105f8      0xae8 /usr/lib/gcl-2.6.7/unixport//libansi_gcl.a(gcl_arraylib.o)
 .debug_ranges  0x00000000000110e0      0xbe0 /usr/lib/gcl-2.6.7/unixport//libansi_gcl.a(gcl_packlib.o)
 .debug_ranges  0x0000000000011cc0      0x968 /usr/lib/gcl-2.6.7/unixport//libansi_gcl.a(gcl_seq.o)
 .debug_ranges  0x0000000000012628      0x718 /usr/lib/gcl-2.6.7/unixport//libansi_gcl.a(gcl_defpackage.o)
 .debug_ranges  0x0000000000012d40     0x11b0 /usr/lib/gcl-2.6.7/unixport//libansi_gcl.a(gcl_info.o)
 .debug_ranges  0x0000000000013ef0      0x570 /usr/lib/gcl-2.6.7/unixport//libansi_gcl.a(gcl_trace.o)
 .debug_ranges  0x0000000000014460     0x1688 /usr/lib/gcl-2.6.7/unixport//libansi_gcl.a(gcl_sloop.o)
 .debug_ranges  0x0000000000015ae8      0x368 /usr/lib/gcl-2.6.7/unixport//libansi_gcl.a(gcl_mislib.o)
 .debug_ranges  0x0000000000015e50      0x4f8 /usr/lib/gcl-2.6.7/unixport//libansi_gcl.a(gcl_defmacro.o)
 .debug_ranges  0x0000000000016348      0xe88 /usr/lib/gcl-2.6.7/unixport//libansi_gcl.a(gcl_evalmacros.o)
 .debug_ranges  0x00000000000171d0     0x1f80 /usr/lib/gcl-2.6.7/unixport//libansi_gcl.a(gcl_seqlib.o)
 .debug_ranges  0x0000000000019150     0x2020 /usr/lib/gcl-2.6.7/unixport//libansi_gcl.a(gcl_loop.o)
 .debug_ranges  0x000000000001b170      0xef8 /usr/lib/gcl-2.6.7/unixport//libansi_gcl.a(gcl_describe.o)
 .debug_ranges  0x000000000001c068     0x18b0 /usr/lib/gcl-2.6.7/unixport//libansi_gcl.a(gcl_setf.o)
 .debug_ranges  0x000000000001d918      0x360 /usr/lib/gcl-2.6.7/unixport//libansi_gcl.a(gcl_make_defpackage.o)
 .debug_ranges  0x000000000001dc78      0xcb0 /usr/lib/gcl-2.6.7/unixport//libansi_gcl.a(gcl_assert.o)
 .debug_ranges  0x000000000001e928     0x1d10 /usr/lib/gcl-2.6.7/unixport//libansi_gcl.a(gcl_defentry_events.o)
 .debug_ranges  0x0000000000020638     0x11b8 /usr/lib/gcl-2.6.7/unixport//libansi_gcl.a(gcl_XStruct_l_3.o)
 .debug_ranges  0x00000000000217f0      0x5d8 /usr/lib/gcl-2.6.7/unixport//libansi_gcl.a(gcl_tohtml.o)
 .debug_ranges  0x0000000000021dc8      0x438 /usr/lib/gcl-2.6.7/unixport//libansi_gcl.a(gcl_Xutil.o)
 .debug_ranges  0x0000000000022200      0xe88 /usr/lib/gcl-2.6.7/unixport//libansi_gcl.a(gcl_Xlib.o)
 .debug_ranges  0x0000000000023088      0xae0 /usr/lib/gcl-2.6.7/unixport//libansi_gcl.a(gcl_Xstruct.o)
 .debug_ranges  0x0000000000023b68       0x40 /usr/lib/gcl-2.6.7/unixport//libansi_gcl.a(gcl_Xinit.o)
 .debug_ranges  0x0000000000023ba8      0x120 /usr/lib/gcl-2.6.7/unixport//libansi_gcl.a(gcl_index.o)
 .debug_ranges  0x0000000000023cc8     0x3640 /usr/lib/gcl-2.6.7/unixport//libansi_gcl.a(gcl_dwtrans.o)
 .debug_ranges  0x0000000000027308      0x120 /usr/lib/gcl-2.6.7/unixport//libansi_gcl.a(gcl_general.o)
 .debug_ranges  0x0000000000027428      0x800 /usr/lib/gcl-2.6.7/unixport//libansi_gcl.a(gcl_cmplet.o)
 .debug_ranges  0x0000000000027c28      0x670 /usr/lib/gcl-2.6.7/unixport//libansi_gcl.a(gcl_cmpflet.o)
 .debug_ranges  0x0000000000028298      0xe80 /usr/lib/gcl-2.6.7/unixport//libansi_gcl.a(gcl_cmpfun.o)
 .debug_ranges  0x0000000000029118      0x330 /usr/lib/gcl-2.6.7/unixport//libansi_gcl.a(gcl_cmpspecial.o)
 .debug_ranges  0x0000000000029448      0x680 /usr/lib/gcl-2.6.7/unixport//libansi_gcl.a(gcl_cmputil.o)
 .debug_ranges  0x0000000000029ac8      0x670 /usr/lib/gcl-2.6.7/unixport//libansi_gcl.a(gcl_cmptag.o)
 .debug_ranges  0x000000000002a138      0x298 /usr/lib/gcl-2.6.7/unixport//libansi_gcl.a(gcl_cmpblock.o)
 .debug_ranges  0x000000000002a3d0      0x350 /usr/lib/gcl-2.6.7/unixport//libansi_gcl.a(gcl_cmpwt.o)
 .debug_ranges  0x000000000002a720      0xee8 /usr/lib/gcl-2.6.7/unixport//libansi_gcl.a(gcl_cmplam.o)
 .debug_ranges  0x000000000002b608       0x48 /usr/lib/gcl-2.6.7/unixport//libansi_gcl.a(gcl_cmpvs.o)
 .debug_ranges  0x000000000002b650      0xa08 /usr/lib/gcl-2.6.7/unixport//libansi_gcl.a(gcl_cmpenv.o)
 .debug_ranges  0x000000000002c058      0x1e0 /usr/lib/gcl-2.6.7/unixport//libansi_gcl.a(gcl_cmpcatch.o)
 .debug_ranges  0x000000000002c238      0x4c8 /usr/lib/gcl-2.6.7/unixport//libansi_gcl.a(gcl_cmpmulti.o)
 .debug_ranges  0x000000000002c700     0x1258 /usr/lib/gcl-2.6.7/unixport//libansi_gcl.a(gcl_cmpmain.o)
 .debug_ranges  0x000000000002d958     0x2498 /usr/lib/gcl-2.6.7/unixport//libansi_gcl.a(gcl_cmptop.o)
 .debug_ranges  0x000000000002fdf0      0x230 /usr/lib/gcl-2.6.7/unixport//libansi_gcl.a(gcl_cmptype.o)
 .debug_ranges  0x0000000000030020      0x828 /usr/lib/gcl-2.6.7/unixport//libansi_gcl.a(gcl_cmpvar.o)
 .debug_ranges  0x0000000000030848      0x890 /usr/lib/gcl-2.6.7/unixport//libansi_gcl.a(gcl_cmpif.o)
 .debug_ranges  0x00000000000310d8      0x158 /usr/lib/gcl-2.6.7/unixport//libansi_gcl.a(gcl_cmpbind.o)
 .debug_ranges  0x0000000000031230      0x2e8 /usr/lib/gcl-2.6.7/unixport//libansi_gcl.a(gcl_cmploc.o)
 .debug_ranges  0x0000000000031518      0x378 /usr/lib/gcl-2.6.7/unixport//libansi_gcl.a(gcl_cmplabel.o)
 .debug_ranges  0x0000000000031890      0x388 /usr/lib/gcl-2.6.7/unixport//libansi_gcl.a(gcl_cmpmap.o)
 .debug_ranges  0x0000000000031c18     0x1060 /usr/lib/gcl-2.6.7/unixport//libansi_gcl.a(gcl_cmpinline.o)
 .debug_ranges  0x0000000000032c78      0xd30 /usr/lib/gcl-2.6.7/unixport//libansi_gcl.a(gcl_cmpeval.o)
 .debug_ranges  0x00000000000339a8      0xc08 /usr/lib/gcl-2.6.7/unixport//libansi_gcl.a(gcl_cmpcall.o)
 .debug_ranges  0x00000000000345b0      0x1d8 /usr/lib/gcl-2.6.7/unixport//libansi_gcl.a(gcl_pcl_gazonk5.o)
 .debug_ranges  0x0000000000034788     0x4220 /usr/lib/gcl-2.6.7/unixport//libansi_gcl.a(gcl_pcl_precom2.o)
 .debug_ranges  0x00000000000389a8     0x1790 /usr/lib/gcl-2.6.7/unixport//libansi_gcl.a(gcl_pcl_macros.o)
 .debug_ranges  0x000000000003a138     0x2758 /usr/lib/gcl-2.6.7/unixport//libansi_gcl.a(gcl_pcl_fast_init.o)
 .debug_ranges  0x000000000003c890      0xbe8 /usr/lib/gcl-2.6.7/unixport//libansi_gcl.a(gcl_pcl_env.o)
 .debug_ranges  0x000000000003d478     0x1168 /usr/lib/gcl-2.6.7/unixport//libansi_gcl.a(gcl_pcl_walk.o)
 .debug_ranges  0x000000000003e5e0      0x688 /usr/lib/gcl-2.6.7/unixport//libansi_gcl.a(gcl_pcl_defcombin.o)
 .debug_ranges  0x000000000003ec68     0x2df8 /usr/lib/gcl-2.6.7/unixport//libansi_gcl.a(gcl_pcl_std_class.o)
 .debug_ranges  0x0000000000041a60      0x848 /usr/lib/gcl-2.6.7/unixport//libansi_gcl.a(gcl_pcl_defclass.o)
 .debug_ranges  0x00000000000422a8       0x50 /usr/lib/gcl-2.6.7/unixport//libansi_gcl.a(gcl_pcl_fsc.o)
 .debug_ranges  0x00000000000422f8     0x29d0 /usr/lib/gcl-2.6.7/unixport//libansi_gcl.a(gcl_pcl_vector.o)
 .debug_ranges  0x0000000000044cc8      0x760 /usr/lib/gcl-2.6.7/unixport//libansi_gcl.a(gcl_pcl_cpl.o)
 .debug_ranges  0x0000000000045428      0x368 /usr/lib/gcl-2.6.7/unixport//libansi_gcl.a(gcl_pcl_fngen.o)
 .debug_ranges  0x0000000000045790     0x1480 /usr/lib/gcl-2.6.7/unixport//libansi_gcl.a(gcl_pcl_slots_boot.o)
 .debug_ranges  0x0000000000046c10      0x1d8 /usr/lib/gcl-2.6.7/unixport//libansi_gcl.a(gcl_pcl_gazonk7.o)
 .debug_ranges  0x0000000000046de8      0x2b0 /usr/lib/gcl-2.6.7/unixport//libansi_gcl.a(gcl_pcl_gazonk3.o)
 .debug_ranges  0x0000000000047098     0x3a00 /usr/lib/gcl-2.6.7/unixport//libansi_gcl.a(gcl_pcl_boot.o)
 .debug_ranges  0x000000000004aa98      0x9b0 /usr/lib/gcl-2.6.7/unixport//libansi_gcl.a(gcl_pcl_impl_low.o)
 .debug_ranges  0x000000000004b448      0xa80 /usr/lib/gcl-2.6.7/unixport//libansi_gcl.a(gcl_pcl_dlisp.o)
 .debug_ranges  0x000000000004bec8      0x6c0 /usr/lib/gcl-2.6.7/unixport//libansi_gcl.a(gcl_pcl_init.o)
 .debug_ranges  0x000000000004c588     0x1230 /usr/lib/gcl-2.6.7/unixport//libansi_gcl.a(gcl_pcl_dlisp2.o)
 .debug_ranges  0x000000000004d7b8     0x5c68 /usr/lib/gcl-2.6.7/unixport//libansi_gcl.a(gcl_pcl_cache.o)
 .debug_ranges  0x0000000000053420      0x168 /usr/lib/gcl-2.6.7/unixport//libansi_gcl.a(gcl_pcl_gazonk6.o)
 .debug_ranges  0x0000000000053588      0x7b0 /usr/lib/gcl-2.6.7/unixport//libansi_gcl.a(gcl_pcl_defs.o)
 .debug_ranges  0x0000000000053d38      0xac8 /usr/lib/gcl-2.6.7/unixport//libansi_gcl.a(gcl_pcl_low.o)
 .debug_ranges  0x0000000000054800      0x190 /usr/lib/gcl-2.6.7/unixport//libansi_gcl.a(gcl_pcl_gazonk4.o)
 .debug_ranges  0x0000000000054990     0x13a8 /usr/lib/gcl-2.6.7/unixport//libansi_gcl.a(gcl_pcl_iterate.o)
 .debug_ranges  0x0000000000055d38      0x470 /usr/lib/gcl-2.6.7/unixport//libansi_gcl.a(gcl_pcl_gazonk2.o)
 .debug_ranges  0x00000000000561a8     0x2f38 /usr/lib/gcl-2.6.7/unixport//libansi_gcl.a(gcl_pcl_methods.o)
 .debug_ranges  0x00000000000590e0      0x3f0 /usr/lib/gcl-2.6.7/unixport//libansi_gcl.a(gcl_pcl_fin.o)
 .debug_ranges  0x00000000000594d0       0xd0 /usr/lib/gcl-2.6.7/unixport//libansi_gcl.a(gcl_pcl_gazonk1.o)
 .debug_ranges  0x00000000000595a0       0xc8 /usr/lib/gcl-2.6.7/unixport//libansi_gcl.a(gcl_pcl_gazonk0.o)
 .debug_ranges  0x0000000000059668     0x37c0 /usr/lib/gcl-2.6.7/unixport//libansi_gcl.a(gcl_pcl_dfun.o)
 .debug_ranges  0x000000000005ce28       0x18 /usr/lib/gcl-2.6.7/unixport//libansi_gcl.a(gcl_pcl_fixup.o)
 .debug_ranges  0x000000000005ce40      0x660 /usr/lib/gcl-2.6.7/unixport//libansi_gcl.a(gcl_pcl_slots.o)
 .debug_ranges  0x000000000005d4a0      0x7e0 /usr/lib/gcl-2.6.7/unixport//libansi_gcl.a(gcl_pcl_combin.o)
 .debug_ranges  0x000000000005dc80       0x18 /usr/lib/gcl-2.6.7/unixport//libansi_gcl.a(gcl_pcl_pkg.o)
 .debug_ranges  0x000000000005dc98      0xfe0 /usr/lib/gcl-2.6.7/unixport//libansi_gcl.a(gcl_pcl_braid.o)
 .debug_ranges  0x000000000005ec78      0x530 /usr/lib/gcl-2.6.7/unixport//libansi_gcl.a(gcl_clcs_install.o)
 .debug_ranges  0x000000000005f1a8      0x5f8 /usr/lib/gcl-2.6.7/unixport//libansi_gcl.a(gcl_clcs_handler.o)
 .debug_ranges  0x000000000005f7a0      0x348 /usr/lib/gcl-2.6.7/unixport//libansi_gcl.a(gcl_clcs_macros.o)
 .debug_ranges  0x000000000005fae8      0x170 /usr/lib/gcl-2.6.7/unixport//libansi_gcl.a(gcl_clcs_conditions.o)
 .debug_ranges  0x000000000005fc58      0x740 /usr/lib/gcl-2.6.7/unixport//libansi_gcl.a(gcl_clcs_debugger.o)
 .debug_ranges  0x0000000000060398      0x558 /usr/lib/gcl-2.6.7/unixport//libansi_gcl.a(gcl_clcs_top_patches.o)
 .debug_ranges  0x00000000000608f0      0xda0 /usr/lib/gcl-2.6.7/unixport//libansi_gcl.a(gcl_clcs_condition_definitions.o)
 .debug_ranges  0x0000000000061690      0x838 /usr/lib/gcl-2.6.7/unixport//libansi_gcl.a(gcl_clcs_restart.o)
 .debug_ranges  0x0000000000061ec8      0x118 /usr/lib/gcl-2.6.7/unixport//libansi_gcl.a(gcl_clcs_precom.o)
 .debug_ranges  0x0000000000061fe0      0x4e0 /usr/lib/gcl-2.6.7/unixport//libansi_gcl.a(gcl_clcs_kcl_cond.o)
 .debug_ranges  0x00000000000624c0      0x170 /usr/lib/gcl-2.6.7/unixport//libansi_gcl.a(num_sfun.o)
 .debug_ranges  0x0000000000062630       0x58 /usr/lib/gcl-2.6.7/unixport//libansi_gcl.a(num_rand.o)

.gnu.attributes
 *(.gnu.attributes)

/DISCARD/
 *(.note.GNU-stack)
 *(.gnu_debuglink)
 *(.gnu.lto_*)
OUTPUT(./raw_ff elf32-i386)
